Archive member included to satisfy reference by file (symbol)

build/us/libultra.a(bcopy.o)  build/us/src/game/save_file.o (bcopy)
build/us/libultra.a(osWritebackDCacheAll.o)
                              build/us/src/game/main.o (osWritebackDCacheAll)
build/us/libultra.a(bzero.o)  build/us/src/game/memory.o (bzero)
build/us/libultra.a(osInvalDCache.o)
                              build/us/src/game/memory.o (osInvalDCache)
build/us/libultra.a(osUnmapTLBAll.o)
                              build/us/src/game/main.o (osUnmapTLBAll)
build/us/libultra.a(osInvalICache.o)
                              build/us/src/game/memory.o (osInvalICache)
build/us/libultra.a(osMapTLB.o)
                              build/us/src/game/main.o (osMapTLB)
build/us/libultra.a(osWritebackDCache.o)
                              build/us/src/audio/playback.o (osWritebackDCache)
build/us/libultra.a(osContInit.o)
                              build/us/src/game/game.o (osContInit)
build/us/libultra.a(sprintf.o)
                              build/us/src/game/main.o (sprintf)
build/us/libultra.a(osViSetEvent.o)
                              build/us/src/game/main.o (osViSetEvent)
build/us/libultra.a(osViSetSpecialFeatures.o)
                              build/us/src/game/main.o (osViSetSpecialFeatures)
build/us/libultra.a(osVirtualToPhysical.o)
                              build/us/src/goddard/mario_head_6.o (osVirtualToPhysical)
build/us/libultra.a(osEepromLongWrite.o)
                              build/us/src/game/save_file.o (osEepromLongWrite)
build/us/libultra.a(osGetTime.o)
                              build/us/src/game/profiler.o (osGetTime)
build/us/libultra.a(osCreatePiManager.o)
                              build/us/src/game/main.o (osCreatePiManager)
build/us/libultra.a(guPerspectiveF.o)
                              build/us/src/game/rendering_graph_node.o (guPerspective)
build/us/libultra.a(osInitialize.o)
                              build/us/src/game/main.o (osClockRate)
build/us/libultra.a(osSpTaskLoadGo.o)
                              build/us/src/game/main.o (osSpTaskLoad)
build/us/libultra.a(osAiGetLength.o)
                              build/us/src/audio/interface_2.o (osAiGetLength)
build/us/libultra.a(osPiStartDma.o)
                              build/us/src/game/memory.o (osPiStartDma)
build/us/libultra.a(guOrthoF.o)
                              build/us/src/game/rendering_graph_node.o (guOrtho)
build/us/libultra.a(osViSetMode.o)
                              build/us/src/game/main.o (osViSetMode)
build/us/libultra.a(osContStartReadData.o)
                              build/us/libultra.a(osContInit.o) (D_80365CE0)
build/us/libultra.a(__osSiCreateAccessQueue.o)
                              build/us/libultra.a(osContInit.o) (__osSiCreateAccessQueue)
build/us/libultra.a(_Printf.o)
                              build/us/libultra.a(sprintf.o) (_Printf)
build/us/libultra.a(osEepromWrite.o)
                              build/us/libultra.a(osEepromLongWrite.o) (osEepromWrite)
build/us/libultra.a(osSetEventMesg.o)
                              build/us/src/game/main.o (osSetEventMesg)
build/us/libultra.a(sqrtf.o)  build/us/src/game/game.o (sqrtf)
build/us/libultra.a(__osSiRawStartDma.o)
                              build/us/libultra.a(osContInit.o) (__osSiRawStartDma)
build/us/libultra.a(osViSwapBuffer.o)
                              build/us/src/game/display.o (osViSwapBuffer)
build/us/libultra.a(osCreateViManager.o)
                              build/us/src/game/main.o (osViModeTable)
build/us/libultra.a(__osSpSetStatus.o)
                              build/us/libultra.a(osSpTaskLoadGo.o) (__osSpSetStatus)
build/us/libultra.a(osSetThreadPri.o)
                              build/us/src/game/main.o (osSetThreadPri)
build/us/libultra.a(guRotateF.o)
                              build/us/src/game/paintings.o (guRotate)
build/us/libultra.a(osGetThreadPri.o)
                              build/us/libultra.a(osCreatePiManager.o) (osGetThreadPri)
build/us/libultra.a(osJamMesg.o)
                              build/us/libultra.a(osPiStartDma.o) (osJamMesg)
build/us/libultra.a(osEepromLongRead.o)
                              build/us/src/game/save_file.o (osEepromLongRead)
build/us/libultra.a(osSetTimer.o)
                              build/us/libultra.a(osContInit.o) (osSetTimer)
build/us/libultra.a(__osViInit.o)
                              build/us/libultra.a(osViSetEvent.o) (D_80334914)
build/us/libultra.a(osViData.o)
                              build/us/libultra.a(__osViInit.o) (D_80334990)
build/us/libultra.a(__osSiRawReadIo.o)
                              build/us/libultra.a(osInitialize.o) (__osSiRawReadIo)
build/us/libultra.a(osCreateMesgQueue.o)
                              build/us/src/game/main.o (osCreateMesgQueue)
build/us/libultra.a(osTimer.o)
                              build/us/libultra.a(osSetTimer.o) (D_80334830)
build/us/libultra.a(__osPiCreateAccessQueue.o)
                              build/us/libultra.a(osCreatePiManager.o) (gOsPiMessageQueue)
build/us/libultra.a(guMtxF2L.o)
                              build/us/libultra.a(guPerspectiveF.o) (guMtxF2L)
build/us/libultra.a(__osSpDeviceBusy.o)
                              build/us/libultra.a(osSpTaskLoadGo.o) (__osSpDeviceBusy)
build/us/libultra.a(osEepromProbe.o)
                              build/us/src/game/game.o (osEepromProbe)
build/us/libultra.a(__osSiRawWriteIo.o)
                              build/us/libultra.a(osInitialize.o) (__osSiRawWriteIo)
build/us/libultra.a(osSpTaskYielded.o)
                              build/us/src/game/main.o (osSpTaskYielded)
build/us/libultra.a(osPiRawStartDma.o)
                              build/us/libultra.a(osCreatePiManager.o) (osPiRawStartDma)
build/us/libultra.a(osCreateThread.o)
                              build/us/src/game/main.o (osCreateThread)
build/us/libultra.a(__osSpRawStartDma.o)
                              build/us/libultra.a(osSpTaskLoadGo.o) (__osSpRawStartDma)
build/us/libultra.a(osViBlack.o)
                              build/us/src/game/main.o (osViBlack)
build/us/libultra.a(guTranslateF.o)
                              build/us/src/game/paintings.o (guTranslate)
build/us/libultra.a(osAiSetNextBuffer.o)
                              build/us/src/audio/interface_2.o (osAiSetNextBuffer)
build/us/libultra.a(_Ldtob.o)
                              build/us/libultra.a(_Printf.o) (_Ldtob)
build/us/libultra.a(string.o)
                              build/us/libultra.a(sprintf.o) (memcpy)
build/us/libultra.a(guNormalize.o)
                              build/us/libultra.a(guRotateF.o) (guNormalize)
build/us/libultra.a(osRecvMesg.o)
                              build/us/src/game/main.o (osRecvMesg)
build/us/libultra.a(osStartThread.o)
                              build/us/src/game/main.o (osStartThread)
build/us/libultra.a(__osSpGetStatus.o)
                              build/us/libultra.a(osSpTaskYielded.o) (__osSpGetStatus)
build/us/libultra.a(alBnkfNew.o)
                              build/us/src/audio/dma.o (alSeqFileNew)
build/us/libultra.a(__osViSwapContext.o)
                              build/us/libultra.a(osCreateViManager.o) (__osViSwapContext)
build/us/libultra.a(osSpTaskYield.o)
                              build/us/src/game/main.o (osSpTaskYield)
build/us/libultra.a(osPiRawReadIo.o)
                              build/us/libultra.a(osInitialize.o) (osPiRawReadIo)
build/us/libultra.a(osAiSetFrequency.o)
                              build/us/src/audio/dac.o (osAiSetFrequency)
build/us/libultra.a(guScaleF.o)
                              build/us/src/game/paintings.o (guScale)
build/us/libultra.a(__osViGetCurrentContext.o)
                              build/us/libultra.a(osCreateViManager.o) (__osViGetCurrentContext)
build/us/libultra.a(__osSiDeviceBusy.o)
                              build/us/libultra.a(__osSiRawStartDma.o) (__osSiDeviceBusy)
build/us/libultra.a(osPiGetCmdQueue.o)
                              build/us/libultra.a(osPiStartDma.o) (osPiGetCmdQueue)
build/us/libultra.a(osSetTime.o)
                              build/us/src/game/main.o (osSetTime)
build/us/libultra.a(__osDequeueThread.o)
                              build/us/libultra.a(osCreateMesgQueue.o) (D_80334890)
build/us/libultra.a(__osDevMgrMain.o)
                              build/us/libultra.a(osCreatePiManager.o) (__osDevMgrMain)
build/us/libultra.a(osSendMesg.o)
                              build/us/src/game/main.o (osSendMesg)
build/us/libultra.a(llmuldiv.o)
                              build/us/src/game/profiler.o (__ull_div)
build/us/libultra.a(sinf.o)   build/us/src/game/shadow.o (sinf)
build/us/libultra.a(llconv.o)
                              build/us/src/game/object_list_processor.o (__d_to_ull)
build/us/libultra.a(cosf.o)   build/us/src/game/shadow.o (cosf)
build/us/libultra.a(__osGetSR.o)
                              build/us/libultra.a(osInitialize.o) (__osGetSR)
build/us/libultra.a(__osDisableInt.o)
                              build/us/libultra.a(osViSetEvent.o) (__osDisableInt)
build/us/libultra.a(osGetCount.o)
                              build/us/libultra.a(osGetTime.o) (osGetCount)
build/us/libultra.a(__osSetFpcCsr.o)
                              build/us/libultra.a(osInitialize.o) (__osSetFpcCsr)
build/us/libultra.a(__osSetCompare.o)
                              build/us/libultra.a(osTimer.o) (__osSetCompare)
build/us/libultra.a(osMapTLBRdb.o)
                              build/us/libultra.a(osInitialize.o) (osMapTLBRdb)
build/us/libultra.a(__osExceptionPreamble.o)
                              build/us/libultra.a(osInitialize.o) (__osExceptionPreamble)
build/us/libultra.a(osSetIntMask.o)
                              build/us/libultra.a(__osExceptionPreamble.o) (D_803386D0)
build/us/libultra.a(__osRestoreInt.o)
                              build/us/libultra.a(osViSetEvent.o) (__osRestoreInt)
build/us/libultra.a(__osSetSR.o)
                              build/us/libultra.a(osInitialize.o) (__osSetSR)
build/us/libultra.a(__osProbeTLB.o)
                              build/us/libultra.a(osVirtualToPhysical.o) (__osProbeTLB)
build/us/libultra.a(_Litob.o)
                              build/us/libultra.a(_Printf.o) (_Litob)
build/us/libultra.a(__osAiDeviceBusy.o)
                              build/us/libultra.a(osAiSetNextBuffer.o) (__osAiDeviceBusy)
build/us/libultra.a(__osSpSetPc.o)
                              build/us/libultra.a(osSpTaskLoadGo.o) (__osSpSetPc)
build/us/libultra.a(ldiv.o)   build/us/libultra.a(_Litob.o) (lldiv)
build/us/libultra.a(osEepromRead.o)
                              build/us/libultra.a(osEepromLongRead.o) (osEepromRead)
build/us/libultra.a(kdebugserver.o)
                              build/us/libultra.a(__osExceptionPreamble.o) (gInterruptedThread)
build/us/libultra.a(__osSyncPutChars.o)
                              build/us/libultra.a(__osExceptionPreamble.o) (D_80334A40)
build/us/libultra.a(NaN.o)    build/us/libultra.a(sinf.o) (NAN)
build/us/libultra.a(osDestroyThread.o)
                              build/us/libultra.a(__osExceptionPreamble.o) (osDestroyThread)
build/us/libultra.a(__osGetCause.o)
                              build/us/libultra.a(kdebugserver.o) (__osGetCause)
build/us/libultra.a(__osAtomicDec.o)
                              build/us/libultra.a(__osSyncPutChars.o) (__osAtomicDec)

Discarded input sections

 .data          0x0000000000000000        0x0 build/us/asm/rom_header.o
 .bss           0x0000000000000000        0x0 build/us/asm/rom_header.o
 .reginfo       0x0000000000000000       0x18 build/us/asm/rom_header.o
 .MIPS.abiflags
                0x0000000000000000       0x18 build/us/asm/rom_header.o
 .pdr           0x0000000000000000        0x0 build/us/asm/rom_header.o
 .gnu.attributes
                0x0000000000000000       0x10 build/us/asm/rom_header.o
 .data          0x0000000000000000        0x0 build/us/asm/boot.o
 .bss           0x0000000000000000        0x0 build/us/asm/boot.o
 .reginfo       0x0000000000000000       0x18 build/us/asm/boot.o
 .MIPS.abiflags
                0x0000000000000000       0x18 build/us/asm/boot.o
 .pdr           0x0000000000000000        0x0 build/us/asm/boot.o
 .gnu.attributes
                0x0000000000000000       0x10 build/us/asm/boot.o
 .data          0x0000000000000000        0x0 build/us/asm/entry.o
 .bss           0x0000000000000000        0x0 build/us/asm/entry.o
 .reginfo       0x0000000000000000       0x18 build/us/asm/entry.o
 .MIPS.abiflags
                0x0000000000000000       0x18 build/us/asm/entry.o
 .pdr           0x0000000000000000        0x0 build/us/asm/entry.o
 .gnu.attributes
                0x0000000000000000       0x10 build/us/asm/entry.o
 .options       0x0000000000000000       0x20 build/us/src/game/main.o
 .reginfo       0x0000000000000000       0x18 build/us/src/game/main.o
 .gptab.data    0x0000000000000000       0x30 build/us/src/game/main.o
 .gptab.bss     0x0000000000000000       0x40 build/us/src/game/main.o
 .mdebug        0x0000000000000000     0xe3c4 build/us/src/game/main.o
 .options       0x0000000000000000       0x20 build/us/src/game/display.o
 .reginfo       0x0000000000000000       0x18 build/us/src/game/display.o
 .gptab.data    0x0000000000000000       0x20 build/us/src/game/display.o
 .mdebug        0x0000000000000000     0xe2d0 build/us/src/game/display.o
 .options       0x0000000000000000       0x20 build/us/src/game/game.o
 .reginfo       0x0000000000000000       0x18 build/us/src/game/game.o
 .gptab.data    0x0000000000000000       0x20 build/us/src/game/game.o
 .gptab.bss     0x0000000000000000       0x50 build/us/src/game/game.o
 .mdebug        0x0000000000000000    0x1139c build/us/src/game/game.o
 .options       0x0000000000000000       0x20 build/us/src/game/sound_init.o
 .reginfo       0x0000000000000000       0x18 build/us/src/game/sound_init.o
 .gptab.data    0x0000000000000000       0x38 build/us/src/game/sound_init.o
 .gptab.bss     0x0000000000000000       0x30 build/us/src/game/sound_init.o
 .mdebug        0x0000000000000000    0x129e8 build/us/src/game/sound_init.o
 .options       0x0000000000000000       0x20 build/us/src/game/level_update.o
 .reginfo       0x0000000000000000       0x18 build/us/src/game/level_update.o
 .gptab.data    0x0000000000000000       0x48 build/us/src/game/level_update.o
 .gptab.bss     0x0000000000000000       0x30 build/us/src/game/level_update.o
 .mdebug        0x0000000000000000    0x16888 build/us/src/game/level_update.o
 .options       0x0000000000000000       0x20 build/us/src/game/interaction.o
 .reginfo       0x0000000000000000       0x18 build/us/src/game/interaction.o
 .gptab.data    0x0000000000000000       0x28 build/us/src/game/interaction.o
 .gptab.bss     0x0000000000000000       0x20 build/us/src/game/interaction.o
 .mdebug        0x0000000000000000    0x20d54 build/us/src/game/interaction.o
 .options       0x0000000000000000       0x20 build/us/src/game/mario.o
 .reginfo       0x0000000000000000       0x18 build/us/src/game/mario.o
 .gptab.data    0x0000000000000000       0x28 build/us/src/game/mario.o
 .gptab.bss     0x0000000000000000       0x20 build/us/src/game/mario.o
 .mdebug        0x0000000000000000    0x22d94 build/us/src/game/mario.o
 .options       0x0000000000000000       0x20 build/us/src/game/mario_step.o
 .reginfo       0x0000000000000000       0x18 build/us/src/game/mario_step.o
 .gptab.data    0x0000000000000000       0x20 build/us/src/game/mario_step.o
 .mdebug        0x0000000000000000     0xda80 build/us/src/game/mario_step.o
 .options       0x0000000000000000       0x20 build/us/src/game/mario_actions_cutscene.o
 .reginfo       0x0000000000000000       0x18 build/us/src/game/mario_actions_cutscene.o
 .gptab.data    0x0000000000000000       0x48 build/us/src/game/mario_actions_cutscene.o
 .gptab.bss     0x0000000000000000       0x20 build/us/src/game/mario_actions_cutscene.o
 .mdebug        0x0000000000000000    0x24a38 build/us/src/game/mario_actions_cutscene.o
 .options       0x0000000000000000       0x20 build/us/src/game/mario_actions_automatic.o
 .reginfo       0x0000000000000000       0x18 build/us/src/game/mario_actions_automatic.o
 .mdebug        0x0000000000000000    0x1b544 build/us/src/game/mario_actions_automatic.o
 .options       0x0000000000000000       0x20 build/us/src/game/mario_actions_stationary.o
 .reginfo       0x0000000000000000       0x18 build/us/src/game/mario_actions_stationary.o
 .mdebug        0x0000000000000000    0x1c63c build/us/src/game/mario_actions_stationary.o
 .options       0x0000000000000000       0x20 build/us/src/game/mario_actions_moving.o
 .reginfo       0x0000000000000000       0x18 build/us/src/game/mario_actions_moving.o
 .gptab.data    0x0000000000000000       0x18 build/us/src/game/mario_actions_moving.o
 .gptab.bss     0x0000000000000000       0x18 build/us/src/game/mario_actions_moving.o
 .mdebug        0x0000000000000000    0x1cdd4 build/us/src/game/mario_actions_moving.o
 .options       0x0000000000000000       0x20 build/us/src/game/mario_actions_airborne.o
 .reginfo       0x0000000000000000       0x18 build/us/src/game/mario_actions_airborne.o
 .mdebug        0x0000000000000000    0x155b4 build/us/src/game/mario_actions_airborne.o
 .options       0x0000000000000000       0x20 build/us/src/game/mario_actions_submerged.o
 .reginfo       0x0000000000000000       0x18 build/us/src/game/mario_actions_submerged.o
 .gptab.data    0x0000000000000000       0x20 build/us/src/game/mario_actions_submerged.o
 .gptab.bss     0x0000000000000000       0x20 build/us/src/game/mario_actions_submerged.o
 .mdebug        0x0000000000000000    0x1df08 build/us/src/game/mario_actions_submerged.o
 .options       0x0000000000000000       0x20 build/us/src/game/mario_actions_object.o
 .reginfo       0x0000000000000000       0x18 build/us/src/game/mario_actions_object.o
 .gptab.data    0x0000000000000000       0x18 build/us/src/game/mario_actions_object.o
 .mdebug        0x0000000000000000     0xc534 build/us/src/game/mario_actions_object.o
 .options       0x0000000000000000       0x20 build/us/src/game/level_geo.o
 .reginfo       0x0000000000000000       0x18 build/us/src/game/level_geo.o
 .mdebug        0x0000000000000000    0x10d40 build/us/src/game/level_geo.o
 .options       0x0000000000000000       0x20 build/us/src/game/mario_misc.o
 .reginfo       0x0000000000000000       0x18 build/us/src/game/mario_misc.o
 .gptab.data    0x0000000000000000       0x28 build/us/src/game/mario_misc.o
 .gptab.bss     0x0000000000000000       0x20 build/us/src/game/mario_misc.o
 .mdebug        0x0000000000000000    0x23fcc build/us/src/game/mario_misc.o
 .options       0x0000000000000000       0x20 build/us/src/game/memory.o
 .reginfo       0x0000000000000000       0x18 build/us/src/game/memory.o
 .gptab.data    0x0000000000000000       0x18 build/us/src/game/memory.o
 .gptab.bss     0x0000000000000000       0x20 build/us/src/game/memory.o
 .mdebug        0x0000000000000000     0xe62c build/us/src/game/memory.o
 .options       0x0000000000000000       0x20 build/us/src/game/save_file.o
 .reginfo       0x0000000000000000       0x18 build/us/src/game/save_file.o
 .gptab.data    0x0000000000000000       0x20 build/us/src/game/save_file.o
 .gptab.bss     0x0000000000000000       0x18 build/us/src/game/save_file.o
 .mdebug        0x0000000000000000    0x11810 build/us/src/game/save_file.o
 .options       0x0000000000000000       0x20 build/us/src/game/area.o
 .reginfo       0x0000000000000000       0x18 build/us/src/game/area.o
 .gptab.data    0x0000000000000000       0x40 build/us/src/game/area.o
 .gptab.bss     0x0000000000000000       0x38 build/us/src/game/area.o
 .mdebug        0x0000000000000000    0x1bffc build/us/src/game/area.o
 .options       0x0000000000000000       0x20 build/us/src/game/rendering_graph_node.o
 .reginfo       0x0000000000000000       0x18 build/us/src/game/rendering_graph_node.o
 .gptab.data    0x0000000000000000       0x28 build/us/src/game/rendering_graph_node.o
 .gptab.bss     0x0000000000000000       0x38 build/us/src/game/rendering_graph_node.o
 .mdebug        0x0000000000000000    0x122e4 build/us/src/game/rendering_graph_node.o
 .options       0x0000000000000000       0x20 build/us/src/game/profiler.o
 .reginfo       0x0000000000000000       0x18 build/us/src/game/profiler.o
 .gptab.data    0x0000000000000000       0x18 build/us/src/game/profiler.o
 .gptab.bss     0x0000000000000000       0x18 build/us/src/game/profiler.o
 .mdebug        0x0000000000000000     0xc7b8 build/us/src/game/profiler.o
 .data          0x0000000000000000        0x0 build/us/asm/decompress.o
 .bss           0x0000000000000000        0x0 build/us/asm/decompress.o
 .reginfo       0x0000000000000000       0x18 build/us/asm/decompress.o
 .MIPS.abiflags
                0x0000000000000000       0x18 build/us/asm/decompress.o
 .pdr           0x0000000000000000        0x0 build/us/asm/decompress.o
 .gnu.attributes
                0x0000000000000000       0x10 build/us/asm/decompress.o
 .options       0x0000000000000000       0x20 build/us/src/game/camera.o
 .reginfo       0x0000000000000000       0x18 build/us/src/game/camera.o
 .gptab.data    0x0000000000000000       0xe8 build/us/src/game/camera.o
 .gptab.bss     0x0000000000000000       0x78 build/us/src/game/camera.o
 .mdebug        0x0000000000000000    0x47bb8 build/us/src/game/camera.o
 .options       0x0000000000000000       0x20 build/us/src/game/debug_course.o
 .reginfo       0x0000000000000000       0x18 build/us/src/game/debug_course.o
 .mdebug        0x0000000000000000     0xa978 build/us/src/game/debug_course.o
 .options       0x0000000000000000       0x20 build/us/src/game/object_list_processor.o
 .reginfo       0x0000000000000000       0x18 build/us/src/game/object_list_processor.o
 .gptab.data    0x0000000000000000       0x20 build/us/src/game/object_list_processor.o
 .gptab.bss     0x0000000000000000       0x48 build/us/src/game/object_list_processor.o
 .mdebug        0x0000000000000000    0x1dbcc build/us/src/game/object_list_processor.o
 .options       0x0000000000000000       0x20 build/us/src/game/object_helpers.o
 .reginfo       0x0000000000000000       0x18 build/us/src/game/object_helpers.o
 .gptab.data    0x0000000000000000       0x20 build/us/src/game/object_helpers.o
 .gptab.bss     0x0000000000000000       0x18 build/us/src/game/object_helpers.o
 .mdebug        0x0000000000000000    0x2dc1c build/us/src/game/object_helpers.o
 .options       0x0000000000000000       0x20 build/us/src/game/behavior_actions.o
 .reginfo       0x0000000000000000       0x18 build/us/src/game/behavior_actions.o
 .gptab.data    0x0000000000000000      0x100 build/us/src/game/behavior_actions.o
 .gptab.bss     0x0000000000000000       0x18 build/us/src/game/behavior_actions.o
 .mdebug        0x0000000000000000    0x4e7e8 build/us/src/game/behavior_actions.o
 .options       0x0000000000000000       0x20 build/us/src/game/platform_displacement.o
 .reginfo       0x0000000000000000       0x18 build/us/src/game/platform_displacement.o
 .gptab.data    0x0000000000000000       0x28 build/us/src/game/platform_displacement.o
 .mdebug        0x0000000000000000     0xd8a0 build/us/src/game/platform_displacement.o
 .options       0x0000000000000000       0x20 build/us/src/game/object_collision.o
 .reginfo       0x0000000000000000       0x18 build/us/src/game/object_collision.o
 .mdebug        0x0000000000000000     0xc284 build/us/src/game/object_collision.o
 .options       0x0000000000000000       0x20 build/us/src/game/spawn_object.o
 .reginfo       0x0000000000000000       0x18 build/us/src/game/spawn_object.o
 .mdebug        0x0000000000000000    0x10e18 build/us/src/game/spawn_object.o
 .options       0x0000000000000000       0x20 build/us/src/game/spawn_sound.o
 .reginfo       0x0000000000000000       0x18 build/us/src/game/spawn_sound.o
 .mdebug        0x0000000000000000     0xc524 build/us/src/game/spawn_sound.o
 .options       0x0000000000000000       0x20 build/us/src/game/debug.o
 .reginfo       0x0000000000000000       0x18 build/us/src/game/debug.o
 .gptab.data    0x0000000000000000       0x30 build/us/src/game/debug.o
 .gptab.bss     0x0000000000000000       0x18 build/us/src/game/debug.o
 .mdebug        0x0000000000000000    0x101fc build/us/src/game/debug.o
 .options       0x0000000000000000       0x20 build/us/src/game/screen_transition.o
 .reginfo       0x0000000000000000       0x18 build/us/src/game/screen_transition.o
 .gptab.data    0x0000000000000000       0x20 build/us/src/game/screen_transition.o
 .mdebug        0x0000000000000000    0x117ec build/us/src/game/screen_transition.o
 .options       0x0000000000000000       0x20 build/us/src/game/shadow.o
 .reginfo       0x0000000000000000       0x18 build/us/src/game/shadow.o
 .gptab.data    0x0000000000000000       0x18 build/us/src/game/shadow.o
 .gptab.bss     0x0000000000000000       0x20 build/us/src/game/shadow.o
 .mdebug        0x0000000000000000    0x133f8 build/us/src/game/shadow.o
 .options       0x0000000000000000       0x20 build/us/src/game/skybox.o
 .reginfo       0x0000000000000000       0x18 build/us/src/game/skybox.o
 .gptab.data    0x0000000000000000       0x20 build/us/src/game/skybox.o
 .gptab.bss     0x0000000000000000       0x18 build/us/src/game/skybox.o
 .mdebug        0x0000000000000000     0xf7cc build/us/src/game/skybox.o
 .options       0x0000000000000000       0x20 build/us/src/game/moving_texture.o
 .reginfo       0x0000000000000000       0x18 build/us/src/game/moving_texture.o
 .gptab.data    0x0000000000000000       0x50 build/us/src/game/moving_texture.o
 .gptab.bss     0x0000000000000000       0x18 build/us/src/game/moving_texture.o
 .mdebug        0x0000000000000000    0x15ab8 build/us/src/game/moving_texture.o
 .options       0x0000000000000000       0x20 build/us/src/game/geo_misc.o
 .reginfo       0x0000000000000000       0x18 build/us/src/game/geo_misc.o
 .gptab.data    0x0000000000000000       0x18 build/us/src/game/geo_misc.o
 .gptab.bss     0x0000000000000000       0x18 build/us/src/game/geo_misc.o
 .mdebug        0x0000000000000000    0x10b38 build/us/src/game/geo_misc.o
 .options       0x0000000000000000       0x20 build/us/src/game/paintings.o
 .reginfo       0x0000000000000000       0x18 build/us/src/game/paintings.o
 .gptab.data    0x0000000000000000       0x30 build/us/src/game/paintings.o
 .gptab.bss     0x0000000000000000       0x28 build/us/src/game/paintings.o
 .mdebug        0x0000000000000000    0x13584 build/us/src/game/paintings.o
 .options       0x0000000000000000       0x20 build/us/src/game/print.o
 .reginfo       0x0000000000000000       0x18 build/us/src/game/print.o
 .gptab.data    0x0000000000000000       0x18 build/us/src/game/print.o
 .gptab.bss     0x0000000000000000       0x18 build/us/src/game/print.o
 .mdebug        0x0000000000000000     0xf418 build/us/src/game/print.o
 .options       0x0000000000000000       0x20 build/us/src/game/ingame_menu.o
 .reginfo       0x0000000000000000       0x18 build/us/src/game/ingame_menu.o
 .gptab.data    0x0000000000000000       0xc0 build/us/src/game/ingame_menu.o
 .gptab.bss     0x0000000000000000       0x28 build/us/src/game/ingame_menu.o
 .mdebug        0x0000000000000000    0x19f38 build/us/src/game/ingame_menu.o
 .options       0x0000000000000000       0x20 build/us/src/game/envfx_snow.o
 .reginfo       0x0000000000000000       0x18 build/us/src/game/envfx_snow.o
 .gptab.data    0x0000000000000000       0x30 build/us/src/game/envfx_snow.o
 .gptab.bss     0x0000000000000000       0x28 build/us/src/game/envfx_snow.o
 .mdebug        0x0000000000000000     0xe2b8 build/us/src/game/envfx_snow.o
 .options       0x0000000000000000       0x20 build/us/src/game/envfx_bubbles.o
 .reginfo       0x0000000000000000       0x18 build/us/src/game/envfx_bubbles.o
 .gptab.data    0x0000000000000000       0x20 build/us/src/game/envfx_bubbles.o
 .gptab.bss     0x0000000000000000       0x20 build/us/src/game/envfx_bubbles.o
 .mdebug        0x0000000000000000     0xe790 build/us/src/game/envfx_bubbles.o
 .options       0x0000000000000000       0x20 build/us/src/game/macro_special_objects.o
 .reginfo       0x0000000000000000       0x18 build/us/src/game/macro_special_objects.o
 .gptab.data    0x0000000000000000       0x20 build/us/src/game/macro_special_objects.o
 .mdebug        0x0000000000000000    0x1a364 build/us/src/game/macro_special_objects.o
 .options       0x0000000000000000       0x20 build/us/src/game/hud.o
 .reginfo       0x0000000000000000       0x18 build/us/src/game/hud.o
 .gptab.data    0x0000000000000000       0x28 build/us/src/game/hud.o
 .gptab.bss     0x0000000000000000       0x18 build/us/src/game/hud.o
 .mdebug        0x0000000000000000    0x12714 build/us/src/game/hud.o
 .options       0x0000000000000000       0x20 build/us/src/game/obj_behaviors.o
 .reginfo       0x0000000000000000       0x18 build/us/src/game/obj_behaviors.o
 .gptab.data    0x0000000000000000       0x40 build/us/src/game/obj_behaviors.o
 .gptab.bss     0x0000000000000000       0x18 build/us/src/game/obj_behaviors.o
 .mdebug        0x0000000000000000    0x39720 build/us/src/game/obj_behaviors.o
 .options       0x0000000000000000       0x20 build/us/src/game/obj_behaviors_2.o
 .reginfo       0x0000000000000000       0x18 build/us/src/game/obj_behaviors_2.o
 .gptab.data    0x0000000000000000       0x70 build/us/src/game/obj_behaviors_2.o
 .gptab.bss     0x0000000000000000       0x18 build/us/src/game/obj_behaviors_2.o
 .mdebug        0x0000000000000000    0x3e5a8 build/us/src/game/obj_behaviors_2.o
 .options       0x0000000000000000       0x20 build/us/src/audio/something.o
 .reginfo       0x0000000000000000       0x18 build/us/src/audio/something.o
 .options       0x0000000000000000       0x20 build/us/src/audio/dac.o
 .reginfo       0x0000000000000000       0x18 build/us/src/audio/dac.o
 .options       0x0000000000000000       0x20 build/us/src/audio/dma.o
 .reginfo       0x0000000000000000       0x18 build/us/src/audio/dma.o
 .options       0x0000000000000000       0x20 build/us/src/audio/playback.o
 .reginfo       0x0000000000000000       0x18 build/us/src/audio/playback.o
 .mdebug        0x0000000000000000     0x1ae0 build/us/src/audio/playback.o
 .options       0x0000000000000000       0x20 build/us/src/audio/playback2.o
 .reginfo       0x0000000000000000       0x18 build/us/src/audio/playback2.o
 .mdebug        0x0000000000000000      0xa80 build/us/src/audio/playback2.o
 .options       0x0000000000000000       0x20 build/us/src/audio/interface_1.o
 .reginfo       0x0000000000000000       0x18 build/us/src/audio/interface_1.o
 .options       0x0000000000000000       0x20 build/us/src/audio/interface_2.o
 .reginfo       0x0000000000000000       0x18 build/us/src/audio/interface_2.o
 .data          0x0000000000000000        0x0 build/us/lib/rsp.o
 .bss           0x0000000000000000        0x0 build/us/lib/rsp.o
 .reginfo       0x0000000000000000       0x18 build/us/lib/rsp.o
 .MIPS.abiflags
                0x0000000000000000       0x18 build/us/lib/rsp.o
 .pdr           0x0000000000000000        0x0 build/us/lib/rsp.o
 .gnu.attributes
                0x0000000000000000       0x10 build/us/lib/rsp.o
 .options       0x0000000000000000       0x20 build/us/src/audio/data.o
 .reginfo       0x0000000000000000       0x18 build/us/src/audio/data.o
 .gptab.data    0x0000000000000000       0x68 build/us/src/audio/data.o
 .mdebug        0x0000000000000000      0x5f8 build/us/src/audio/data.o
 .options       0x0000000000000000       0x20 build/us/src/game/room.o
 .reginfo       0x0000000000000000       0x18 build/us/src/game/room.o
 .gptab.bss     0x0000000000000000       0x30 build/us/src/game/room.o
 .mdebug        0x0000000000000000     0xad50 build/us/src/game/room.o
 .options       0x0000000000000000       0x20 build/us/src/engine/math_util.o
 .reginfo       0x0000000000000000       0x18 build/us/src/engine/math_util.o
 .gptab.bss     0x0000000000000000       0x18 build/us/src/engine/math_util.o
 .mdebug        0x0000000000000000     0xe734 build/us/src/engine/math_util.o
 .options       0x0000000000000000       0x20 build/us/src/engine/graph_node.o
 .reginfo       0x0000000000000000       0x18 build/us/src/engine/graph_node.o
 .gptab.data    0x0000000000000000       0x28 build/us/src/engine/graph_node.o
 .mdebug        0x0000000000000000    0x11eac build/us/src/engine/graph_node.o
 .options       0x0000000000000000       0x20 build/us/src/engine/geo_layout.o
 .reginfo       0x0000000000000000       0x18 build/us/src/engine/geo_layout.o
 .gptab.data    0x0000000000000000       0x20 build/us/src/engine/geo_layout.o
 .gptab.bss     0x0000000000000000       0x38 build/us/src/engine/geo_layout.o
 .mdebug        0x0000000000000000     0xf3e0 build/us/src/engine/geo_layout.o
 .options       0x0000000000000000       0x20 build/us/src/engine/level_script.o
 .reginfo       0x0000000000000000       0x18 build/us/src/engine/level_script.o
 .gptab.data    0x0000000000000000       0x28 build/us/src/engine/level_script.o
 .gptab.bss     0x0000000000000000       0x28 build/us/src/engine/level_script.o
 .mdebug        0x0000000000000000    0x19800 build/us/src/engine/level_script.o
 .options       0x0000000000000000       0x20 build/us/src/engine/surface_collision.o
 .reginfo       0x0000000000000000       0x18 build/us/src/engine/surface_collision.o
 .gptab.bss     0x0000000000000000       0x20 build/us/src/engine/surface_collision.o
 .mdebug        0x0000000000000000    0x12498 build/us/src/engine/surface_collision.o
 .options       0x0000000000000000       0x20 build/us/src/engine/surface_load.o
 .reginfo       0x0000000000000000       0x18 build/us/src/engine/surface_load.o
 .gptab.bss     0x0000000000000000       0x30 build/us/src/engine/surface_load.o
 .mdebug        0x0000000000000000    0x18fe0 build/us/src/engine/surface_load.o
 .options       0x0000000000000000       0x20 build/us/src/engine/behavior_script.o
 .reginfo       0x0000000000000000       0x18 build/us/src/engine/behavior_script.o
 .gptab.data    0x0000000000000000       0x18 build/us/src/engine/behavior_script.o
 .gptab.bss     0x0000000000000000       0x18 build/us/src/engine/behavior_script.o
 .mdebug        0x0000000000000000    0x1c348 build/us/src/engine/behavior_script.o
 .text          0x0000000000000000        0x0 build/us/data/trig_tables.o
 .bss           0x0000000000000000        0x0 build/us/data/trig_tables.o
 .reginfo       0x0000000000000000       0x18 build/us/data/trig_tables.o
 .MIPS.abiflags
                0x0000000000000000       0x18 build/us/data/trig_tables.o
 .pdr           0x0000000000000000        0x0 build/us/data/trig_tables.o
 .gnu.attributes
                0x0000000000000000       0x10 build/us/data/trig_tables.o
 .text          0x0000000000000000        0x0 build/us/data/framebuffers.o
 .data          0x0000000000000000        0x0 build/us/data/framebuffers.o
 .reginfo       0x0000000000000000       0x18 build/us/data/framebuffers.o
 .MIPS.abiflags
                0x0000000000000000       0x18 build/us/data/framebuffers.o
 .pdr           0x0000000000000000        0x0 build/us/data/framebuffers.o
 .gnu.attributes
                0x0000000000000000       0x10 build/us/data/framebuffers.o
 .text          0x0000000000000000        0x0 build/us/levels/entry.o
 .data          0x0000000000000000        0x0 build/us/levels/entry.o
 .bss           0x0000000000000000        0x0 build/us/levels/entry.o
 .reginfo       0x0000000000000000       0x18 build/us/levels/entry.o
 .MIPS.abiflags
                0x0000000000000000       0x18 build/us/levels/entry.o
 .pdr           0x0000000000000000        0x0 build/us/levels/entry.o
 .gnu.attributes
                0x0000000000000000       0x10 build/us/levels/entry.o
 .text          0x0000000000000000        0x0 build/us/mio0/segment2.mio0.o
 .bss           0x0000000000000000        0x0 build/us/mio0/segment2.mio0.o
 .reginfo       0x0000000000000000       0x18 build/us/mio0/segment2.mio0.o
 .MIPS.abiflags
                0x0000000000000000       0x18 build/us/mio0/segment2.mio0.o
 .pdr           0x0000000000000000        0x0 build/us/mio0/segment2.mio0.o
 .gnu.attributes
                0x0000000000000000       0x10 build/us/mio0/segment2.mio0.o
 .text          0x0000000000000000        0x0 build/us/mio0/group0.mio0.o
 .bss           0x0000000000000000        0x0 build/us/mio0/group0.mio0.o
 .reginfo       0x0000000000000000       0x18 build/us/mio0/group0.mio0.o
 .MIPS.abiflags
                0x0000000000000000       0x18 build/us/mio0/group0.mio0.o
 .pdr           0x0000000000000000        0x0 build/us/mio0/group0.mio0.o
 .gnu.attributes
                0x0000000000000000       0x10 build/us/mio0/group0.mio0.o
 .text          0x0000000000000000        0x0 build/us/actors/group0_geo.o
 .data          0x0000000000000000        0x0 build/us/actors/group0_geo.o
 .bss           0x0000000000000000        0x0 build/us/actors/group0_geo.o
 .reginfo       0x0000000000000000       0x18 build/us/actors/group0_geo.o
 .MIPS.abiflags
                0x0000000000000000       0x18 build/us/actors/group0_geo.o
 .pdr           0x0000000000000000        0x0 build/us/actors/group0_geo.o
 .gnu.attributes
                0x0000000000000000       0x10 build/us/actors/group0_geo.o
 .text          0x0000000000000000        0x0 build/us/mio0/group1.mio0.o
 .bss           0x0000000000000000        0x0 build/us/mio0/group1.mio0.o
 .reginfo       0x0000000000000000       0x18 build/us/mio0/group1.mio0.o
 .MIPS.abiflags
                0x0000000000000000       0x18 build/us/mio0/group1.mio0.o
 .pdr           0x0000000000000000        0x0 build/us/mio0/group1.mio0.o
 .gnu.attributes
                0x0000000000000000       0x10 build/us/mio0/group1.mio0.o
 .text          0x0000000000000000        0x0 build/us/actors/group1_geo.o
 .data          0x0000000000000000        0x0 build/us/actors/group1_geo.o
 .bss           0x0000000000000000        0x0 build/us/actors/group1_geo.o
 .reginfo       0x0000000000000000       0x18 build/us/actors/group1_geo.o
 .MIPS.abiflags
                0x0000000000000000       0x18 build/us/actors/group1_geo.o
 .pdr           0x0000000000000000        0x0 build/us/actors/group1_geo.o
 .gnu.attributes
                0x0000000000000000       0x10 build/us/actors/group1_geo.o
 .text          0x0000000000000000        0x0 build/us/mio0/group2.mio0.o
 .bss           0x0000000000000000        0x0 build/us/mio0/group2.mio0.o
 .reginfo       0x0000000000000000       0x18 build/us/mio0/group2.mio0.o
 .MIPS.abiflags
                0x0000000000000000       0x18 build/us/mio0/group2.mio0.o
 .pdr           0x0000000000000000        0x0 build/us/mio0/group2.mio0.o
 .gnu.attributes
                0x0000000000000000       0x10 build/us/mio0/group2.mio0.o
 .text          0x0000000000000000        0x0 build/us/actors/group2_geo.o
 .data          0x0000000000000000        0x0 build/us/actors/group2_geo.o
 .bss           0x0000000000000000        0x0 build/us/actors/group2_geo.o
 .reginfo       0x0000000000000000       0x18 build/us/actors/group2_geo.o
 .MIPS.abiflags
                0x0000000000000000       0x18 build/us/actors/group2_geo.o
 .pdr           0x0000000000000000        0x0 build/us/actors/group2_geo.o
 .gnu.attributes
                0x0000000000000000       0x10 build/us/actors/group2_geo.o
 .text          0x0000000000000000        0x0 build/us/mio0/group3.mio0.o
 .bss           0x0000000000000000        0x0 build/us/mio0/group3.mio0.o
 .reginfo       0x0000000000000000       0x18 build/us/mio0/group3.mio0.o
 .MIPS.abiflags
                0x0000000000000000       0x18 build/us/mio0/group3.mio0.o
 .pdr           0x0000000000000000        0x0 build/us/mio0/group3.mio0.o
 .gnu.attributes
                0x0000000000000000       0x10 build/us/mio0/group3.mio0.o
 .text          0x0000000000000000        0x0 build/us/actors/group3_geo.o
 .data          0x0000000000000000        0x0 build/us/actors/group3_geo.o
 .bss           0x0000000000000000        0x0 build/us/actors/group3_geo.o
 .reginfo       0x0000000000000000       0x18 build/us/actors/group3_geo.o
 .MIPS.abiflags
                0x0000000000000000       0x18 build/us/actors/group3_geo.o
 .pdr           0x0000000000000000        0x0 build/us/actors/group3_geo.o
 .gnu.attributes
                0x0000000000000000       0x10 build/us/actors/group3_geo.o
 .text          0x0000000000000000        0x0 build/us/mio0/group4.mio0.o
 .bss           0x0000000000000000        0x0 build/us/mio0/group4.mio0.o
 .reginfo       0x0000000000000000       0x18 build/us/mio0/group4.mio0.o
 .MIPS.abiflags
                0x0000000000000000       0x18 build/us/mio0/group4.mio0.o
 .pdr           0x0000000000000000        0x0 build/us/mio0/group4.mio0.o
 .gnu.attributes
                0x0000000000000000       0x10 build/us/mio0/group4.mio0.o
 .text          0x0000000000000000        0x0 build/us/actors/group4_geo.o
 .data          0x0000000000000000        0x0 build/us/actors/group4_geo.o
 .bss           0x0000000000000000        0x0 build/us/actors/group4_geo.o
 .reginfo       0x0000000000000000       0x18 build/us/actors/group4_geo.o
 .MIPS.abiflags
                0x0000000000000000       0x18 build/us/actors/group4_geo.o
 .pdr           0x0000000000000000        0x0 build/us/actors/group4_geo.o
 .gnu.attributes
                0x0000000000000000       0x10 build/us/actors/group4_geo.o
 .text          0x0000000000000000        0x0 build/us/mio0/group5.mio0.o
 .bss           0x0000000000000000        0x0 build/us/mio0/group5.mio0.o
 .reginfo       0x0000000000000000       0x18 build/us/mio0/group5.mio0.o
 .MIPS.abiflags
                0x0000000000000000       0x18 build/us/mio0/group5.mio0.o
 .pdr           0x0000000000000000        0x0 build/us/mio0/group5.mio0.o
 .gnu.attributes
                0x0000000000000000       0x10 build/us/mio0/group5.mio0.o
 .text          0x0000000000000000        0x0 build/us/actors/group5_geo.o
 .data          0x0000000000000000        0x0 build/us/actors/group5_geo.o
 .bss           0x0000000000000000        0x0 build/us/actors/group5_geo.o
 .reginfo       0x0000000000000000       0x18 build/us/actors/group5_geo.o
 .MIPS.abiflags
                0x0000000000000000       0x18 build/us/actors/group5_geo.o
 .pdr           0x0000000000000000        0x0 build/us/actors/group5_geo.o
 .gnu.attributes
                0x0000000000000000       0x10 build/us/actors/group5_geo.o
 .text          0x0000000000000000        0x0 build/us/mio0/group6.mio0.o
 .bss           0x0000000000000000        0x0 build/us/mio0/group6.mio0.o
 .reginfo       0x0000000000000000       0x18 build/us/mio0/group6.mio0.o
 .MIPS.abiflags
                0x0000000000000000       0x18 build/us/mio0/group6.mio0.o
 .pdr           0x0000000000000000        0x0 build/us/mio0/group6.mio0.o
 .gnu.attributes
                0x0000000000000000       0x10 build/us/mio0/group6.mio0.o
 .text          0x0000000000000000        0x0 build/us/actors/group6_geo.o
 .data          0x0000000000000000        0x0 build/us/actors/group6_geo.o
 .bss           0x0000000000000000        0x0 build/us/actors/group6_geo.o
 .reginfo       0x0000000000000000       0x18 build/us/actors/group6_geo.o
 .MIPS.abiflags
                0x0000000000000000       0x18 build/us/actors/group6_geo.o
 .pdr           0x0000000000000000        0x0 build/us/actors/group6_geo.o
 .gnu.attributes
                0x0000000000000000       0x10 build/us/actors/group6_geo.o
 .text          0x0000000000000000        0x0 build/us/mio0/group7.mio0.o
 .bss           0x0000000000000000        0x0 build/us/mio0/group7.mio0.o
 .reginfo       0x0000000000000000       0x18 build/us/mio0/group7.mio0.o
 .MIPS.abiflags
                0x0000000000000000       0x18 build/us/mio0/group7.mio0.o
 .pdr           0x0000000000000000        0x0 build/us/mio0/group7.mio0.o
 .gnu.attributes
                0x0000000000000000       0x10 build/us/mio0/group7.mio0.o
 .text          0x0000000000000000        0x0 build/us/actors/group7_geo.o
 .data          0x0000000000000000        0x0 build/us/actors/group7_geo.o
 .bss           0x0000000000000000        0x0 build/us/actors/group7_geo.o
 .reginfo       0x0000000000000000       0x18 build/us/actors/group7_geo.o
 .MIPS.abiflags
                0x0000000000000000       0x18 build/us/actors/group7_geo.o
 .pdr           0x0000000000000000        0x0 build/us/actors/group7_geo.o
 .gnu.attributes
                0x0000000000000000       0x10 build/us/actors/group7_geo.o
 .text          0x0000000000000000        0x0 build/us/mio0/group8.mio0.o
 .bss           0x0000000000000000        0x0 build/us/mio0/group8.mio0.o
 .reginfo       0x0000000000000000       0x18 build/us/mio0/group8.mio0.o
 .MIPS.abiflags
                0x0000000000000000       0x18 build/us/mio0/group8.mio0.o
 .pdr           0x0000000000000000        0x0 build/us/mio0/group8.mio0.o
 .gnu.attributes
                0x0000000000000000       0x10 build/us/mio0/group8.mio0.o
 .text          0x0000000000000000        0x0 build/us/actors/group8_geo.o
 .data          0x0000000000000000        0x0 build/us/actors/group8_geo.o
 .bss           0x0000000000000000        0x0 build/us/actors/group8_geo.o
 .reginfo       0x0000000000000000       0x18 build/us/actors/group8_geo.o
 .MIPS.abiflags
                0x0000000000000000       0x18 build/us/actors/group8_geo.o
 .pdr           0x0000000000000000        0x0 build/us/actors/group8_geo.o
 .gnu.attributes
                0x0000000000000000       0x10 build/us/actors/group8_geo.o
 .text          0x0000000000000000        0x0 build/us/mio0/group9.mio0.o
 .bss           0x0000000000000000        0x0 build/us/mio0/group9.mio0.o
 .reginfo       0x0000000000000000       0x18 build/us/mio0/group9.mio0.o
 .MIPS.abiflags
                0x0000000000000000       0x18 build/us/mio0/group9.mio0.o
 .pdr           0x0000000000000000        0x0 build/us/mio0/group9.mio0.o
 .gnu.attributes
                0x0000000000000000       0x10 build/us/mio0/group9.mio0.o
 .text          0x0000000000000000        0x0 build/us/actors/group9_geo.o
 .data          0x0000000000000000        0x0 build/us/actors/group9_geo.o
 .bss           0x0000000000000000        0x0 build/us/actors/group9_geo.o
 .reginfo       0x0000000000000000       0x18 build/us/actors/group9_geo.o
 .MIPS.abiflags
                0x0000000000000000       0x18 build/us/actors/group9_geo.o
 .pdr           0x0000000000000000        0x0 build/us/actors/group9_geo.o
 .gnu.attributes
                0x0000000000000000       0x10 build/us/actors/group9_geo.o
 .text          0x0000000000000000        0x0 build/us/mio0/group10.mio0.o
 .bss           0x0000000000000000        0x0 build/us/mio0/group10.mio0.o
 .reginfo       0x0000000000000000       0x18 build/us/mio0/group10.mio0.o
 .MIPS.abiflags
                0x0000000000000000       0x18 build/us/mio0/group10.mio0.o
 .pdr           0x0000000000000000        0x0 build/us/mio0/group10.mio0.o
 .gnu.attributes
                0x0000000000000000       0x10 build/us/mio0/group10.mio0.o
 .text          0x0000000000000000        0x0 build/us/actors/group10_geo.o
 .data          0x0000000000000000        0x0 build/us/actors/group10_geo.o
 .bss           0x0000000000000000        0x0 build/us/actors/group10_geo.o
 .reginfo       0x0000000000000000       0x18 build/us/actors/group10_geo.o
 .MIPS.abiflags
                0x0000000000000000       0x18 build/us/actors/group10_geo.o
 .pdr           0x0000000000000000        0x0 build/us/actors/group10_geo.o
 .gnu.attributes
                0x0000000000000000       0x10 build/us/actors/group10_geo.o
 .text          0x0000000000000000        0x0 build/us/mio0/group11.mio0.o
 .bss           0x0000000000000000        0x0 build/us/mio0/group11.mio0.o
 .reginfo       0x0000000000000000       0x18 build/us/mio0/group11.mio0.o
 .MIPS.abiflags
                0x0000000000000000       0x18 build/us/mio0/group11.mio0.o
 .pdr           0x0000000000000000        0x0 build/us/mio0/group11.mio0.o
 .gnu.attributes
                0x0000000000000000       0x10 build/us/mio0/group11.mio0.o
 .text          0x0000000000000000        0x0 build/us/actors/group11_geo.o
 .data          0x0000000000000000        0x0 build/us/actors/group11_geo.o
 .bss           0x0000000000000000        0x0 build/us/actors/group11_geo.o
 .reginfo       0x0000000000000000       0x18 build/us/actors/group11_geo.o
 .MIPS.abiflags
                0x0000000000000000       0x18 build/us/actors/group11_geo.o
 .pdr           0x0000000000000000        0x0 build/us/actors/group11_geo.o
 .gnu.attributes
                0x0000000000000000       0x10 build/us/actors/group11_geo.o
 .text          0x0000000000000000        0x0 build/us/mio0/group12.mio0.o
 .bss           0x0000000000000000        0x0 build/us/mio0/group12.mio0.o
 .reginfo       0x0000000000000000       0x18 build/us/mio0/group12.mio0.o
 .MIPS.abiflags
                0x0000000000000000       0x18 build/us/mio0/group12.mio0.o
 .pdr           0x0000000000000000        0x0 build/us/mio0/group12.mio0.o
 .gnu.attributes
                0x0000000000000000       0x10 build/us/mio0/group12.mio0.o
 .text          0x0000000000000000        0x0 build/us/actors/group12_geo.o
 .data          0x0000000000000000        0x0 build/us/actors/group12_geo.o
 .bss           0x0000000000000000        0x0 build/us/actors/group12_geo.o
 .reginfo       0x0000000000000000       0x18 build/us/actors/group12_geo.o
 .MIPS.abiflags
                0x0000000000000000       0x18 build/us/actors/group12_geo.o
 .pdr           0x0000000000000000        0x0 build/us/actors/group12_geo.o
 .gnu.attributes
                0x0000000000000000       0x10 build/us/actors/group12_geo.o
 .text          0x0000000000000000        0x0 build/us/mio0/group13.mio0.o
 .bss           0x0000000000000000        0x0 build/us/mio0/group13.mio0.o
 .reginfo       0x0000000000000000       0x18 build/us/mio0/group13.mio0.o
 .MIPS.abiflags
                0x0000000000000000       0x18 build/us/mio0/group13.mio0.o
 .pdr           0x0000000000000000        0x0 build/us/mio0/group13.mio0.o
 .gnu.attributes
                0x0000000000000000       0x10 build/us/mio0/group13.mio0.o
 .text          0x0000000000000000        0x0 build/us/actors/group13_geo.o
 .data          0x0000000000000000        0x0 build/us/actors/group13_geo.o
 .bss           0x0000000000000000        0x0 build/us/actors/group13_geo.o
 .reginfo       0x0000000000000000       0x18 build/us/actors/group13_geo.o
 .MIPS.abiflags
                0x0000000000000000       0x18 build/us/actors/group13_geo.o
 .pdr           0x0000000000000000        0x0 build/us/actors/group13_geo.o
 .gnu.attributes
                0x0000000000000000       0x10 build/us/actors/group13_geo.o
 .text          0x0000000000000000        0x0 build/us/mio0/group14.mio0.o
 .bss           0x0000000000000000        0x0 build/us/mio0/group14.mio0.o
 .reginfo       0x0000000000000000       0x18 build/us/mio0/group14.mio0.o
 .MIPS.abiflags
                0x0000000000000000       0x18 build/us/mio0/group14.mio0.o
 .pdr           0x0000000000000000        0x0 build/us/mio0/group14.mio0.o
 .gnu.attributes
                0x0000000000000000       0x10 build/us/mio0/group14.mio0.o
 .text          0x0000000000000000        0x0 build/us/actors/group14_geo.o
 .data          0x0000000000000000        0x0 build/us/actors/group14_geo.o
 .bss           0x0000000000000000        0x0 build/us/actors/group14_geo.o
 .reginfo       0x0000000000000000       0x18 build/us/actors/group14_geo.o
 .MIPS.abiflags
                0x0000000000000000       0x18 build/us/actors/group14_geo.o
 .pdr           0x0000000000000000        0x0 build/us/actors/group14_geo.o
 .gnu.attributes
                0x0000000000000000       0x10 build/us/actors/group14_geo.o
 .text          0x0000000000000000        0x0 build/us/mio0/group15.mio0.o
 .bss           0x0000000000000000        0x0 build/us/mio0/group15.mio0.o
 .reginfo       0x0000000000000000       0x18 build/us/mio0/group15.mio0.o
 .MIPS.abiflags
                0x0000000000000000       0x18 build/us/mio0/group15.mio0.o
 .pdr           0x0000000000000000        0x0 build/us/mio0/group15.mio0.o
 .gnu.attributes
                0x0000000000000000       0x10 build/us/mio0/group15.mio0.o
 .text          0x0000000000000000        0x0 build/us/actors/group15_geo.o
 .data          0x0000000000000000        0x0 build/us/actors/group15_geo.o
 .bss           0x0000000000000000        0x0 build/us/actors/group15_geo.o
 .reginfo       0x0000000000000000       0x18 build/us/actors/group15_geo.o
 .MIPS.abiflags
                0x0000000000000000       0x18 build/us/actors/group15_geo.o
 .pdr           0x0000000000000000        0x0 build/us/actors/group15_geo.o
 .gnu.attributes
                0x0000000000000000       0x10 build/us/actors/group15_geo.o
 .text          0x0000000000000000        0x0 build/us/mio0/group16.mio0.o
 .bss           0x0000000000000000        0x0 build/us/mio0/group16.mio0.o
 .reginfo       0x0000000000000000       0x18 build/us/mio0/group16.mio0.o
 .MIPS.abiflags
                0x0000000000000000       0x18 build/us/mio0/group16.mio0.o
 .pdr           0x0000000000000000        0x0 build/us/mio0/group16.mio0.o
 .gnu.attributes
                0x0000000000000000       0x10 build/us/mio0/group16.mio0.o
 .text          0x0000000000000000        0x0 build/us/actors/group16_geo.o
 .data          0x0000000000000000        0x0 build/us/actors/group16_geo.o
 .bss           0x0000000000000000        0x0 build/us/actors/group16_geo.o
 .reginfo       0x0000000000000000       0x18 build/us/actors/group16_geo.o
 .MIPS.abiflags
                0x0000000000000000       0x18 build/us/actors/group16_geo.o
 .pdr           0x0000000000000000        0x0 build/us/actors/group16_geo.o
 .gnu.attributes
                0x0000000000000000       0x10 build/us/actors/group16_geo.o
 .text          0x0000000000000000        0x0 build/us/mio0/group17.mio0.o
 .bss           0x0000000000000000        0x0 build/us/mio0/group17.mio0.o
 .reginfo       0x0000000000000000       0x18 build/us/mio0/group17.mio0.o
 .MIPS.abiflags
                0x0000000000000000       0x18 build/us/mio0/group17.mio0.o
 .pdr           0x0000000000000000        0x0 build/us/mio0/group17.mio0.o
 .gnu.attributes
                0x0000000000000000       0x10 build/us/mio0/group17.mio0.o
 .text          0x0000000000000000        0x0 build/us/actors/group17_geo.o
 .data          0x0000000000000000        0x0 build/us/actors/group17_geo.o
 .bss           0x0000000000000000        0x0 build/us/actors/group17_geo.o
 .reginfo       0x0000000000000000       0x18 build/us/actors/group17_geo.o
 .MIPS.abiflags
                0x0000000000000000       0x18 build/us/actors/group17_geo.o
 .pdr           0x0000000000000000        0x0 build/us/actors/group17_geo.o
 .gnu.attributes
                0x0000000000000000       0x10 build/us/actors/group17_geo.o
 .text          0x0000000000000000        0x0 build/us/mio0/common0.mio0.o
 .bss           0x0000000000000000        0x0 build/us/mio0/common0.mio0.o
 .reginfo       0x0000000000000000       0x18 build/us/mio0/common0.mio0.o
 .MIPS.abiflags
                0x0000000000000000       0x18 build/us/mio0/common0.mio0.o
 .pdr           0x0000000000000000        0x0 build/us/mio0/common0.mio0.o
 .gnu.attributes
                0x0000000000000000       0x10 build/us/mio0/common0.mio0.o
 .text          0x0000000000000000        0x0 build/us/actors/common0_geo.o
 .data          0x0000000000000000        0x0 build/us/actors/common0_geo.o
 .bss           0x0000000000000000        0x0 build/us/actors/common0_geo.o
 .reginfo       0x0000000000000000       0x18 build/us/actors/common0_geo.o
 .MIPS.abiflags
                0x0000000000000000       0x18 build/us/actors/common0_geo.o
 .pdr           0x0000000000000000        0x0 build/us/actors/common0_geo.o
 .gnu.attributes
                0x0000000000000000       0x10 build/us/actors/common0_geo.o
 .text          0x0000000000000000        0x0 build/us/mio0/common1.mio0.o
 .bss           0x0000000000000000        0x0 build/us/mio0/common1.mio0.o
 .reginfo       0x0000000000000000       0x18 build/us/mio0/common1.mio0.o
 .MIPS.abiflags
                0x0000000000000000       0x18 build/us/mio0/common1.mio0.o
 .pdr           0x0000000000000000        0x0 build/us/mio0/common1.mio0.o
 .gnu.attributes
                0x0000000000000000       0x10 build/us/mio0/common1.mio0.o
 .text          0x0000000000000000        0x0 build/us/actors/common1_geo.o
 .data          0x0000000000000000        0x0 build/us/actors/common1_geo.o
 .bss           0x0000000000000000        0x0 build/us/actors/common1_geo.o
 .reginfo       0x0000000000000000       0x18 build/us/actors/common1_geo.o
 .MIPS.abiflags
                0x0000000000000000       0x18 build/us/actors/common1_geo.o
 .pdr           0x0000000000000000        0x0 build/us/actors/common1_geo.o
 .gnu.attributes
                0x0000000000000000       0x10 build/us/actors/common1_geo.o
 .text          0x0000000000000000        0x0 build/us/data/behavior_data.o
 .data          0x0000000000000000        0x0 build/us/data/behavior_data.o
 .bss           0x0000000000000000        0x0 build/us/data/behavior_data.o
 .reginfo       0x0000000000000000       0x18 build/us/data/behavior_data.o
 .MIPS.abiflags
                0x0000000000000000       0x18 build/us/data/behavior_data.o
 .pdr           0x0000000000000000        0x0 build/us/data/behavior_data.o
 .gnu.attributes
                0x0000000000000000       0x10 build/us/data/behavior_data.o
 .options       0x0000000000000000       0x20 build/us/src/game/level_select_menu.o
 .reginfo       0x0000000000000000       0x18 build/us/src/game/level_select_menu.o
 .gptab.data    0x0000000000000000       0x20 build/us/src/game/level_select_menu.o
 .mdebug        0x0000000000000000     0xf3fc build/us/src/game/level_select_menu.o
 .options       0x0000000000000000       0x20 build/us/src/game/intro_geo.o
 .reginfo       0x0000000000000000       0x18 build/us/src/game/intro_geo.o
 .gptab.data    0x0000000000000000       0x38 build/us/src/game/intro_geo.o
 .gptab.bss     0x0000000000000000       0x20 build/us/src/game/intro_geo.o
 .mdebug        0x0000000000000000     0xeb30 build/us/src/game/intro_geo.o
 .options       0x0000000000000000       0x20 build/us/src/game/file_select.o
 .reginfo       0x0000000000000000       0x18 build/us/src/game/file_select.o
 .gptab.data    0x0000000000000000       0xb0 build/us/src/game/file_select.o
 .gptab.bss     0x0000000000000000       0x20 build/us/src/game/file_select.o
 .mdebug        0x0000000000000000    0x1f550 build/us/src/game/file_select.o
 .options       0x0000000000000000       0x20 build/us/src/game/star_select.o
 .reginfo       0x0000000000000000       0x18 build/us/src/game/star_select.o
 .gptab.data    0x0000000000000000       0x30 build/us/src/game/star_select.o
 .gptab.bss     0x0000000000000000       0x20 build/us/src/game/star_select.o
 .mdebug        0x0000000000000000    0x116c0 build/us/src/game/star_select.o
 .options       0x0000000000000000       0x20 build/us/src/goddard/gd_main.o
 .reginfo       0x0000000000000000       0x18 build/us/src/goddard/gd_main.o
 .gptab.data    0x0000000000000000       0x18 build/us/src/goddard/gd_main.o
 .gptab.bss     0x0000000000000000       0x18 build/us/src/goddard/gd_main.o
 .mdebug        0x0000000000000000    0x107ac build/us/src/goddard/gd_main.o
 .options       0x0000000000000000       0x20 build/us/src/goddard/gd_memory.o
 .reginfo       0x0000000000000000       0x18 build/us/src/goddard/gd_memory.o
 .gptab.bss     0x0000000000000000       0x18 build/us/src/goddard/gd_memory.o
 .mdebug        0x0000000000000000    0x10080 build/us/src/goddard/gd_memory.o
 .options       0x0000000000000000       0x20 build/us/src/goddard/mhead_sfx.o
 .reginfo       0x0000000000000000       0x18 build/us/src/goddard/mhead_sfx.o
 .gptab.bss     0x0000000000000000       0x18 build/us/src/goddard/mhead_sfx.o
 .mdebug        0x0000000000000000     0xae88 build/us/src/goddard/mhead_sfx.o
 .options       0x0000000000000000       0x20 build/us/src/goddard/draw_objects.o
 .reginfo       0x0000000000000000       0x18 build/us/src/goddard/draw_objects.o
 .gptab.data    0x0000000000000000       0x40 build/us/src/goddard/draw_objects.o
 .gptab.bss     0x0000000000000000       0x48 build/us/src/goddard/draw_objects.o
 .mdebug        0x0000000000000000    0x170e0 build/us/src/goddard/draw_objects.o
 .options       0x0000000000000000       0x20 build/us/src/goddard/mario_head_1.o
 .reginfo       0x0000000000000000       0x18 build/us/src/goddard/mario_head_1.o
 .gptab.data    0x0000000000000000       0x18 build/us/src/goddard/mario_head_1.o
 .gptab.bss     0x0000000000000000       0x38 build/us/src/goddard/mario_head_1.o
 .mdebug        0x0000000000000000    0x171ac build/us/src/goddard/mario_head_1.o
 .options       0x0000000000000000       0x20 build/us/src/goddard/mario_head_2.o
 .reginfo       0x0000000000000000       0x18 build/us/src/goddard/mario_head_2.o
 .gptab.bss     0x0000000000000000       0x20 build/us/src/goddard/mario_head_2.o
 .mdebug        0x0000000000000000    0x10458 build/us/src/goddard/mario_head_2.o
 .options       0x0000000000000000       0x20 build/us/src/goddard/mario_head_3.o
 .reginfo       0x0000000000000000       0x18 build/us/src/goddard/mario_head_3.o
 .gptab.data    0x0000000000000000       0x28 build/us/src/goddard/mario_head_3.o
 .gptab.bss     0x0000000000000000       0x18 build/us/src/goddard/mario_head_3.o
 .mdebug        0x0000000000000000    0x11db8 build/us/src/goddard/mario_head_3.o
 .options       0x0000000000000000       0x20 build/us/src/goddard/dynlist_proc.o
 .reginfo       0x0000000000000000       0x18 build/us/src/goddard/dynlist_proc.o
 .gptab.data    0x0000000000000000       0x20 build/us/src/goddard/dynlist_proc.o
 .gptab.bss     0x0000000000000000       0x38 build/us/src/goddard/dynlist_proc.o
 .mdebug        0x0000000000000000    0x19a48 build/us/src/goddard/dynlist_proc.o
 .options       0x0000000000000000       0x20 build/us/src/goddard/old_obj_fn.o
 .reginfo       0x0000000000000000       0x18 build/us/src/goddard/old_obj_fn.o
 .gptab.bss     0x0000000000000000       0x28 build/us/src/goddard/old_obj_fn.o
 .mdebug        0x0000000000000000    0x11000 build/us/src/goddard/old_obj_fn.o
 .options       0x0000000000000000       0x20 build/us/src/goddard/profiler_utils.o
 .reginfo       0x0000000000000000       0x18 build/us/src/goddard/profiler_utils.o
 .gptab.data    0x0000000000000000       0x28 build/us/src/goddard/profiler_utils.o
 .gptab.bss     0x0000000000000000       0x38 build/us/src/goddard/profiler_utils.o
 .mdebug        0x0000000000000000    0x12cf0 build/us/src/goddard/profiler_utils.o
 .options       0x0000000000000000       0x20 build/us/src/goddard/joint_fns.o
 .reginfo       0x0000000000000000       0x18 build/us/src/goddard/joint_fns.o
 .gptab.data    0x0000000000000000       0x18 build/us/src/goddard/joint_fns.o
 .gptab.bss     0x0000000000000000       0x30 build/us/src/goddard/joint_fns.o
 .mdebug        0x0000000000000000    0x15048 build/us/src/goddard/joint_fns.o
 .options       0x0000000000000000       0x20 build/us/src/goddard/skin_fns.o
 .reginfo       0x0000000000000000       0x18 build/us/src/goddard/skin_fns.o
 .gptab.bss     0x0000000000000000       0x18 build/us/src/goddard/skin_fns.o
 .mdebug        0x0000000000000000    0x1270c build/us/src/goddard/skin_fns.o
 .options       0x0000000000000000       0x20 build/us/src/goddard/matrix_fns.o
 .reginfo       0x0000000000000000       0x18 build/us/src/goddard/matrix_fns.o
 .mdebug        0x0000000000000000    0x13124 build/us/src/goddard/matrix_fns.o
 .options       0x0000000000000000       0x20 build/us/src/goddard/half_6.o
 .reginfo       0x0000000000000000       0x18 build/us/src/goddard/half_6.o
 .gptab.data    0x0000000000000000       0x58 build/us/src/goddard/half_6.o
 .gptab.bss     0x0000000000000000       0x60 build/us/src/goddard/half_6.o
 .mdebug        0x0000000000000000    0x17a00 build/us/src/goddard/half_6.o
 .options       0x0000000000000000       0x20 build/us/src/goddard/mario_head_6.o
 .reginfo       0x0000000000000000       0x18 build/us/src/goddard/mario_head_6.o
 .gptab.data    0x0000000000000000       0x30 build/us/src/goddard/mario_head_6.o
 .gptab.bss     0x0000000000000000       0xa8 build/us/src/goddard/mario_head_6.o
 .mdebug        0x0000000000000000    0x23140 build/us/src/goddard/mario_head_6.o
 .text          0x0000000000000000        0x0 build/us/data/goddard_tex_dl.o
 .data          0x0000000000000000        0x0 build/us/data/goddard_tex_dl.o
 .bss           0x0000000000000000        0x0 build/us/data/goddard_tex_dl.o
 .reginfo       0x0000000000000000       0x18 build/us/data/goddard_tex_dl.o
 .MIPS.abiflags
                0x0000000000000000       0x18 build/us/data/goddard_tex_dl.o
 .pdr           0x0000000000000000        0x0 build/us/data/goddard_tex_dl.o
 .gnu.attributes
                0x0000000000000000       0x10 build/us/data/goddard_tex_dl.o
 .text          0x0000000000000000        0x0 build/us/data/stack.o
 .data          0x0000000000000000        0x0 build/us/data/stack.o
 .bss           0x0000000000000000        0x0 build/us/data/stack.o
 .reginfo       0x0000000000000000       0x18 build/us/data/stack.o
 .MIPS.abiflags
                0x0000000000000000       0x18 build/us/data/stack.o
 .pdr           0x0000000000000000        0x0 build/us/data/stack.o
 .gnu.attributes
                0x0000000000000000       0x10 build/us/data/stack.o
 .text          0x0000000000000000        0x0 build/us/bin/intro/header.o
 .data          0x0000000000000000        0x0 build/us/bin/intro/header.o
 .bss           0x0000000000000000        0x0 build/us/bin/intro/header.o
 .reginfo       0x0000000000000000       0x18 build/us/bin/intro/header.o
 .MIPS.abiflags
                0x0000000000000000       0x18 build/us/bin/intro/header.o
 .pdr           0x0000000000000000        0x0 build/us/bin/intro/header.o
 .gnu.attributes
                0x0000000000000000       0x10 build/us/bin/intro/header.o
 .text          0x0000000000000000        0x0 build/us/mio0/debug_level_select.mio0.o
 .bss           0x0000000000000000        0x0 build/us/mio0/debug_level_select.mio0.o
 .reginfo       0x0000000000000000       0x18 build/us/mio0/debug_level_select.mio0.o
 .MIPS.abiflags
                0x0000000000000000       0x18 build/us/mio0/debug_level_select.mio0.o
 .pdr           0x0000000000000000        0x0 build/us/mio0/debug_level_select.mio0.o
 .gnu.attributes
                0x0000000000000000       0x10 build/us/mio0/debug_level_select.mio0.o
 .text          0x0000000000000000        0x0 build/us/mio0/title_screen_bg.mio0.o
 .bss           0x0000000000000000        0x0 build/us/mio0/title_screen_bg.mio0.o
 .reginfo       0x0000000000000000       0x18 build/us/mio0/title_screen_bg.mio0.o
 .MIPS.abiflags
                0x0000000000000000       0x18 build/us/mio0/title_screen_bg.mio0.o
 .pdr           0x0000000000000000        0x0 build/us/mio0/title_screen_bg.mio0.o
 .gnu.attributes
                0x0000000000000000       0x10 build/us/mio0/title_screen_bg.mio0.o
 .options       0x0000000000000000       0x20 build/us/src/goddard/dynlists/dynlist_test_cube.o
 .reginfo       0x0000000000000000       0x18 build/us/src/goddard/dynlists/dynlist_test_cube.o
 .gptab.data    0x0000000000000000       0x18 build/us/src/goddard/dynlists/dynlist_test_cube.o
 .mdebug        0x0000000000000000     0xf25c build/us/src/goddard/dynlists/dynlist_test_cube.o
 .options       0x0000000000000000       0x20 build/us/src/goddard/dynlists/dynlist_unused.o
 .reginfo       0x0000000000000000       0x18 build/us/src/goddard/dynlists/dynlist_unused.o
 .gptab.data    0x0000000000000000       0x18 build/us/src/goddard/dynlists/dynlist_unused.o
 .mdebug        0x0000000000000000     0xf250 build/us/src/goddard/dynlists/dynlist_unused.o
 .options       0x0000000000000000       0x20 build/us/src/goddard/dynlists/dynlist_mario_face.o
 .reginfo       0x0000000000000000       0x18 build/us/src/goddard/dynlists/dynlist_mario_face.o
 .gptab.data    0x0000000000000000       0x30 build/us/src/goddard/dynlists/dynlist_mario_face.o
 .mdebug        0x0000000000000000     0xf348 build/us/src/goddard/dynlists/dynlist_mario_face.o
 .options       0x0000000000000000       0x20 build/us/src/goddard/dynlists/dynlists_mario_eyes.o
 .reginfo       0x0000000000000000       0x18 build/us/src/goddard/dynlists/dynlists_mario_eyes.o
 .gptab.data    0x0000000000000000       0x30 build/us/src/goddard/dynlists/dynlists_mario_eyes.o
 .mdebug        0x0000000000000000     0xf48c build/us/src/goddard/dynlists/dynlists_mario_eyes.o
 .options       0x0000000000000000       0x20 build/us/src/goddard/dynlists/dynlists_mario_eyebrows_mustache.o
 .reginfo       0x0000000000000000       0x18 build/us/src/goddard/dynlists/dynlists_mario_eyebrows_mustache.o
 .gptab.data    0x0000000000000000       0x40 build/us/src/goddard/dynlists/dynlists_mario_eyebrows_mustache.o
 .mdebug        0x0000000000000000     0xf614 build/us/src/goddard/dynlists/dynlists_mario_eyebrows_mustache.o
 .options       0x0000000000000000       0x20 build/us/src/goddard/dynlists/dynlist_mario_master.o
 .reginfo       0x0000000000000000       0x18 build/us/src/goddard/dynlists/dynlist_mario_master.o
 .gptab.data    0x0000000000000000       0x18 build/us/src/goddard/dynlists/dynlist_mario_master.o
 .mdebug        0x0000000000000000     0xfd04 build/us/src/goddard/dynlists/dynlist_mario_master.o
 .options       0x0000000000000000       0x20 build/us/src/goddard/dynlists/anim_mario_mustache_right.o
 .reginfo       0x0000000000000000       0x18 build/us/src/goddard/dynlists/anim_mario_mustache_right.o
 .gptab.data    0x0000000000000000       0x28 build/us/src/goddard/dynlists/anim_mario_mustache_right.o
 .mdebug        0x0000000000000000     0xf3b0 build/us/src/goddard/dynlists/anim_mario_mustache_right.o
 .options       0x0000000000000000       0x20 build/us/src/goddard/dynlists/anim_mario_mustache_left.o
 .reginfo       0x0000000000000000       0x18 build/us/src/goddard/dynlists/anim_mario_mustache_left.o
 .gptab.data    0x0000000000000000       0x28 build/us/src/goddard/dynlists/anim_mario_mustache_left.o
 .mdebug        0x0000000000000000     0xf3a8 build/us/src/goddard/dynlists/anim_mario_mustache_left.o
 .options       0x0000000000000000       0x20 build/us/src/goddard/dynlists/anim_mario_lips_1.o
 .reginfo       0x0000000000000000       0x18 build/us/src/goddard/dynlists/anim_mario_lips_1.o
 .gptab.data    0x0000000000000000       0x28 build/us/src/goddard/dynlists/anim_mario_lips_1.o
 .mdebug        0x0000000000000000     0xf380 build/us/src/goddard/dynlists/anim_mario_lips_1.o
 .options       0x0000000000000000       0x20 build/us/src/goddard/dynlists/anim_mario_lips_2.o
 .reginfo       0x0000000000000000       0x18 build/us/src/goddard/dynlists/anim_mario_lips_2.o
 .gptab.data    0x0000000000000000       0x28 build/us/src/goddard/dynlists/anim_mario_lips_2.o
 .mdebug        0x0000000000000000     0xf380 build/us/src/goddard/dynlists/anim_mario_lips_2.o
 .options       0x0000000000000000       0x20 build/us/src/goddard/dynlists/anim_mario_eyebrows_1.o
 .reginfo       0x0000000000000000       0x18 build/us/src/goddard/dynlists/anim_mario_eyebrows_1.o
 .gptab.data    0x0000000000000000       0x28 build/us/src/goddard/dynlists/anim_mario_eyebrows_1.o
 .mdebug        0x0000000000000000     0xf398 build/us/src/goddard/dynlists/anim_mario_eyebrows_1.o
 .options       0x0000000000000000       0x20 build/us/src/goddard/dynlists/anim_group_1.o
 .reginfo       0x0000000000000000       0x18 build/us/src/goddard/dynlists/anim_group_1.o
 .gptab.data    0x0000000000000000       0x28 build/us/src/goddard/dynlists/anim_group_1.o
 .mdebug        0x0000000000000000     0xf9d0 build/us/src/goddard/dynlists/anim_group_1.o
 .options       0x0000000000000000       0x20 build/us/src/goddard/dynlists/anim_group_2.o
 .reginfo       0x0000000000000000       0x18 build/us/src/goddard/dynlists/anim_group_2.o
 .gptab.data    0x0000000000000000       0x38 build/us/src/goddard/dynlists/anim_group_2.o
 .mdebug        0x0000000000000000     0xf94c build/us/src/goddard/dynlists/anim_group_2.o
 .text          0x0000000000000000        0x0 build/us/bin/menu/header.o
 .data          0x0000000000000000        0x0 build/us/bin/menu/header.o
 .bss           0x0000000000000000        0x0 build/us/bin/menu/header.o
 .reginfo       0x0000000000000000       0x18 build/us/bin/menu/header.o
 .MIPS.abiflags
                0x0000000000000000       0x18 build/us/bin/menu/header.o
 .pdr           0x0000000000000000        0x0 build/us/bin/menu/header.o
 .gnu.attributes
                0x0000000000000000       0x10 build/us/bin/menu/header.o
 .text          0x0000000000000000        0x0 build/us/levels/scripts.o
 .data          0x0000000000000000        0x0 build/us/levels/scripts.o
 .bss           0x0000000000000000        0x0 build/us/levels/scripts.o
 .reginfo       0x0000000000000000       0x18 build/us/levels/scripts.o
 .MIPS.abiflags
                0x0000000000000000       0x18 build/us/levels/scripts.o
 .pdr           0x0000000000000000        0x0 build/us/levels/scripts.o
 .gnu.attributes
                0x0000000000000000       0x10 build/us/levels/scripts.o
 .text          0x0000000000000000        0x0 build/us/mio0/water_skybox.mio0.o
 .bss           0x0000000000000000        0x0 build/us/mio0/water_skybox.mio0.o
 .reginfo       0x0000000000000000       0x18 build/us/mio0/water_skybox.mio0.o
 .MIPS.abiflags
                0x0000000000000000       0x18 build/us/mio0/water_skybox.mio0.o
 .pdr           0x0000000000000000        0x0 build/us/mio0/water_skybox.mio0.o
 .gnu.attributes
                0x0000000000000000       0x10 build/us/mio0/water_skybox.mio0.o
 .text          0x0000000000000000        0x0 build/us/mio0/ccm_skybox.mio0.o
 .bss           0x0000000000000000        0x0 build/us/mio0/ccm_skybox.mio0.o
 .reginfo       0x0000000000000000       0x18 build/us/mio0/ccm_skybox.mio0.o
 .MIPS.abiflags
                0x0000000000000000       0x18 build/us/mio0/ccm_skybox.mio0.o
 .pdr           0x0000000000000000        0x0 build/us/mio0/ccm_skybox.mio0.o
 .gnu.attributes
                0x0000000000000000       0x10 build/us/mio0/ccm_skybox.mio0.o
 .text          0x0000000000000000        0x0 build/us/mio0/clouds_skybox.mio0.o
 .bss           0x0000000000000000        0x0 build/us/mio0/clouds_skybox.mio0.o
 .reginfo       0x0000000000000000       0x18 build/us/mio0/clouds_skybox.mio0.o
 .MIPS.abiflags
                0x0000000000000000       0x18 build/us/mio0/clouds_skybox.mio0.o
 .pdr           0x0000000000000000        0x0 build/us/mio0/clouds_skybox.mio0.o
 .gnu.attributes
                0x0000000000000000       0x10 build/us/mio0/clouds_skybox.mio0.o
 .text          0x0000000000000000        0x0 build/us/mio0/bitfs_skybox.mio0.o
 .bss           0x0000000000000000        0x0 build/us/mio0/bitfs_skybox.mio0.o
 .reginfo       0x0000000000000000       0x18 build/us/mio0/bitfs_skybox.mio0.o
 .MIPS.abiflags
                0x0000000000000000       0x18 build/us/mio0/bitfs_skybox.mio0.o
 .pdr           0x0000000000000000        0x0 build/us/mio0/bitfs_skybox.mio0.o
 .gnu.attributes
                0x0000000000000000       0x10 build/us/mio0/bitfs_skybox.mio0.o
 .text          0x0000000000000000        0x0 build/us/mio0/wdw_skybox.mio0.o
 .bss           0x0000000000000000        0x0 build/us/mio0/wdw_skybox.mio0.o
 .reginfo       0x0000000000000000       0x18 build/us/mio0/wdw_skybox.mio0.o
 .MIPS.abiflags
                0x0000000000000000       0x18 build/us/mio0/wdw_skybox.mio0.o
 .pdr           0x0000000000000000        0x0 build/us/mio0/wdw_skybox.mio0.o
 .gnu.attributes
                0x0000000000000000       0x10 build/us/mio0/wdw_skybox.mio0.o
 .text          0x0000000000000000        0x0 build/us/mio0/cloud_floor_skybox.mio0.o
 .bss           0x0000000000000000        0x0 build/us/mio0/cloud_floor_skybox.mio0.o
 .reginfo       0x0000000000000000       0x18 build/us/mio0/cloud_floor_skybox.mio0.o
 .MIPS.abiflags
                0x0000000000000000       0x18 build/us/mio0/cloud_floor_skybox.mio0.o
 .pdr           0x0000000000000000        0x0 build/us/mio0/cloud_floor_skybox.mio0.o
 .gnu.attributes
                0x0000000000000000       0x10 build/us/mio0/cloud_floor_skybox.mio0.o
 .text          0x0000000000000000        0x0 build/us/mio0/ssl_skybox.mio0.o
 .bss           0x0000000000000000        0x0 build/us/mio0/ssl_skybox.mio0.o
 .reginfo       0x0000000000000000       0x18 build/us/mio0/ssl_skybox.mio0.o
 .MIPS.abiflags
                0x0000000000000000       0x18 build/us/mio0/ssl_skybox.mio0.o
 .pdr           0x0000000000000000        0x0 build/us/mio0/ssl_skybox.mio0.o
 .gnu.attributes
                0x0000000000000000       0x10 build/us/mio0/ssl_skybox.mio0.o
 .text          0x0000000000000000        0x0 build/us/mio0/bbh_skybox.mio0.o
 .bss           0x0000000000000000        0x0 build/us/mio0/bbh_skybox.mio0.o
 .reginfo       0x0000000000000000       0x18 build/us/mio0/bbh_skybox.mio0.o
 .MIPS.abiflags
                0x0000000000000000       0x18 build/us/mio0/bbh_skybox.mio0.o
 .pdr           0x0000000000000000        0x0 build/us/mio0/bbh_skybox.mio0.o
 .gnu.attributes
                0x0000000000000000       0x10 build/us/mio0/bbh_skybox.mio0.o
 .text          0x0000000000000000        0x0 build/us/mio0/bidw_skybox.mio0.o
 .bss           0x0000000000000000        0x0 build/us/mio0/bidw_skybox.mio0.o
 .reginfo       0x0000000000000000       0x18 build/us/mio0/bidw_skybox.mio0.o
 .MIPS.abiflags
                0x0000000000000000       0x18 build/us/mio0/bidw_skybox.mio0.o
 .pdr           0x0000000000000000        0x0 build/us/mio0/bidw_skybox.mio0.o
 .gnu.attributes
                0x0000000000000000       0x10 build/us/mio0/bidw_skybox.mio0.o
 .text          0x0000000000000000        0x0 build/us/mio0/bits_skybox.mio0.o
 .bss           0x0000000000000000        0x0 build/us/mio0/bits_skybox.mio0.o
 .reginfo       0x0000000000000000       0x18 build/us/mio0/bits_skybox.mio0.o
 .MIPS.abiflags
                0x0000000000000000       0x18 build/us/mio0/bits_skybox.mio0.o
 .pdr           0x0000000000000000        0x0 build/us/mio0/bits_skybox.mio0.o
 .gnu.attributes
                0x0000000000000000       0x10 build/us/mio0/bits_skybox.mio0.o
 .text          0x0000000000000000        0x0 build/us/mio0/fire.mio0.o
 .bss           0x0000000000000000        0x0 build/us/mio0/fire.mio0.o
 .reginfo       0x0000000000000000       0x18 build/us/mio0/fire.mio0.o
 .MIPS.abiflags
                0x0000000000000000       0x18 build/us/mio0/fire.mio0.o
 .pdr           0x0000000000000000        0x0 build/us/mio0/fire.mio0.o
 .gnu.attributes
                0x0000000000000000       0x10 build/us/mio0/fire.mio0.o
 .text          0x0000000000000000        0x0 build/us/mio0/spooky.mio0.o
 .bss           0x0000000000000000        0x0 build/us/mio0/spooky.mio0.o
 .reginfo       0x0000000000000000       0x18 build/us/mio0/spooky.mio0.o
 .MIPS.abiflags
                0x0000000000000000       0x18 build/us/mio0/spooky.mio0.o
 .pdr           0x0000000000000000        0x0 build/us/mio0/spooky.mio0.o
 .gnu.attributes
                0x0000000000000000       0x10 build/us/mio0/spooky.mio0.o
 .text          0x0000000000000000        0x0 build/us/mio0/generic.mio0.o
 .bss           0x0000000000000000        0x0 build/us/mio0/generic.mio0.o
 .reginfo       0x0000000000000000       0x18 build/us/mio0/generic.mio0.o
 .MIPS.abiflags
                0x0000000000000000       0x18 build/us/mio0/generic.mio0.o
 .pdr           0x0000000000000000        0x0 build/us/mio0/generic.mio0.o
 .gnu.attributes
                0x0000000000000000       0x10 build/us/mio0/generic.mio0.o
 .text          0x0000000000000000        0x0 build/us/mio0/water.mio0.o
 .bss           0x0000000000000000        0x0 build/us/mio0/water.mio0.o
 .reginfo       0x0000000000000000       0x18 build/us/mio0/water.mio0.o
 .MIPS.abiflags
                0x0000000000000000       0x18 build/us/mio0/water.mio0.o
 .pdr           0x0000000000000000        0x0 build/us/mio0/water.mio0.o
 .gnu.attributes
                0x0000000000000000       0x10 build/us/mio0/water.mio0.o
 .text          0x0000000000000000        0x0 build/us/mio0/sky.mio0.o
 .bss           0x0000000000000000        0x0 build/us/mio0/sky.mio0.o
 .reginfo       0x0000000000000000       0x18 build/us/mio0/sky.mio0.o
 .MIPS.abiflags
                0x0000000000000000       0x18 build/us/mio0/sky.mio0.o
 .pdr           0x0000000000000000        0x0 build/us/mio0/sky.mio0.o
 .gnu.attributes
                0x0000000000000000       0x10 build/us/mio0/sky.mio0.o
 .text          0x0000000000000000        0x0 build/us/mio0/snow.mio0.o
 .bss           0x0000000000000000        0x0 build/us/mio0/snow.mio0.o
 .reginfo       0x0000000000000000       0x18 build/us/mio0/snow.mio0.o
 .MIPS.abiflags
                0x0000000000000000       0x18 build/us/mio0/snow.mio0.o
 .pdr           0x0000000000000000        0x0 build/us/mio0/snow.mio0.o
 .gnu.attributes
                0x0000000000000000       0x10 build/us/mio0/snow.mio0.o
 .text          0x0000000000000000        0x0 build/us/mio0/cave.mio0.o
 .bss           0x0000000000000000        0x0 build/us/mio0/cave.mio0.o
 .reginfo       0x0000000000000000       0x18 build/us/mio0/cave.mio0.o
 .MIPS.abiflags
                0x0000000000000000       0x18 build/us/mio0/cave.mio0.o
 .pdr           0x0000000000000000        0x0 build/us/mio0/cave.mio0.o
 .gnu.attributes
                0x0000000000000000       0x10 build/us/mio0/cave.mio0.o
 .text          0x0000000000000000        0x0 build/us/mio0/machine.mio0.o
 .bss           0x0000000000000000        0x0 build/us/mio0/machine.mio0.o
 .reginfo       0x0000000000000000       0x18 build/us/mio0/machine.mio0.o
 .MIPS.abiflags
                0x0000000000000000       0x18 build/us/mio0/machine.mio0.o
 .pdr           0x0000000000000000        0x0 build/us/mio0/machine.mio0.o
 .gnu.attributes
                0x0000000000000000       0x10 build/us/mio0/machine.mio0.o
 .text          0x0000000000000000        0x0 build/us/mio0/mountain.mio0.o
 .bss           0x0000000000000000        0x0 build/us/mio0/mountain.mio0.o
 .reginfo       0x0000000000000000       0x18 build/us/mio0/mountain.mio0.o
 .MIPS.abiflags
                0x0000000000000000       0x18 build/us/mio0/mountain.mio0.o
 .pdr           0x0000000000000000        0x0 build/us/mio0/mountain.mio0.o
 .gnu.attributes
                0x0000000000000000       0x10 build/us/mio0/mountain.mio0.o
 .text          0x0000000000000000        0x0 build/us/mio0/grass.mio0.o
 .bss           0x0000000000000000        0x0 build/us/mio0/grass.mio0.o
 .reginfo       0x0000000000000000       0x18 build/us/mio0/grass.mio0.o
 .MIPS.abiflags
                0x0000000000000000       0x18 build/us/mio0/grass.mio0.o
 .pdr           0x0000000000000000        0x0 build/us/mio0/grass.mio0.o
 .gnu.attributes
                0x0000000000000000       0x10 build/us/mio0/grass.mio0.o
 .text          0x0000000000000000        0x0 build/us/mio0/outside.mio0.o
 .bss           0x0000000000000000        0x0 build/us/mio0/outside.mio0.o
 .reginfo       0x0000000000000000       0x18 build/us/mio0/outside.mio0.o
 .MIPS.abiflags
                0x0000000000000000       0x18 build/us/mio0/outside.mio0.o
 .pdr           0x0000000000000000        0x0 build/us/mio0/outside.mio0.o
 .gnu.attributes
                0x0000000000000000       0x10 build/us/mio0/outside.mio0.o
 .text          0x0000000000000000        0x0 build/us/mio0/inside.mio0.o
 .bss           0x0000000000000000        0x0 build/us/mio0/inside.mio0.o
 .reginfo       0x0000000000000000       0x18 build/us/mio0/inside.mio0.o
 .MIPS.abiflags
                0x0000000000000000       0x18 build/us/mio0/inside.mio0.o
 .pdr           0x0000000000000000        0x0 build/us/mio0/inside.mio0.o
 .gnu.attributes
                0x0000000000000000       0x10 build/us/mio0/inside.mio0.o
 .text          0x0000000000000000        0x0 build/us/mio0/effect.mio0.o
 .bss           0x0000000000000000        0x0 build/us/mio0/effect.mio0.o
 .reginfo       0x0000000000000000       0x18 build/us/mio0/effect.mio0.o
 .MIPS.abiflags
                0x0000000000000000       0x18 build/us/mio0/effect.mio0.o
 .pdr           0x0000000000000000        0x0 build/us/mio0/effect.mio0.o
 .gnu.attributes
                0x0000000000000000       0x10 build/us/mio0/effect.mio0.o
 .text          0x0000000000000000        0x0 build/us/bin/bbh/header.o
 .data          0x0000000000000000        0x0 build/us/bin/bbh/header.o
 .bss           0x0000000000000000        0x0 build/us/bin/bbh/header.o
 .reginfo       0x0000000000000000       0x18 build/us/bin/bbh/header.o
 .MIPS.abiflags
                0x0000000000000000       0x18 build/us/bin/bbh/header.o
 .pdr           0x0000000000000000        0x0 build/us/bin/bbh/header.o
 .gnu.attributes
                0x0000000000000000       0x10 build/us/bin/bbh/header.o
 .text          0x0000000000000000        0x0 build/us/bin/ccm/header.o
 .data          0x0000000000000000        0x0 build/us/bin/ccm/header.o
 .bss           0x0000000000000000        0x0 build/us/bin/ccm/header.o
 .reginfo       0x0000000000000000       0x18 build/us/bin/ccm/header.o
 .MIPS.abiflags
                0x0000000000000000       0x18 build/us/bin/ccm/header.o
 .pdr           0x0000000000000000        0x0 build/us/bin/ccm/header.o
 .gnu.attributes
                0x0000000000000000       0x10 build/us/bin/ccm/header.o
 .text          0x0000000000000000        0x0 build/us/bin/castle_inside/header.o
 .data          0x0000000000000000        0x0 build/us/bin/castle_inside/header.o
 .bss           0x0000000000000000        0x0 build/us/bin/castle_inside/header.o
 .reginfo       0x0000000000000000       0x18 build/us/bin/castle_inside/header.o
 .MIPS.abiflags
                0x0000000000000000       0x18 build/us/bin/castle_inside/header.o
 .pdr           0x0000000000000000        0x0 build/us/bin/castle_inside/header.o
 .gnu.attributes
                0x0000000000000000       0x10 build/us/bin/castle_inside/header.o
 .text          0x0000000000000000        0x0 build/us/bin/hmc/header.o
 .data          0x0000000000000000        0x0 build/us/bin/hmc/header.o
 .bss           0x0000000000000000        0x0 build/us/bin/hmc/header.o
 .reginfo       0x0000000000000000       0x18 build/us/bin/hmc/header.o
 .MIPS.abiflags
                0x0000000000000000       0x18 build/us/bin/hmc/header.o
 .pdr           0x0000000000000000        0x0 build/us/bin/hmc/header.o
 .gnu.attributes
                0x0000000000000000       0x10 build/us/bin/hmc/header.o
 .text          0x0000000000000000        0x0 build/us/bin/ssl/header.o
 .data          0x0000000000000000        0x0 build/us/bin/ssl/header.o
 .bss           0x0000000000000000        0x0 build/us/bin/ssl/header.o
 .reginfo       0x0000000000000000       0x18 build/us/bin/ssl/header.o
 .MIPS.abiflags
                0x0000000000000000       0x18 build/us/bin/ssl/header.o
 .pdr           0x0000000000000000        0x0 build/us/bin/ssl/header.o
 .gnu.attributes
                0x0000000000000000       0x10 build/us/bin/ssl/header.o
 .text          0x0000000000000000        0x0 build/us/bin/bob/header.o
 .data          0x0000000000000000        0x0 build/us/bin/bob/header.o
 .bss           0x0000000000000000        0x0 build/us/bin/bob/header.o
 .reginfo       0x0000000000000000       0x18 build/us/bin/bob/header.o
 .MIPS.abiflags
                0x0000000000000000       0x18 build/us/bin/bob/header.o
 .pdr           0x0000000000000000        0x0 build/us/bin/bob/header.o
 .gnu.attributes
                0x0000000000000000       0x10 build/us/bin/bob/header.o
 .text          0x0000000000000000        0x0 build/us/bin/sl/header.o
 .data          0x0000000000000000        0x0 build/us/bin/sl/header.o
 .bss           0x0000000000000000        0x0 build/us/bin/sl/header.o
 .reginfo       0x0000000000000000       0x18 build/us/bin/sl/header.o
 .MIPS.abiflags
                0x0000000000000000       0x18 build/us/bin/sl/header.o
 .pdr           0x0000000000000000        0x0 build/us/bin/sl/header.o
 .gnu.attributes
                0x0000000000000000       0x10 build/us/bin/sl/header.o
 .text          0x0000000000000000        0x0 build/us/bin/wdw/header.o
 .data          0x0000000000000000        0x0 build/us/bin/wdw/header.o
 .bss           0x0000000000000000        0x0 build/us/bin/wdw/header.o
 .reginfo       0x0000000000000000       0x18 build/us/bin/wdw/header.o
 .MIPS.abiflags
                0x0000000000000000       0x18 build/us/bin/wdw/header.o
 .pdr           0x0000000000000000        0x0 build/us/bin/wdw/header.o
 .gnu.attributes
                0x0000000000000000       0x10 build/us/bin/wdw/header.o
 .text          0x0000000000000000        0x0 build/us/bin/jrb/header.o
 .data          0x0000000000000000        0x0 build/us/bin/jrb/header.o
 .bss           0x0000000000000000        0x0 build/us/bin/jrb/header.o
 .reginfo       0x0000000000000000       0x18 build/us/bin/jrb/header.o
 .MIPS.abiflags
                0x0000000000000000       0x18 build/us/bin/jrb/header.o
 .pdr           0x0000000000000000        0x0 build/us/bin/jrb/header.o
 .gnu.attributes
                0x0000000000000000       0x10 build/us/bin/jrb/header.o
 .text          0x0000000000000000        0x0 build/us/bin/thi/header.o
 .data          0x0000000000000000        0x0 build/us/bin/thi/header.o
 .bss           0x0000000000000000        0x0 build/us/bin/thi/header.o
 .reginfo       0x0000000000000000       0x18 build/us/bin/thi/header.o
 .MIPS.abiflags
                0x0000000000000000       0x18 build/us/bin/thi/header.o
 .pdr           0x0000000000000000        0x0 build/us/bin/thi/header.o
 .gnu.attributes
                0x0000000000000000       0x10 build/us/bin/thi/header.o
 .text          0x0000000000000000        0x0 build/us/bin/ttc/header.o
 .data          0x0000000000000000        0x0 build/us/bin/ttc/header.o
 .bss           0x0000000000000000        0x0 build/us/bin/ttc/header.o
 .reginfo       0x0000000000000000       0x18 build/us/bin/ttc/header.o
 .MIPS.abiflags
                0x0000000000000000       0x18 build/us/bin/ttc/header.o
 .pdr           0x0000000000000000        0x0 build/us/bin/ttc/header.o
 .gnu.attributes
                0x0000000000000000       0x10 build/us/bin/ttc/header.o
 .text          0x0000000000000000        0x0 build/us/bin/rr/header.o
 .data          0x0000000000000000        0x0 build/us/bin/rr/header.o
 .bss           0x0000000000000000        0x0 build/us/bin/rr/header.o
 .reginfo       0x0000000000000000       0x18 build/us/bin/rr/header.o
 .MIPS.abiflags
                0x0000000000000000       0x18 build/us/bin/rr/header.o
 .pdr           0x0000000000000000        0x0 build/us/bin/rr/header.o
 .gnu.attributes
                0x0000000000000000       0x10 build/us/bin/rr/header.o
 .text          0x0000000000000000        0x0 build/us/bin/castle_grounds/header.o
 .data          0x0000000000000000        0x0 build/us/bin/castle_grounds/header.o
 .bss           0x0000000000000000        0x0 build/us/bin/castle_grounds/header.o
 .reginfo       0x0000000000000000       0x18 build/us/bin/castle_grounds/header.o
 .MIPS.abiflags
                0x0000000000000000       0x18 build/us/bin/castle_grounds/header.o
 .pdr           0x0000000000000000        0x0 build/us/bin/castle_grounds/header.o
 .gnu.attributes
                0x0000000000000000       0x10 build/us/bin/castle_grounds/header.o
 .text          0x0000000000000000        0x0 build/us/bin/bitdw/header.o
 .data          0x0000000000000000        0x0 build/us/bin/bitdw/header.o
 .bss           0x0000000000000000        0x0 build/us/bin/bitdw/header.o
 .reginfo       0x0000000000000000       0x18 build/us/bin/bitdw/header.o
 .MIPS.abiflags
                0x0000000000000000       0x18 build/us/bin/bitdw/header.o
 .pdr           0x0000000000000000        0x0 build/us/bin/bitdw/header.o
 .gnu.attributes
                0x0000000000000000       0x10 build/us/bin/bitdw/header.o
 .text          0x0000000000000000        0x0 build/us/bin/vcutm/header.o
 .data          0x0000000000000000        0x0 build/us/bin/vcutm/header.o
 .bss           0x0000000000000000        0x0 build/us/bin/vcutm/header.o
 .reginfo       0x0000000000000000       0x18 build/us/bin/vcutm/header.o
 .MIPS.abiflags
                0x0000000000000000       0x18 build/us/bin/vcutm/header.o
 .pdr           0x0000000000000000        0x0 build/us/bin/vcutm/header.o
 .gnu.attributes
                0x0000000000000000       0x10 build/us/bin/vcutm/header.o
 .text          0x0000000000000000        0x0 build/us/bin/bitfs/header.o
 .data          0x0000000000000000        0x0 build/us/bin/bitfs/header.o
 .bss           0x0000000000000000        0x0 build/us/bin/bitfs/header.o
 .reginfo       0x0000000000000000       0x18 build/us/bin/bitfs/header.o
 .MIPS.abiflags
                0x0000000000000000       0x18 build/us/bin/bitfs/header.o
 .pdr           0x0000000000000000        0x0 build/us/bin/bitfs/header.o
 .gnu.attributes
                0x0000000000000000       0x10 build/us/bin/bitfs/header.o
 .text          0x0000000000000000        0x0 build/us/bin/sa/header.o
 .data          0x0000000000000000        0x0 build/us/bin/sa/header.o
 .bss           0x0000000000000000        0x0 build/us/bin/sa/header.o
 .reginfo       0x0000000000000000       0x18 build/us/bin/sa/header.o
 .MIPS.abiflags
                0x0000000000000000       0x18 build/us/bin/sa/header.o
 .pdr           0x0000000000000000        0x0 build/us/bin/sa/header.o
 .gnu.attributes
                0x0000000000000000       0x10 build/us/bin/sa/header.o
 .text          0x0000000000000000        0x0 build/us/bin/bits/header.o
 .data          0x0000000000000000        0x0 build/us/bin/bits/header.o
 .bss           0x0000000000000000        0x0 build/us/bin/bits/header.o
 .reginfo       0x0000000000000000       0x18 build/us/bin/bits/header.o
 .MIPS.abiflags
                0x0000000000000000       0x18 build/us/bin/bits/header.o
 .pdr           0x0000000000000000        0x0 build/us/bin/bits/header.o
 .gnu.attributes
                0x0000000000000000       0x10 build/us/bin/bits/header.o
 .text          0x0000000000000000        0x0 build/us/bin/lll/header.o
 .data          0x0000000000000000        0x0 build/us/bin/lll/header.o
 .bss           0x0000000000000000        0x0 build/us/bin/lll/header.o
 .reginfo       0x0000000000000000       0x18 build/us/bin/lll/header.o
 .MIPS.abiflags
                0x0000000000000000       0x18 build/us/bin/lll/header.o
 .pdr           0x0000000000000000        0x0 build/us/bin/lll/header.o
 .gnu.attributes
                0x0000000000000000       0x10 build/us/bin/lll/header.o
 .text          0x0000000000000000        0x0 build/us/bin/ddd/header.o
 .data          0x0000000000000000        0x0 build/us/bin/ddd/header.o
 .bss           0x0000000000000000        0x0 build/us/bin/ddd/header.o
 .reginfo       0x0000000000000000       0x18 build/us/bin/ddd/header.o
 .MIPS.abiflags
                0x0000000000000000       0x18 build/us/bin/ddd/header.o
 .pdr           0x0000000000000000        0x0 build/us/bin/ddd/header.o
 .gnu.attributes
                0x0000000000000000       0x10 build/us/bin/ddd/header.o
 .text          0x0000000000000000        0x0 build/us/bin/wf/header.o
 .data          0x0000000000000000        0x0 build/us/bin/wf/header.o
 .bss           0x0000000000000000        0x0 build/us/bin/wf/header.o
 .reginfo       0x0000000000000000       0x18 build/us/bin/wf/header.o
 .MIPS.abiflags
                0x0000000000000000       0x18 build/us/bin/wf/header.o
 .pdr           0x0000000000000000        0x0 build/us/bin/wf/header.o
 .gnu.attributes
                0x0000000000000000       0x10 build/us/bin/wf/header.o
 .text          0x0000000000000000        0x0 build/us/bin/ending/header.o
 .data          0x0000000000000000        0x0 build/us/bin/ending/header.o
 .bss           0x0000000000000000        0x0 build/us/bin/ending/header.o
 .reginfo       0x0000000000000000       0x18 build/us/bin/ending/header.o
 .MIPS.abiflags
                0x0000000000000000       0x18 build/us/bin/ending/header.o
 .pdr           0x0000000000000000        0x0 build/us/bin/ending/header.o
 .gnu.attributes
                0x0000000000000000       0x10 build/us/bin/ending/header.o
 .text          0x0000000000000000        0x0 build/us/bin/castle_courtyard/header.o
 .data          0x0000000000000000        0x0 build/us/bin/castle_courtyard/header.o
 .bss           0x0000000000000000        0x0 build/us/bin/castle_courtyard/header.o
 .reginfo       0x0000000000000000       0x18 build/us/bin/castle_courtyard/header.o
 .MIPS.abiflags
                0x0000000000000000       0x18 build/us/bin/castle_courtyard/header.o
 .pdr           0x0000000000000000        0x0 build/us/bin/castle_courtyard/header.o
 .gnu.attributes
                0x0000000000000000       0x10 build/us/bin/castle_courtyard/header.o
 .text          0x0000000000000000        0x0 build/us/bin/pss/header.o
 .data          0x0000000000000000        0x0 build/us/bin/pss/header.o
 .bss           0x0000000000000000        0x0 build/us/bin/pss/header.o
 .reginfo       0x0000000000000000       0x18 build/us/bin/pss/header.o
 .MIPS.abiflags
                0x0000000000000000       0x18 build/us/bin/pss/header.o
 .pdr           0x0000000000000000        0x0 build/us/bin/pss/header.o
 .gnu.attributes
                0x0000000000000000       0x10 build/us/bin/pss/header.o
 .text          0x0000000000000000        0x0 build/us/bin/cotmc/header.o
 .data          0x0000000000000000        0x0 build/us/bin/cotmc/header.o
 .bss           0x0000000000000000        0x0 build/us/bin/cotmc/header.o
 .reginfo       0x0000000000000000       0x18 build/us/bin/cotmc/header.o
 .MIPS.abiflags
                0x0000000000000000       0x18 build/us/bin/cotmc/header.o
 .pdr           0x0000000000000000        0x0 build/us/bin/cotmc/header.o
 .gnu.attributes
                0x0000000000000000       0x10 build/us/bin/cotmc/header.o
 .text          0x0000000000000000        0x0 build/us/bin/totwc/header.o
 .data          0x0000000000000000        0x0 build/us/bin/totwc/header.o
 .bss           0x0000000000000000        0x0 build/us/bin/totwc/header.o
 .reginfo       0x0000000000000000       0x18 build/us/bin/totwc/header.o
 .MIPS.abiflags
                0x0000000000000000       0x18 build/us/bin/totwc/header.o
 .pdr           0x0000000000000000        0x0 build/us/bin/totwc/header.o
 .gnu.attributes
                0x0000000000000000       0x10 build/us/bin/totwc/header.o
 .text          0x0000000000000000        0x0 build/us/bin/bowser_1/header.o
 .data          0x0000000000000000        0x0 build/us/bin/bowser_1/header.o
 .bss           0x0000000000000000        0x0 build/us/bin/bowser_1/header.o
 .reginfo       0x0000000000000000       0x18 build/us/bin/bowser_1/header.o
 .MIPS.abiflags
                0x0000000000000000       0x18 build/us/bin/bowser_1/header.o
 .pdr           0x0000000000000000        0x0 build/us/bin/bowser_1/header.o
 .gnu.attributes
                0x0000000000000000       0x10 build/us/bin/bowser_1/header.o
 .text          0x0000000000000000        0x0 build/us/bin/wmotr/header.o
 .data          0x0000000000000000        0x0 build/us/bin/wmotr/header.o
 .bss           0x0000000000000000        0x0 build/us/bin/wmotr/header.o
 .reginfo       0x0000000000000000       0x18 build/us/bin/wmotr/header.o
 .MIPS.abiflags
                0x0000000000000000       0x18 build/us/bin/wmotr/header.o
 .pdr           0x0000000000000000        0x0 build/us/bin/wmotr/header.o
 .gnu.attributes
                0x0000000000000000       0x10 build/us/bin/wmotr/header.o
 .text          0x0000000000000000        0x0 build/us/bin/bowser_2/header.o
 .data          0x0000000000000000        0x0 build/us/bin/bowser_2/header.o
 .bss           0x0000000000000000        0x0 build/us/bin/bowser_2/header.o
 .reginfo       0x0000000000000000       0x18 build/us/bin/bowser_2/header.o
 .MIPS.abiflags
                0x0000000000000000       0x18 build/us/bin/bowser_2/header.o
 .pdr           0x0000000000000000        0x0 build/us/bin/bowser_2/header.o
 .gnu.attributes
                0x0000000000000000       0x10 build/us/bin/bowser_2/header.o
 .text          0x0000000000000000        0x0 build/us/bin/bowser_3/header.o
 .data          0x0000000000000000        0x0 build/us/bin/bowser_3/header.o
 .bss           0x0000000000000000        0x0 build/us/bin/bowser_3/header.o
 .reginfo       0x0000000000000000       0x18 build/us/bin/bowser_3/header.o
 .MIPS.abiflags
                0x0000000000000000       0x18 build/us/bin/bowser_3/header.o
 .pdr           0x0000000000000000        0x0 build/us/bin/bowser_3/header.o
 .gnu.attributes
                0x0000000000000000       0x10 build/us/bin/bowser_3/header.o
 .text          0x0000000000000000        0x0 build/us/bin/ttm/header.o
 .data          0x0000000000000000        0x0 build/us/bin/ttm/header.o
 .bss           0x0000000000000000        0x0 build/us/bin/ttm/header.o
 .reginfo       0x0000000000000000       0x18 build/us/bin/ttm/header.o
 .MIPS.abiflags
                0x0000000000000000       0x18 build/us/bin/ttm/header.o
 .pdr           0x0000000000000000        0x0 build/us/bin/ttm/header.o
 .gnu.attributes
                0x0000000000000000       0x10 build/us/bin/ttm/header.o
 .text          0x0000000000000000        0x0 build/us/assets/mario_anim_data.o
 .bss           0x0000000000000000        0x0 build/us/assets/mario_anim_data.o
 .reginfo       0x0000000000000000       0x18 build/us/assets/mario_anim_data.o
 .MIPS.abiflags
                0x0000000000000000       0x18 build/us/assets/mario_anim_data.o
 .pdr           0x0000000000000000        0x0 build/us/assets/mario_anim_data.o
 .gnu.attributes
                0x0000000000000000       0x10 build/us/assets/mario_anim_data.o
 .text          0x0000000000000000        0x0 build/us/assets/demo_data.o
 .bss           0x0000000000000000        0x0 build/us/assets/demo_data.o
 .reginfo       0x0000000000000000       0x18 build/us/assets/demo_data.o
 .MIPS.abiflags
                0x0000000000000000       0x18 build/us/assets/demo_data.o
 .pdr           0x0000000000000000        0x0 build/us/assets/demo_data.o
 .gnu.attributes
                0x0000000000000000       0x10 build/us/assets/demo_data.o
 .text          0x0000000000000000        0x0 build/us/assets/sound_data.ctl.o
 .bss           0x0000000000000000        0x0 build/us/assets/sound_data.ctl.o
 .reginfo       0x0000000000000000       0x18 build/us/assets/sound_data.ctl.o
 .MIPS.abiflags
                0x0000000000000000       0x18 build/us/assets/sound_data.ctl.o
 .pdr           0x0000000000000000        0x0 build/us/assets/sound_data.ctl.o
 .gnu.attributes
                0x0000000000000000       0x10 build/us/assets/sound_data.ctl.o
 .text          0x0000000000000000        0x0 build/us/assets/sound_data.tbl.o
 .bss           0x0000000000000000        0x0 build/us/assets/sound_data.tbl.o
 .reginfo       0x0000000000000000       0x18 build/us/assets/sound_data.tbl.o
 .MIPS.abiflags
                0x0000000000000000       0x18 build/us/assets/sound_data.tbl.o
 .pdr           0x0000000000000000        0x0 build/us/assets/sound_data.tbl.o
 .gnu.attributes
                0x0000000000000000       0x10 build/us/assets/sound_data.tbl.o
 .text          0x0000000000000000        0x0 build/us/assets/music_data.sbk.o
 .bss           0x0000000000000000        0x0 build/us/assets/music_data.sbk.o
 .reginfo       0x0000000000000000       0x18 build/us/assets/music_data.sbk.o
 .MIPS.abiflags
                0x0000000000000000       0x18 build/us/assets/music_data.sbk.o
 .pdr           0x0000000000000000        0x0 build/us/assets/music_data.sbk.o
 .gnu.attributes
                0x0000000000000000       0x10 build/us/assets/music_data.sbk.o
 .text          0x0000000000000000        0x0 build/us/actors/group7.o
 .data          0x0000000000000000        0x0 build/us/actors/group7.o
 .bss           0x0000000000000000        0x0 build/us/actors/group7.o
 .reginfo       0x0000000000000000       0x18 build/us/actors/group7.o
 .MIPS.abiflags
                0x0000000000000000       0x18 build/us/actors/group7.o
 .pdr           0x0000000000000000        0x0 build/us/actors/group7.o
 .rodata        0x0000000000000000     0xd130 build/us/actors/group7.o
 .gnu.attributes
                0x0000000000000000       0x10 build/us/actors/group7.o
 .text          0x0000000000000000        0x0 build/us/actors/group5.o
 .data          0x0000000000000000        0x0 build/us/actors/group5.o
 .bss           0x0000000000000000        0x0 build/us/actors/group5.o
 .reginfo       0x0000000000000000       0x18 build/us/actors/group5.o
 .MIPS.abiflags
                0x0000000000000000       0x18 build/us/actors/group5.o
 .pdr           0x0000000000000000        0x0 build/us/actors/group5.o
 .rodata        0x0000000000000000    0x14650 build/us/actors/group5.o
 .gnu.attributes
                0x0000000000000000       0x10 build/us/actors/group5.o
 .text          0x0000000000000000        0x0 build/us/actors/group16.o
 .data          0x0000000000000000        0x0 build/us/actors/group16.o
 .bss           0x0000000000000000        0x0 build/us/actors/group16.o
 .reginfo       0x0000000000000000       0x18 build/us/actors/group16.o
 .MIPS.abiflags
                0x0000000000000000       0x18 build/us/actors/group16.o
 .pdr           0x0000000000000000        0x0 build/us/actors/group16.o
 .rodata        0x0000000000000000     0x5e78 build/us/actors/group16.o
 .gnu.attributes
                0x0000000000000000       0x10 build/us/actors/group16.o
 .text          0x0000000000000000        0x0 build/us/actors/group9.o
 .data          0x0000000000000000        0x0 build/us/actors/group9.o
 .bss           0x0000000000000000        0x0 build/us/actors/group9.o
 .reginfo       0x0000000000000000       0x18 build/us/actors/group9.o
 .MIPS.abiflags
                0x0000000000000000       0x18 build/us/actors/group9.o
 .pdr           0x0000000000000000        0x0 build/us/actors/group9.o
 .rodata        0x0000000000000000    0x10178 build/us/actors/group9.o
 .gnu.attributes
                0x0000000000000000       0x10 build/us/actors/group9.o
 .text          0x0000000000000000        0x0 build/us/actors/group10.o
 .data          0x0000000000000000        0x0 build/us/actors/group10.o
 .bss           0x0000000000000000        0x0 build/us/actors/group10.o
 .reginfo       0x0000000000000000       0x18 build/us/actors/group10.o
 .MIPS.abiflags
                0x0000000000000000       0x18 build/us/actors/group10.o
 .pdr           0x0000000000000000        0x0 build/us/actors/group10.o
 .rodata        0x0000000000000000    0x24200 build/us/actors/group10.o
 .gnu.attributes
                0x0000000000000000       0x10 build/us/actors/group10.o
 .text          0x0000000000000000        0x0 build/us/actors/group14.o
 .data          0x0000000000000000        0x0 build/us/actors/group14.o
 .bss           0x0000000000000000        0x0 build/us/actors/group14.o
 .reginfo       0x0000000000000000       0x18 build/us/actors/group14.o
 .MIPS.abiflags
                0x0000000000000000       0x18 build/us/actors/group14.o
 .pdr           0x0000000000000000        0x0 build/us/actors/group14.o
 .rodata        0x0000000000000000    0x25188 build/us/actors/group14.o
 .gnu.attributes
                0x0000000000000000       0x10 build/us/actors/group14.o
 .text          0x0000000000000000        0x0 build/us/actors/common1.o
 .data          0x0000000000000000        0x0 build/us/actors/common1.o
 .bss           0x0000000000000000        0x0 build/us/actors/common1.o
 .reginfo       0x0000000000000000       0x18 build/us/actors/common1.o
 .MIPS.abiflags
                0x0000000000000000       0x18 build/us/actors/common1.o
 .pdr           0x0000000000000000        0x0 build/us/actors/common1.o
 .rodata        0x0000000000000000    0x33308 build/us/actors/common1.o
 .gnu.attributes
                0x0000000000000000       0x10 build/us/actors/common1.o
 .text          0x0000000000000000        0x0 build/us/actors/group2.o
 .data          0x0000000000000000        0x0 build/us/actors/group2.o
 .bss           0x0000000000000000        0x0 build/us/actors/group2.o
 .reginfo       0x0000000000000000       0x18 build/us/actors/group2.o
 .MIPS.abiflags
                0x0000000000000000       0x18 build/us/actors/group2.o
 .pdr           0x0000000000000000        0x0 build/us/actors/group2.o
 .rodata        0x0000000000000000     0x6180 build/us/actors/group2.o
 .gnu.attributes
                0x0000000000000000       0x10 build/us/actors/group2.o
 .text          0x0000000000000000        0x0 build/us/actors/group1.o
 .data          0x0000000000000000        0x0 build/us/actors/group1.o
 .bss           0x0000000000000000        0x0 build/us/actors/group1.o
 .reginfo       0x0000000000000000       0x18 build/us/actors/group1.o
 .MIPS.abiflags
                0x0000000000000000       0x18 build/us/actors/group1.o
 .pdr           0x0000000000000000        0x0 build/us/actors/group1.o
 .rodata        0x0000000000000000    0x15360 build/us/actors/group1.o
 .gnu.attributes
                0x0000000000000000       0x10 build/us/actors/group1.o
 .text          0x0000000000000000        0x0 build/us/actors/group4.o
 .data          0x0000000000000000        0x0 build/us/actors/group4.o
 .bss           0x0000000000000000        0x0 build/us/actors/group4.o
 .reginfo       0x0000000000000000       0x18 build/us/actors/group4.o
 .MIPS.abiflags
                0x0000000000000000       0x18 build/us/actors/group4.o
 .pdr           0x0000000000000000        0x0 build/us/actors/group4.o
 .rodata        0x0000000000000000    0x13d30 build/us/actors/group4.o
 .gnu.attributes
                0x0000000000000000       0x10 build/us/actors/group4.o
 .text          0x0000000000000000        0x0 build/us/actors/group12.o
 .data          0x0000000000000000        0x0 build/us/actors/group12.o
 .bss           0x0000000000000000        0x0 build/us/actors/group12.o
 .reginfo       0x0000000000000000       0x18 build/us/actors/group12.o
 .MIPS.abiflags
                0x0000000000000000       0x18 build/us/actors/group12.o
 .pdr           0x0000000000000000        0x0 build/us/actors/group12.o
 .rodata        0x0000000000000000    0x62f10 build/us/actors/group12.o
 .gnu.attributes
                0x0000000000000000       0x10 build/us/actors/group12.o
 .text          0x0000000000000000        0x0 build/us/actors/group11.o
 .data          0x0000000000000000        0x0 build/us/actors/group11.o
 .bss           0x0000000000000000        0x0 build/us/actors/group11.o
 .reginfo       0x0000000000000000       0x18 build/us/actors/group11.o
 .MIPS.abiflags
                0x0000000000000000       0x18 build/us/actors/group11.o
 .pdr           0x0000000000000000        0x0 build/us/actors/group11.o
 .rodata        0x0000000000000000    0x16ec0 build/us/actors/group11.o
 .gnu.attributes
                0x0000000000000000       0x10 build/us/actors/group11.o
 .text          0x0000000000000000        0x0 build/us/actors/group3.o
 .data          0x0000000000000000        0x0 build/us/actors/group3.o
 .bss           0x0000000000000000        0x0 build/us/actors/group3.o
 .reginfo       0x0000000000000000       0x18 build/us/actors/group3.o
 .MIPS.abiflags
                0x0000000000000000       0x18 build/us/actors/group3.o
 .pdr           0x0000000000000000        0x0 build/us/actors/group3.o
 .rodata        0x0000000000000000    0x110a0 build/us/actors/group3.o
 .gnu.attributes
                0x0000000000000000       0x10 build/us/actors/group3.o
 .text          0x0000000000000000        0x0 build/us/actors/common0.o
 .data          0x0000000000000000        0x0 build/us/actors/common0.o
 .bss           0x0000000000000000        0x0 build/us/actors/common0.o
 .reginfo       0x0000000000000000       0x18 build/us/actors/common0.o
 .MIPS.abiflags
                0x0000000000000000       0x18 build/us/actors/common0.o
 .pdr           0x0000000000000000        0x0 build/us/actors/common0.o
 .rodata        0x0000000000000000    0x28bf0 build/us/actors/common0.o
 .gnu.attributes
                0x0000000000000000       0x10 build/us/actors/common0.o
 .text          0x0000000000000000        0x0 build/us/actors/group0.o
 .data          0x0000000000000000        0x0 build/us/actors/group0.o
 .bss           0x0000000000000000        0x0 build/us/actors/group0.o
 .reginfo       0x0000000000000000       0x18 build/us/actors/group0.o
 .MIPS.abiflags
                0x0000000000000000       0x18 build/us/actors/group0.o
 .pdr           0x0000000000000000        0x0 build/us/actors/group0.o
 .rodata        0x0000000000000000    0x35378 build/us/actors/group0.o
 .gnu.attributes
                0x0000000000000000       0x10 build/us/actors/group0.o
 .text          0x0000000000000000        0x0 build/us/actors/group15.o
 .data          0x0000000000000000        0x0 build/us/actors/group15.o
 .bss           0x0000000000000000        0x0 build/us/actors/group15.o
 .reginfo       0x0000000000000000       0x18 build/us/actors/group15.o
 .MIPS.abiflags
                0x0000000000000000       0x18 build/us/actors/group15.o
 .pdr           0x0000000000000000        0x0 build/us/actors/group15.o
 .rodata        0x0000000000000000    0x17e78 build/us/actors/group15.o
 .gnu.attributes
                0x0000000000000000       0x10 build/us/actors/group15.o
 .text          0x0000000000000000        0x0 build/us/actors/group13.o
 .data          0x0000000000000000        0x0 build/us/actors/group13.o
 .bss           0x0000000000000000        0x0 build/us/actors/group13.o
 .reginfo       0x0000000000000000       0x18 build/us/actors/group13.o
 .MIPS.abiflags
                0x0000000000000000       0x18 build/us/actors/group13.o
 .pdr           0x0000000000000000        0x0 build/us/actors/group13.o
 .rodata        0x0000000000000000    0x17960 build/us/actors/group13.o
 .gnu.attributes
                0x0000000000000000       0x10 build/us/actors/group13.o
 .text          0x0000000000000000        0x0 build/us/actors/group17.o
 .data          0x0000000000000000        0x0 build/us/actors/group17.o
 .bss           0x0000000000000000        0x0 build/us/actors/group17.o
 .reginfo       0x0000000000000000       0x18 build/us/actors/group17.o
 .MIPS.abiflags
                0x0000000000000000       0x18 build/us/actors/group17.o
 .pdr           0x0000000000000000        0x0 build/us/actors/group17.o
 .rodata        0x0000000000000000    0x15070 build/us/actors/group17.o
 .gnu.attributes
                0x0000000000000000       0x10 build/us/actors/group17.o
 .text          0x0000000000000000        0x0 build/us/actors/group6.o
 .data          0x0000000000000000        0x0 build/us/actors/group6.o
 .bss           0x0000000000000000        0x0 build/us/actors/group6.o
 .reginfo       0x0000000000000000       0x18 build/us/actors/group6.o
 .MIPS.abiflags
                0x0000000000000000       0x18 build/us/actors/group6.o
 .pdr           0x0000000000000000        0x0 build/us/actors/group6.o
 .rodata        0x0000000000000000    0x160b8 build/us/actors/group6.o
 .gnu.attributes
                0x0000000000000000       0x10 build/us/actors/group6.o
 .text          0x0000000000000000        0x0 build/us/actors/group8.o
 .data          0x0000000000000000        0x0 build/us/actors/group8.o
 .bss           0x0000000000000000        0x0 build/us/actors/group8.o
 .reginfo       0x0000000000000000       0x18 build/us/actors/group8.o
 .MIPS.abiflags
                0x0000000000000000       0x18 build/us/actors/group8.o
 .pdr           0x0000000000000000        0x0 build/us/actors/group8.o
 .rodata        0x0000000000000000     0x34c8 build/us/actors/group8.o
 .gnu.attributes
                0x0000000000000000       0x10 build/us/actors/group8.o
 .data          0x0000000000000000        0x0 build/us/libultra.a(bcopy.o)
 .bss           0x0000000000000000        0x0 build/us/libultra.a(bcopy.o)
 .reginfo       0x0000000000000000       0x18 build/us/libultra.a(bcopy.o)
 .MIPS.abiflags
                0x0000000000000000       0x18 build/us/libultra.a(bcopy.o)
 .pdr           0x0000000000000000        0x0 build/us/libultra.a(bcopy.o)
 .gnu.attributes
                0x0000000000000000       0x10 build/us/libultra.a(bcopy.o)
 .data          0x0000000000000000        0x0 build/us/libultra.a(osWritebackDCacheAll.o)
 .bss           0x0000000000000000        0x0 build/us/libultra.a(osWritebackDCacheAll.o)
 .reginfo       0x0000000000000000       0x18 build/us/libultra.a(osWritebackDCacheAll.o)
 .MIPS.abiflags
                0x0000000000000000       0x18 build/us/libultra.a(osWritebackDCacheAll.o)
 .pdr           0x0000000000000000        0x0 build/us/libultra.a(osWritebackDCacheAll.o)
 .gnu.attributes
                0x0000000000000000       0x10 build/us/libultra.a(osWritebackDCacheAll.o)
 .data          0x0000000000000000        0x0 build/us/libultra.a(bzero.o)
 .bss           0x0000000000000000        0x0 build/us/libultra.a(bzero.o)
 .reginfo       0x0000000000000000       0x18 build/us/libultra.a(bzero.o)
 .MIPS.abiflags
                0x0000000000000000       0x18 build/us/libultra.a(bzero.o)
 .pdr           0x0000000000000000        0x0 build/us/libultra.a(bzero.o)
 .gnu.attributes
                0x0000000000000000       0x10 build/us/libultra.a(bzero.o)
 .data          0x0000000000000000        0x0 build/us/libultra.a(osInvalDCache.o)
 .bss           0x0000000000000000        0x0 build/us/libultra.a(osInvalDCache.o)
 .reginfo       0x0000000000000000       0x18 build/us/libultra.a(osInvalDCache.o)
 .MIPS.abiflags
                0x0000000000000000       0x18 build/us/libultra.a(osInvalDCache.o)
 .pdr           0x0000000000000000        0x0 build/us/libultra.a(osInvalDCache.o)
 .gnu.attributes
                0x0000000000000000       0x10 build/us/libultra.a(osInvalDCache.o)
 .data          0x0000000000000000        0x0 build/us/libultra.a(osUnmapTLBAll.o)
 .bss           0x0000000000000000        0x0 build/us/libultra.a(osUnmapTLBAll.o)
 .reginfo       0x0000000000000000       0x18 build/us/libultra.a(osUnmapTLBAll.o)
 .MIPS.abiflags
                0x0000000000000000       0x18 build/us/libultra.a(osUnmapTLBAll.o)
 .pdr           0x0000000000000000        0x0 build/us/libultra.a(osUnmapTLBAll.o)
 .gnu.attributes
                0x0000000000000000       0x10 build/us/libultra.a(osUnmapTLBAll.o)
 .data          0x0000000000000000        0x0 build/us/libultra.a(osInvalICache.o)
 .bss           0x0000000000000000        0x0 build/us/libultra.a(osInvalICache.o)
 .reginfo       0x0000000000000000       0x18 build/us/libultra.a(osInvalICache.o)
 .MIPS.abiflags
                0x0000000000000000       0x18 build/us/libultra.a(osInvalICache.o)
 .pdr           0x0000000000000000        0x0 build/us/libultra.a(osInvalICache.o)
 .gnu.attributes
                0x0000000000000000       0x10 build/us/libultra.a(osInvalICache.o)
 .data          0x0000000000000000        0x0 build/us/libultra.a(osMapTLB.o)
 .bss           0x0000000000000000        0x0 build/us/libultra.a(osMapTLB.o)
 .reginfo       0x0000000000000000       0x18 build/us/libultra.a(osMapTLB.o)
 .MIPS.abiflags
                0x0000000000000000       0x18 build/us/libultra.a(osMapTLB.o)
 .pdr           0x0000000000000000        0x0 build/us/libultra.a(osMapTLB.o)
 .gnu.attributes
                0x0000000000000000       0x10 build/us/libultra.a(osMapTLB.o)
 .data          0x0000000000000000        0x0 build/us/libultra.a(osWritebackDCache.o)
 .bss           0x0000000000000000        0x0 build/us/libultra.a(osWritebackDCache.o)
 .reginfo       0x0000000000000000       0x18 build/us/libultra.a(osWritebackDCache.o)
 .MIPS.abiflags
                0x0000000000000000       0x18 build/us/libultra.a(osWritebackDCache.o)
 .pdr           0x0000000000000000        0x0 build/us/libultra.a(osWritebackDCache.o)
 .gnu.attributes
                0x0000000000000000       0x10 build/us/libultra.a(osWritebackDCache.o)
 .options       0x0000000000000000       0x20 build/us/libultra.a(osContInit.o)
 .reginfo       0x0000000000000000       0x18 build/us/libultra.a(osContInit.o)
 .gptab.data    0x0000000000000000       0x18 build/us/libultra.a(osContInit.o)
 .gptab.bss     0x0000000000000000       0x30 build/us/libultra.a(osContInit.o)
 .mdebug        0x0000000000000000      0x8d4 build/us/libultra.a(osContInit.o)
 .options       0x0000000000000000       0x20 build/us/libultra.a(sprintf.o)
 .reginfo       0x0000000000000000       0x18 build/us/libultra.a(sprintf.o)
 .mdebug        0x0000000000000000      0x3f0 build/us/libultra.a(sprintf.o)
 .options       0x0000000000000000       0x20 build/us/libultra.a(osViSetEvent.o)
 .reginfo       0x0000000000000000       0x18 build/us/libultra.a(osViSetEvent.o)
 .mdebug        0x0000000000000000      0x300 build/us/libultra.a(osViSetEvent.o)
 .options       0x0000000000000000       0x20 build/us/libultra.a(osViSetSpecialFeatures.o)
 .reginfo       0x0000000000000000       0x18 build/us/libultra.a(osViSetSpecialFeatures.o)
 .mdebug        0x0000000000000000      0x330 build/us/libultra.a(osViSetSpecialFeatures.o)
 .options       0x0000000000000000       0x20 build/us/libultra.a(osVirtualToPhysical.o)
 .reginfo       0x0000000000000000       0x18 build/us/libultra.a(osVirtualToPhysical.o)
 .mdebug        0x0000000000000000      0x2c0 build/us/libultra.a(osVirtualToPhysical.o)
 .options       0x0000000000000000       0x20 build/us/libultra.a(osEepromLongWrite.o)
 .reginfo       0x0000000000000000       0x18 build/us/libultra.a(osEepromLongWrite.o)
 .mdebug        0x0000000000000000      0x564 build/us/libultra.a(osEepromLongWrite.o)
 .options       0x0000000000000000       0x20 build/us/libultra.a(osGetTime.o)
 .reginfo       0x0000000000000000       0x18 build/us/libultra.a(osGetTime.o)
 .mdebug        0x0000000000000000      0x3fc build/us/libultra.a(osGetTime.o)
 .options       0x0000000000000000       0x20 build/us/libultra.a(osCreatePiManager.o)
 .reginfo       0x0000000000000000       0x18 build/us/libultra.a(osCreatePiManager.o)
 .gptab.data    0x0000000000000000       0x18 build/us/libultra.a(osCreatePiManager.o)
 .gptab.bss     0x0000000000000000       0x30 build/us/libultra.a(osCreatePiManager.o)
 .mdebug        0x0000000000000000      0x6fc build/us/libultra.a(osCreatePiManager.o)
 .options       0x0000000000000000       0x20 build/us/libultra.a(guPerspectiveF.o)
 .reginfo       0x0000000000000000       0x18 build/us/libultra.a(guPerspectiveF.o)
 .mdebug        0x0000000000000000      0x4b4 build/us/libultra.a(guPerspectiveF.o)
 .options       0x0000000000000000       0x20 build/us/libultra.a(osInitialize.o)
 .reginfo       0x0000000000000000       0x18 build/us/libultra.a(osInitialize.o)
 .gptab.data    0x0000000000000000       0x20 build/us/libultra.a(osInitialize.o)
 .gptab.bss     0x0000000000000000       0x18 build/us/libultra.a(osInitialize.o)
 .mdebug        0x0000000000000000      0x83c build/us/libultra.a(osInitialize.o)
 .options       0x0000000000000000       0x20 build/us/libultra.a(osSpTaskLoadGo.o)
 .reginfo       0x0000000000000000       0x18 build/us/libultra.a(osSpTaskLoadGo.o)
 .gptab.bss     0x0000000000000000       0x18 build/us/libultra.a(osSpTaskLoadGo.o)
 .mdebug        0x0000000000000000      0x748 build/us/libultra.a(osSpTaskLoadGo.o)
 .options       0x0000000000000000       0x20 build/us/libultra.a(osAiGetLength.o)
 .reginfo       0x0000000000000000       0x18 build/us/libultra.a(osAiGetLength.o)
 .mdebug        0x0000000000000000      0x1c4 build/us/libultra.a(osAiGetLength.o)
 .options       0x0000000000000000       0x20 build/us/libultra.a(osPiStartDma.o)
 .reginfo       0x0000000000000000       0x18 build/us/libultra.a(osPiStartDma.o)
 .mdebug        0x0000000000000000      0x3d8 build/us/libultra.a(osPiStartDma.o)
 .options       0x0000000000000000       0x20 build/us/libultra.a(guOrthoF.o)
 .reginfo       0x0000000000000000       0x18 build/us/libultra.a(guOrthoF.o)
 .mdebug        0x0000000000000000      0x37c build/us/libultra.a(guOrthoF.o)
 .options       0x0000000000000000       0x20 build/us/libultra.a(osViSetMode.o)
 .reginfo       0x0000000000000000       0x18 build/us/libultra.a(osViSetMode.o)
 .mdebug        0x0000000000000000      0x2fc build/us/libultra.a(osViSetMode.o)
 .options       0x0000000000000000       0x20 build/us/libultra.a(osContStartReadData.o)
 .reginfo       0x0000000000000000       0x18 build/us/libultra.a(osContStartReadData.o)
 .gptab.bss     0x0000000000000000       0x20 build/us/libultra.a(osContStartReadData.o)
 .mdebug        0x0000000000000000      0x6dc build/us/libultra.a(osContStartReadData.o)
 .options       0x0000000000000000       0x20 build/us/libultra.a(__osSiCreateAccessQueue.o)
 .reginfo       0x0000000000000000       0x18 build/us/libultra.a(__osSiCreateAccessQueue.o)
 .gptab.data    0x0000000000000000       0x18 build/us/libultra.a(__osSiCreateAccessQueue.o)
 .gptab.bss     0x0000000000000000       0x20 build/us/libultra.a(__osSiCreateAccessQueue.o)
 .mdebug        0x0000000000000000      0x4d0 build/us/libultra.a(__osSiCreateAccessQueue.o)
 .options       0x0000000000000000       0x20 build/us/libultra.a(_Printf.o)
 .reginfo       0x0000000000000000       0x18 build/us/libultra.a(_Printf.o)
 .gptab.data    0x0000000000000000       0x18 build/us/libultra.a(_Printf.o)
 .mdebug        0x0000000000000000      0x594 build/us/libultra.a(_Printf.o)
 .options       0x0000000000000000       0x20 build/us/libultra.a(osEepromWrite.o)
 .reginfo       0x0000000000000000       0x18 build/us/libultra.a(osEepromWrite.o)
 .gptab.bss     0x0000000000000000       0x20 build/us/libultra.a(osEepromWrite.o)
 .mdebug        0x0000000000000000      0x60c build/us/libultra.a(osEepromWrite.o)
 .options       0x0000000000000000       0x20 build/us/libultra.a(osSetEventMesg.o)
 .reginfo       0x0000000000000000       0x18 build/us/libultra.a(osSetEventMesg.o)
 .gptab.bss     0x0000000000000000       0x18 build/us/libultra.a(osSetEventMesg.o)
 .mdebug        0x0000000000000000      0x300 build/us/libultra.a(osSetEventMesg.o)
 .options       0x0000000000000000       0x20 build/us/libultra.a(sqrtf.o)
 .reginfo       0x0000000000000000       0x18 build/us/libultra.a(sqrtf.o)
 .mdebug        0x0000000000000000      0x1ac build/us/libultra.a(sqrtf.o)
 .options       0x0000000000000000       0x20 build/us/libultra.a(__osSiRawStartDma.o)
 .reginfo       0x0000000000000000       0x18 build/us/libultra.a(__osSiRawStartDma.o)
 .mdebug        0x0000000000000000      0x4b8 build/us/libultra.a(__osSiRawStartDma.o)
 .options       0x0000000000000000       0x20 build/us/libultra.a(osViSwapBuffer.o)
 .reginfo       0x0000000000000000       0x18 build/us/libultra.a(osViSwapBuffer.o)
 .mdebug        0x0000000000000000      0x300 build/us/libultra.a(osViSwapBuffer.o)
 .options       0x0000000000000000       0x20 build/us/libultra.a(osCreateViManager.o)
 .reginfo       0x0000000000000000       0x18 build/us/libultra.a(osCreateViManager.o)
 .gptab.data    0x0000000000000000       0x20 build/us/libultra.a(osCreateViManager.o)
 .gptab.bss     0x0000000000000000       0x28 build/us/libultra.a(osCreateViManager.o)
 .mdebug        0x0000000000000000      0xa74 build/us/libultra.a(osCreateViManager.o)
 .options       0x0000000000000000       0x20 build/us/libultra.a(__osSpSetStatus.o)
 .reginfo       0x0000000000000000       0x18 build/us/libultra.a(__osSpSetStatus.o)
 .mdebug        0x0000000000000000      0x1c8 build/us/libultra.a(__osSpSetStatus.o)
 .options       0x0000000000000000       0x20 build/us/libultra.a(osSetThreadPri.o)
 .reginfo       0x0000000000000000       0x18 build/us/libultra.a(osSetThreadPri.o)
 .mdebug        0x0000000000000000      0x3ac build/us/libultra.a(osSetThreadPri.o)
 .options       0x0000000000000000       0x20 build/us/libultra.a(guRotateF.o)
 .reginfo       0x0000000000000000       0x18 build/us/libultra.a(guRotateF.o)
 .gptab.bss     0x0000000000000000       0x18 build/us/libultra.a(guRotateF.o)
 .mdebug        0x0000000000000000      0x4d0 build/us/libultra.a(guRotateF.o)
 .options       0x0000000000000000       0x20 build/us/libultra.a(osGetThreadPri.o)
 .reginfo       0x0000000000000000       0x18 build/us/libultra.a(osGetThreadPri.o)
 .mdebug        0x0000000000000000      0x1ec build/us/libultra.a(osGetThreadPri.o)
 .options       0x0000000000000000       0x20 build/us/libultra.a(osJamMesg.o)
 .reginfo       0x0000000000000000       0x18 build/us/libultra.a(osJamMesg.o)
 .mdebug        0x0000000000000000      0x42c build/us/libultra.a(osJamMesg.o)
 .options       0x0000000000000000       0x20 build/us/libultra.a(osEepromLongRead.o)
 .reginfo       0x0000000000000000       0x18 build/us/libultra.a(osEepromLongRead.o)
 .mdebug        0x0000000000000000      0x55c build/us/libultra.a(osEepromLongRead.o)
 .options       0x0000000000000000       0x20 build/us/libultra.a(osSetTimer.o)
 .reginfo       0x0000000000000000       0x18 build/us/libultra.a(osSetTimer.o)
 .mdebug        0x0000000000000000      0x300 build/us/libultra.a(osSetTimer.o)
 .options       0x0000000000000000       0x20 build/us/libultra.a(__osViInit.o)
 .reginfo       0x0000000000000000       0x18 build/us/libultra.a(__osViInit.o)
 .gptab.data    0x0000000000000000       0x20 build/us/libultra.a(__osViInit.o)
 .mdebug        0x0000000000000000      0x574 build/us/libultra.a(__osViInit.o)
 .options       0x0000000000000000       0x20 build/us/libultra.a(osViData.o)
 .reginfo       0x0000000000000000       0x18 build/us/libultra.a(osViData.o)
 .gptab.data    0x0000000000000000       0x18 build/us/libultra.a(osViData.o)
 .mdebug        0x0000000000000000      0x170 build/us/libultra.a(osViData.o)
 .options       0x0000000000000000       0x20 build/us/libultra.a(__osSiRawReadIo.o)
 .reginfo       0x0000000000000000       0x18 build/us/libultra.a(__osSiRawReadIo.o)
 .mdebug        0x0000000000000000      0x2bc build/us/libultra.a(__osSiRawReadIo.o)
 .options       0x0000000000000000       0x20 build/us/libultra.a(osCreateMesgQueue.o)
 .reginfo       0x0000000000000000       0x18 build/us/libultra.a(osCreateMesgQueue.o)
 .mdebug        0x0000000000000000      0x1fc build/us/libultra.a(osCreateMesgQueue.o)
 .options       0x0000000000000000       0x20 build/us/libultra.a(osTimer.o)
 .reginfo       0x0000000000000000       0x18 build/us/libultra.a(osTimer.o)
 .gptab.data    0x0000000000000000       0x18 build/us/libultra.a(osTimer.o)
 .gptab.bss     0x0000000000000000       0x28 build/us/libultra.a(osTimer.o)
 .mdebug        0x0000000000000000      0x7b0 build/us/libultra.a(osTimer.o)
 .options       0x0000000000000000       0x20 build/us/libultra.a(__osPiCreateAccessQueue.o)
 .reginfo       0x0000000000000000       0x18 build/us/libultra.a(__osPiCreateAccessQueue.o)
 .gptab.data    0x0000000000000000       0x18 build/us/libultra.a(__osPiCreateAccessQueue.o)
 .gptab.bss     0x0000000000000000       0x20 build/us/libultra.a(__osPiCreateAccessQueue.o)
 .mdebug        0x0000000000000000      0x4c0 build/us/libultra.a(__osPiCreateAccessQueue.o)
 .options       0x0000000000000000       0x20 build/us/libultra.a(guMtxF2L.o)
 .reginfo       0x0000000000000000       0x18 build/us/libultra.a(guMtxF2L.o)
 .mdebug        0x0000000000000000      0x3b0 build/us/libultra.a(guMtxF2L.o)
 .options       0x0000000000000000       0x20 build/us/libultra.a(__osSpDeviceBusy.o)
 .reginfo       0x0000000000000000       0x18 build/us/libultra.a(__osSpDeviceBusy.o)
 .mdebug        0x0000000000000000      0x1d4 build/us/libultra.a(__osSpDeviceBusy.o)
 .options       0x0000000000000000       0x20 build/us/libultra.a(osEepromProbe.o)
 .reginfo       0x0000000000000000       0x18 build/us/libultra.a(osEepromProbe.o)
 .mdebug        0x0000000000000000      0x300 build/us/libultra.a(osEepromProbe.o)
 .options       0x0000000000000000       0x20 build/us/libultra.a(__osSiRawWriteIo.o)
 .reginfo       0x0000000000000000       0x18 build/us/libultra.a(__osSiRawWriteIo.o)
 .mdebug        0x0000000000000000      0x2c0 build/us/libultra.a(__osSiRawWriteIo.o)
 .options       0x0000000000000000       0x20 build/us/libultra.a(osSpTaskYielded.o)
 .reginfo       0x0000000000000000       0x18 build/us/libultra.a(osSpTaskYielded.o)
 .mdebug        0x0000000000000000      0x2bc build/us/libultra.a(osSpTaskYielded.o)
 .options       0x0000000000000000       0x20 build/us/libultra.a(osPiRawStartDma.o)
 .reginfo       0x0000000000000000       0x18 build/us/libultra.a(osPiRawStartDma.o)
 .mdebug        0x0000000000000000      0x398 build/us/libultra.a(osPiRawStartDma.o)
 .options       0x0000000000000000       0x20 build/us/libultra.a(osCreateThread.o)
 .reginfo       0x0000000000000000       0x18 build/us/libultra.a(osCreateThread.o)
 .mdebug        0x0000000000000000      0x344 build/us/libultra.a(osCreateThread.o)
 .options       0x0000000000000000       0x20 build/us/libultra.a(__osSpRawStartDma.o)
 .reginfo       0x0000000000000000       0x18 build/us/libultra.a(__osSpRawStartDma.o)
 .mdebug        0x0000000000000000      0x3a8 build/us/libultra.a(__osSpRawStartDma.o)
 .options       0x0000000000000000       0x20 build/us/libultra.a(osViBlack.o)
 .reginfo       0x0000000000000000       0x18 build/us/libultra.a(osViBlack.o)
 .mdebug        0x0000000000000000      0x2f0 build/us/libultra.a(osViBlack.o)
 .options       0x0000000000000000       0x20 build/us/libultra.a(guTranslateF.o)
 .reginfo       0x0000000000000000       0x18 build/us/libultra.a(guTranslateF.o)
 .mdebug        0x0000000000000000      0x364 build/us/libultra.a(guTranslateF.o)
 .options       0x0000000000000000       0x20 build/us/libultra.a(osAiSetNextBuffer.o)
 .reginfo       0x0000000000000000       0x18 build/us/libultra.a(osAiSetNextBuffer.o)
 .gptab.data    0x0000000000000000       0x18 build/us/libultra.a(osAiSetNextBuffer.o)
 .mdebug        0x0000000000000000      0x3d4 build/us/libultra.a(osAiSetNextBuffer.o)
 .options       0x0000000000000000       0x20 build/us/libultra.a(_Ldtob.o)
 .reginfo       0x0000000000000000       0x18 build/us/libultra.a(_Ldtob.o)
 .mdebug        0x0000000000000000      0x5b0 build/us/libultra.a(_Ldtob.o)
 .options       0x0000000000000000       0x20 build/us/libultra.a(string.o)
 .reginfo       0x0000000000000000       0x18 build/us/libultra.a(string.o)
 .mdebug        0x0000000000000000      0x2c8 build/us/libultra.a(string.o)
 .options       0x0000000000000000       0x20 build/us/libultra.a(guNormalize.o)
 .reginfo       0x0000000000000000       0x18 build/us/libultra.a(guNormalize.o)
 .mdebug        0x0000000000000000      0x2a8 build/us/libultra.a(guNormalize.o)
 .options       0x0000000000000000       0x20 build/us/libultra.a(osRecvMesg.o)
 .reginfo       0x0000000000000000       0x18 build/us/libultra.a(osRecvMesg.o)
 .mdebug        0x0000000000000000      0x434 build/us/libultra.a(osRecvMesg.o)
 .options       0x0000000000000000       0x20 build/us/libultra.a(osStartThread.o)
 .reginfo       0x0000000000000000       0x18 build/us/libultra.a(osStartThread.o)
 .mdebug        0x0000000000000000      0x3dc build/us/libultra.a(osStartThread.o)
 .options       0x0000000000000000       0x20 build/us/libultra.a(__osSpGetStatus.o)
 .reginfo       0x0000000000000000       0x18 build/us/libultra.a(__osSpGetStatus.o)
 .mdebug        0x0000000000000000      0x1c8 build/us/libultra.a(__osSpGetStatus.o)
 .options       0x0000000000000000       0x20 build/us/libultra.a(alBnkfNew.o)
 .reginfo       0x0000000000000000       0x18 build/us/libultra.a(alBnkfNew.o)
 .mdebug        0x0000000000000000      0x380 build/us/libultra.a(alBnkfNew.o)
 .options       0x0000000000000000       0x20 build/us/libultra.a(__osViSwapContext.o)
 .reginfo       0x0000000000000000       0x18 build/us/libultra.a(__osViSwapContext.o)
 .mdebug        0x0000000000000000      0x34c build/us/libultra.a(__osViSwapContext.o)
 .options       0x0000000000000000       0x20 build/us/libultra.a(osSpTaskYield.o)
 .reginfo       0x0000000000000000       0x18 build/us/libultra.a(osSpTaskYield.o)
 .mdebug        0x0000000000000000      0x2b4 build/us/libultra.a(osSpTaskYield.o)
 .options       0x0000000000000000       0x20 build/us/libultra.a(osPiRawReadIo.o)
 .reginfo       0x0000000000000000       0x18 build/us/libultra.a(osPiRawReadIo.o)
 .mdebug        0x0000000000000000      0x2a8 build/us/libultra.a(osPiRawReadIo.o)
 .options       0x0000000000000000       0x20 build/us/libultra.a(osAiSetFrequency.o)
 .reginfo       0x0000000000000000       0x18 build/us/libultra.a(osAiSetFrequency.o)
 .mdebug        0x0000000000000000      0x2ec build/us/libultra.a(osAiSetFrequency.o)
 .options       0x0000000000000000       0x20 build/us/libultra.a(guScaleF.o)
 .reginfo       0x0000000000000000       0x18 build/us/libultra.a(guScaleF.o)
 .mdebug        0x0000000000000000      0x350 build/us/libultra.a(guScaleF.o)
 .options       0x0000000000000000       0x20 build/us/libultra.a(__osViGetCurrentContext.o)
 .reginfo       0x0000000000000000       0x18 build/us/libultra.a(__osViGetCurrentContext.o)
 .mdebug        0x0000000000000000      0x204 build/us/libultra.a(__osViGetCurrentContext.o)
 .options       0x0000000000000000       0x20 build/us/libultra.a(__osSiDeviceBusy.o)
 .reginfo       0x0000000000000000       0x18 build/us/libultra.a(__osSiDeviceBusy.o)
 .mdebug        0x0000000000000000      0x1d8 build/us/libultra.a(__osSiDeviceBusy.o)
 .options       0x0000000000000000       0x20 build/us/libultra.a(osPiGetCmdQueue.o)
 .reginfo       0x0000000000000000       0x18 build/us/libultra.a(osPiGetCmdQueue.o)
 .mdebug        0x0000000000000000      0x1f4 build/us/libultra.a(osPiGetCmdQueue.o)
 .options       0x0000000000000000       0x20 build/us/libultra.a(osSetTime.o)
 .reginfo       0x0000000000000000       0x18 build/us/libultra.a(osSetTime.o)
 .mdebug        0x0000000000000000      0x1e4 build/us/libultra.a(osSetTime.o)
 .options       0x0000000000000000       0x20 build/us/libultra.a(__osDequeueThread.o)
 .reginfo       0x0000000000000000       0x18 build/us/libultra.a(__osDequeueThread.o)
 .gptab.data    0x0000000000000000       0x18 build/us/libultra.a(__osDequeueThread.o)
 .mdebug        0x0000000000000000      0x2a8 build/us/libultra.a(__osDequeueThread.o)
 .options       0x0000000000000000       0x20 build/us/libultra.a(__osDevMgrMain.o)
 .reginfo       0x0000000000000000       0x18 build/us/libultra.a(__osDevMgrMain.o)
 .mdebug        0x0000000000000000      0x2ec build/us/libultra.a(__osDevMgrMain.o)
 .options       0x0000000000000000       0x20 build/us/libultra.a(osSendMesg.o)
 .reginfo       0x0000000000000000       0x18 build/us/libultra.a(osSendMesg.o)
 .mdebug        0x0000000000000000      0x438 build/us/libultra.a(osSendMesg.o)
 .options       0x0000000000000000       0x20 build/us/libultra.a(llmuldiv.o)
 .reginfo       0x0000000000000000       0x18 build/us/libultra.a(llmuldiv.o)
 .mdebug        0x0000000000000000      0x6b0 build/us/libultra.a(llmuldiv.o)
 .options       0x0000000000000000       0x20 build/us/libultra.a(sinf.o)
 .reginfo       0x0000000000000000       0x18 build/us/libultra.a(sinf.o)
 .mdebug        0x0000000000000000      0x28c build/us/libultra.a(sinf.o)
 .options       0x0000000000000000       0x20 build/us/libultra.a(llconv.o)
 .reginfo       0x0000000000000000       0x18 build/us/libultra.a(llconv.o)
 .mdebug        0x0000000000000000      0x59c build/us/libultra.a(llconv.o)
 .options       0x0000000000000000       0x20 build/us/libultra.a(cosf.o)
 .reginfo       0x0000000000000000       0x18 build/us/libultra.a(cosf.o)
 .mdebug        0x0000000000000000      0x288 build/us/libultra.a(cosf.o)
 .data          0x0000000000000000        0x0 build/us/libultra.a(__osGetSR.o)
 .bss           0x0000000000000000        0x0 build/us/libultra.a(__osGetSR.o)
 .reginfo       0x0000000000000000       0x18 build/us/libultra.a(__osGetSR.o)
 .MIPS.abiflags
                0x0000000000000000       0x18 build/us/libultra.a(__osGetSR.o)
 .pdr           0x0000000000000000        0x0 build/us/libultra.a(__osGetSR.o)
 .gnu.attributes
                0x0000000000000000       0x10 build/us/libultra.a(__osGetSR.o)
 .data          0x0000000000000000        0x0 build/us/libultra.a(__osDisableInt.o)
 .bss           0x0000000000000000        0x0 build/us/libultra.a(__osDisableInt.o)
 .reginfo       0x0000000000000000       0x18 build/us/libultra.a(__osDisableInt.o)
 .MIPS.abiflags
                0x0000000000000000       0x18 build/us/libultra.a(__osDisableInt.o)
 .pdr           0x0000000000000000        0x0 build/us/libultra.a(__osDisableInt.o)
 .gnu.attributes
                0x0000000000000000       0x10 build/us/libultra.a(__osDisableInt.o)
 .data          0x0000000000000000        0x0 build/us/libultra.a(osGetCount.o)
 .bss           0x0000000000000000        0x0 build/us/libultra.a(osGetCount.o)
 .reginfo       0x0000000000000000       0x18 build/us/libultra.a(osGetCount.o)
 .MIPS.abiflags
                0x0000000000000000       0x18 build/us/libultra.a(osGetCount.o)
 .pdr           0x0000000000000000        0x0 build/us/libultra.a(osGetCount.o)
 .gnu.attributes
                0x0000000000000000       0x10 build/us/libultra.a(osGetCount.o)
 .data          0x0000000000000000        0x0 build/us/libultra.a(__osSetFpcCsr.o)
 .bss           0x0000000000000000        0x0 build/us/libultra.a(__osSetFpcCsr.o)
 .reginfo       0x0000000000000000       0x18 build/us/libultra.a(__osSetFpcCsr.o)
 .MIPS.abiflags
                0x0000000000000000       0x18 build/us/libultra.a(__osSetFpcCsr.o)
 .pdr           0x0000000000000000        0x0 build/us/libultra.a(__osSetFpcCsr.o)
 .gnu.attributes
                0x0000000000000000       0x10 build/us/libultra.a(__osSetFpcCsr.o)
 .data          0x0000000000000000        0x0 build/us/libultra.a(__osSetCompare.o)
 .bss           0x0000000000000000        0x0 build/us/libultra.a(__osSetCompare.o)
 .reginfo       0x0000000000000000       0x18 build/us/libultra.a(__osSetCompare.o)
 .MIPS.abiflags
                0x0000000000000000       0x18 build/us/libultra.a(__osSetCompare.o)
 .pdr           0x0000000000000000        0x0 build/us/libultra.a(__osSetCompare.o)
 .gnu.attributes
                0x0000000000000000       0x10 build/us/libultra.a(__osSetCompare.o)
 .data          0x0000000000000000        0x0 build/us/libultra.a(osMapTLBRdb.o)
 .bss           0x0000000000000000        0x0 build/us/libultra.a(osMapTLBRdb.o)
 .reginfo       0x0000000000000000       0x18 build/us/libultra.a(osMapTLBRdb.o)
 .MIPS.abiflags
                0x0000000000000000       0x18 build/us/libultra.a(osMapTLBRdb.o)
 .pdr           0x0000000000000000        0x0 build/us/libultra.a(osMapTLBRdb.o)
 .gnu.attributes
                0x0000000000000000       0x10 build/us/libultra.a(osMapTLBRdb.o)
 .bss           0x0000000000000000        0x0 build/us/libultra.a(__osExceptionPreamble.o)
 .reginfo       0x0000000000000000       0x18 build/us/libultra.a(__osExceptionPreamble.o)
 .MIPS.abiflags
                0x0000000000000000       0x18 build/us/libultra.a(__osExceptionPreamble.o)
 .pdr           0x0000000000000000        0x0 build/us/libultra.a(__osExceptionPreamble.o)
 .gnu.attributes
                0x0000000000000000       0x10 build/us/libultra.a(__osExceptionPreamble.o)
 .data          0x0000000000000000        0x0 build/us/libultra.a(osSetIntMask.o)
 .bss           0x0000000000000000        0x0 build/us/libultra.a(osSetIntMask.o)
 .reginfo       0x0000000000000000       0x18 build/us/libultra.a(osSetIntMask.o)
 .MIPS.abiflags
                0x0000000000000000       0x18 build/us/libultra.a(osSetIntMask.o)
 .pdr           0x0000000000000000        0x0 build/us/libultra.a(osSetIntMask.o)
 .gnu.attributes
                0x0000000000000000       0x10 build/us/libultra.a(osSetIntMask.o)
 .data          0x0000000000000000        0x0 build/us/libultra.a(__osRestoreInt.o)
 .bss           0x0000000000000000        0x0 build/us/libultra.a(__osRestoreInt.o)
 .reginfo       0x0000000000000000       0x18 build/us/libultra.a(__osRestoreInt.o)
 .MIPS.abiflags
                0x0000000000000000       0x18 build/us/libultra.a(__osRestoreInt.o)
 .pdr           0x0000000000000000        0x0 build/us/libultra.a(__osRestoreInt.o)
 .gnu.attributes
                0x0000000000000000       0x10 build/us/libultra.a(__osRestoreInt.o)
 .data          0x0000000000000000        0x0 build/us/libultra.a(__osSetSR.o)
 .bss           0x0000000000000000        0x0 build/us/libultra.a(__osSetSR.o)
 .reginfo       0x0000000000000000       0x18 build/us/libultra.a(__osSetSR.o)
 .MIPS.abiflags
                0x0000000000000000       0x18 build/us/libultra.a(__osSetSR.o)
 .pdr           0x0000000000000000        0x0 build/us/libultra.a(__osSetSR.o)
 .gnu.attributes
                0x0000000000000000       0x10 build/us/libultra.a(__osSetSR.o)
 .data          0x0000000000000000        0x0 build/us/libultra.a(__osProbeTLB.o)
 .bss           0x0000000000000000        0x0 build/us/libultra.a(__osProbeTLB.o)
 .reginfo       0x0000000000000000       0x18 build/us/libultra.a(__osProbeTLB.o)
 .MIPS.abiflags
                0x0000000000000000       0x18 build/us/libultra.a(__osProbeTLB.o)
 .pdr           0x0000000000000000        0x0 build/us/libultra.a(__osProbeTLB.o)
 .gnu.attributes
                0x0000000000000000       0x10 build/us/libultra.a(__osProbeTLB.o)
 .options       0x0000000000000000       0x20 build/us/libultra.a(_Litob.o)
 .reginfo       0x0000000000000000       0x18 build/us/libultra.a(_Litob.o)
 .gptab.data    0x0000000000000000       0x18 build/us/libultra.a(_Litob.o)
 .mdebug        0x0000000000000000      0x40c build/us/libultra.a(_Litob.o)
 .options       0x0000000000000000       0x20 build/us/libultra.a(__osAiDeviceBusy.o)
 .reginfo       0x0000000000000000       0x18 build/us/libultra.a(__osAiDeviceBusy.o)
 .mdebug        0x0000000000000000      0x1dc build/us/libultra.a(__osAiDeviceBusy.o)
 .options       0x0000000000000000       0x20 build/us/libultra.a(__osSpSetPc.o)
 .reginfo       0x0000000000000000       0x18 build/us/libultra.a(__osSpSetPc.o)
 .mdebug        0x0000000000000000      0x1c0 build/us/libultra.a(__osSpSetPc.o)
 .options       0x0000000000000000       0x20 build/us/libultra.a(ldiv.o)
 .reginfo       0x0000000000000000       0x18 build/us/libultra.a(ldiv.o)
 .mdebug        0x0000000000000000      0x284 build/us/libultra.a(ldiv.o)
 .options       0x0000000000000000       0x20 build/us/libultra.a(osEepromRead.o)
 .reginfo       0x0000000000000000       0x18 build/us/libultra.a(osEepromRead.o)
 .mdebug        0x0000000000000000      0x560 build/us/libultra.a(osEepromRead.o)
 .options       0x0000000000000000       0x20 build/us/libultra.a(kdebugserver.o)
 .reginfo       0x0000000000000000       0x18 build/us/libultra.a(kdebugserver.o)
 .gptab.data    0x0000000000000000       0x18 build/us/libultra.a(kdebugserver.o)
 .gptab.bss     0x0000000000000000       0x20 build/us/libultra.a(kdebugserver.o)
 .mdebug        0x0000000000000000      0x76c build/us/libultra.a(kdebugserver.o)
 .options       0x0000000000000000       0x20 build/us/libultra.a(__osSyncPutChars.o)
 .reginfo       0x0000000000000000       0x18 build/us/libultra.a(__osSyncPutChars.o)
 .gptab.data    0x0000000000000000       0x18 build/us/libultra.a(__osSyncPutChars.o)
 .mdebug        0x0000000000000000      0x3a4 build/us/libultra.a(__osSyncPutChars.o)
 .options       0x0000000000000000       0x20 build/us/libultra.a(NaN.o)
 .reginfo       0x0000000000000000       0x18 build/us/libultra.a(NaN.o)
 .mdebug        0x0000000000000000      0x140 build/us/libultra.a(NaN.o)
 .options       0x0000000000000000       0x20 build/us/libultra.a(osDestroyThread.o)
 .reginfo       0x0000000000000000       0x18 build/us/libultra.a(osDestroyThread.o)
 .mdebug        0x0000000000000000      0x388 build/us/libultra.a(osDestroyThread.o)
 .data          0x0000000000000000        0x0 build/us/libultra.a(__osGetCause.o)
 .bss           0x0000000000000000        0x0 build/us/libultra.a(__osGetCause.o)
 .reginfo       0x0000000000000000       0x18 build/us/libultra.a(__osGetCause.o)
 .MIPS.abiflags
                0x0000000000000000       0x18 build/us/libultra.a(__osGetCause.o)
 .pdr           0x0000000000000000        0x0 build/us/libultra.a(__osGetCause.o)
 .gnu.attributes
                0x0000000000000000       0x10 build/us/libultra.a(__osGetCause.o)
 .options       0x0000000000000000       0x20 build/us/libultra.a(__osAtomicDec.o)
 .reginfo       0x0000000000000000       0x18 build/us/libultra.a(__osAtomicDec.o)
 .mdebug        0x0000000000000000      0x2d8 build/us/libultra.a(__osAtomicDec.o)

Memory Configuration

Name             Origin             Length             Attributes
*default*        0x0000000000000000 0xffffffffffffffff

Linker script and memory map

                0x0000000080000300                osTvType = 0x80000300
                0x0000000080000308                osRomBase = 0x80000308
                0x000000008000030c                osResetType = 0x8000030c
                0x000000008000031c                osAppNmiBuffer = 0x8000031c
                0x0000000080000400                gZBuffer = 0x80000400
                0x00000000a0000004                D_A0000004 = 0xa0000004
                0x00000000a0000008                D_A0000008 = 0xa0000008
                0x00000000a000000c                D_A000000C = 0xa000000c
                0x00000000a0000014                D_A0000014 = 0xa0000014
                0x00000000a0000018                D_A0000018 = 0xa0000018
                0x00000000a3f00018                D_A3F00018 = 0xa3f00018
                0x00000000a3f00024                D_A3F00024 = 0xa3f00024
                0x00000000a3f80004                D_A3F80004 = 0xa3f80004
                0x00000000a3f80008                D_A3F80008 = 0xa3f80008
                0x00000000a3f8000c                D_A3F8000C = 0xa3f8000c
                0x00000000a3f80014                D_A3F80014 = 0xa3f80014
                0x00000000a40004c0                D_A40004C0 = 0xa40004c0
                0x00000000a4000774                D_A4000774 = 0xa4000774
                0x00000000a4001000                D_A4001000 = 0xa4001000
                0x00000000a4040004                D_A4040004 = 0xa4040004
                0x00000000a4040008                D_A4040008 = 0xa4040008
                0x00000000a404000c                D_A404000C = 0xa404000c
                0x00000000a4040010                D_A4040010 = 0xa4040010
                0x00000000a4300004                D_A4300004 = 0xa4300004
                0x00000000a4300008                D_A4300008 = 0xa4300008
                0x00000000a430000c                D_A430000C = 0xa430000c
                0x00000000a4400004                D_A4400004 = 0xa4400004
                0x00000000a4400008                D_A4400008 = 0xa4400008
                0x00000000a440000c                D_A440000C = 0xa440000c
                0x00000000a4400010                D_A4400010 = 0xa4400010
                0x00000000a4400014                D_A4400014 = 0xa4400014
                0x00000000a4400018                D_A4400018 = 0xa4400018
                0x00000000a440001c                D_A440001C = 0xa440001c
                0x00000000a4400020                D_A4400020 = 0xa4400020
                0x00000000a4400024                D_A4400024 = 0xa4400024
                0x00000000a4400028                D_A4400028 = 0xa4400028
                0x00000000a440002c                D_A440002C = 0xa440002c
                0x00000000a4400030                D_A4400030 = 0xa4400030
                0x00000000a4400034                D_A4400034 = 0xa4400034
                0x00000000a4500004                D_A4500004 = 0xa4500004
                0x00000000a4500008                D_A4500008 = 0xa4500008
                0x00000000a450000c                D_A450000C = 0xa450000c
                0x00000000a4500010                D_A4500010 = 0xa4500010
                0x00000000a4500014                D_A4500014 = 0xa4500014
                0x00000000a4600004                D_A4600004 = 0xa4600004
                0x00000000a4600008                D_A4600008 = 0xa4600008
                0x00000000a460000c                D_A460000C = 0xa460000c
                0x00000000a4600010                D_A4600010 = 0xa4600010
                0x00000000a4700010                D_A4700010 = 0xa4700010
                0x00000000a4800004                D_A4800004 = 0xa4800004
                0x00000000a4800010                D_A4800010 = 0xa4800010
                0x00000000a4800018                D_A4800018 = 0xa4800018
                0x00000000b0000008                D_B0000008 = 0xb0000008
                0x0000000000000010                D_B0000010 = 0x10
                0x00000000b0000014                D_B0000014 = 0xb0000014
                0x00000000c0000008                D_C0000008 = 0xc0000008
                0x00000000c000000c                D_C000000C = 0xc000000c
                0x0000000000000000                __romPos = 0x0
                0x0000000004000000                _bootSegmentStart = ADDR (.boot)
                0x00000000007cc6c0                _bootSegmentRomStart = __romPos

.boot           0x0000000004000000     0x1000 load address 0x0000000000000000
 build/us/asm/rom_header.o(.text)
 .text          0x0000000004000000       0x40 build/us/asm/rom_header.o
 build/us/asm/boot.o(.text)
 .text          0x0000000004000040      0xfc0 build/us/asm/boot.o
                0x0000000004001000                _bootSegmentEnd = (ADDR (.boot) + SIZEOF (.boot))
                0x00000000007cd6c0                _bootSegmentRomEnd = (__romPos + SIZEOF (.boot))
                [0x00000000007cc6c0]                __romPos = (__romPos + SIZEOF (.boot))
                0x0000000080246000                _mainSegmentStart = ADDR (.main)
                0x00000000007cc6c0                _mainSegmentRomStart = __romPos

.main           0x0000000080246000    0xf4580 load address 0x0000000000001000
 build/us/asm/entry.o(.text)
 .text          0x0000000080246000       0x50 build/us/asm/entry.o
                0x0000000080246000                EntryPoint
 build/us/src/game/main.o(.text)
 .text          0x0000000080246050      0xe20 build/us/src/game/main.o
                0x0000000080246050                handle_debug_key_sequences
                0x0000000080246170                Unknown80246170
                0x00000000802461cc                Dummy802461CC
                0x00000000802461dc                Dummy802461DC
                0x00000000802461ec                Dummy802461EC
                0x00000000802461fc                setup_mesg_queues
                0x00000000802462e0                AllocPool
                0x0000000080246338                create_thread
                0x000000008024639c                handle_nmi_request
                0x00000000802463ec                receive_new_tasks
                0x000000008024651c                start_sptask
                0x000000008024659c                interrupt_gfx_sptask
                0x00000000802465ec                start_gfx_sptask
                0x0000000080246648                pretend_audio_sptask_done
                0x000000008024669c                handle_vblank
                0x00000000802467fc                handle_sp_complete
                0x000000008024694c                handle_dp_complete
                0x00000000802469b8                thread3_main
                0x0000000080246b14                set_vblank_handler
                0x0000000080246b74                SendMessage
                0x0000000080246bb4                dispatch_audio_sptask
                0x0000000080246c10                send_display_list
                0x0000000080246c9c                turn_on_audio
                0x0000000080246cb8                turn_off_audio
                0x0000000080246cf0                thread1_idle
                0x0000000080246df8                Main
 build/us/src/game/display.o(.text)
 .text          0x0000000080246e70     0x1370 build/us/src/game/display.o
                0x0000000080246e70                my_rdp_init
                0x00000000802471a4                my_rsp_init
                0x0000000080247284                clear_z_buffer
                0x00000000802473c8                display_frame_buffer
                0x00000000802474b8                clear_frame_buffer
                0x0000000080247620                clear_viewport
                0x000000008024784c                draw_screen_borders
                0x00000000802479bc                make_viewport_clip_rect
                0x0000000080247b3c                create_task_structure
                0x0000000080247ccc                init_render_image
                0x0000000080247d14                end_master_display_list
                0x0000000080247db4                func_80247D84
                0x0000000080247f08                func_80247ED8
                0x0000000080247fdc                func_80247FAC
                0x0000000080248090                display_and_vsync
 build/us/src/game/game.o(.text)
 .text          0x00000000802481e0      0xa60 build/us/src/game/game.o
                0x00000000802481e0                record_demo
                0x0000000080248304                adjust_analog_stick
                0x0000000080248498                run_demo_inputs
                0x0000000080248638                read_controller_inputs
                0x0000000080248824                init_controllers
                0x0000000080248964                setup_game_memory
                0x0000000080248af0                thread5_game_loop
 build/us/src/game/sound_init.o(.text)
 .text          0x0000000080248c40      0x9a0 build/us/src/game/sound_init.o
                0x0000000080248c40                func_80248C10
                0x0000000080248c58                func_80248C28
                0x0000000080248ce8                func_80248CB8
                0x0000000080248d78                func_80248D48
                0x0000000080248dc0                func_80248D90
                0x0000000080248e08                set_sound_mode
                0x0000000080248e54                func_80248E24
                0x0000000080248fec                func_80248FBC
                0x0000000080249070                func_80249040
                0x0000000080249178                func_80249148
                0x000000008024922c                func_802491FC
                0x000000008024927c                func_8024924C
                0x00000000802492d0                func_802492A0
                0x0000000080249310                func_802492E0
                0x000000008024934c                func_8024931C
                0x0000000080249398                func_80249368
                0x0000000080249404                func_802493D4
                0x0000000080249448                func_80249418
                0x0000000080249494                func_80249464
                0x00000000802494d8                func_802494A8
                0x0000000080249500                thread4_sound
 build/us/src/game/level_update.o(.text)
 .text          0x00000000802495e0     0x2a10 build/us/src/game/level_update.o
                0x00000000802495e0                level_control_timer
                0x00000000802496b8                pressed_paused
                0x0000000080249764                set_play_mode
                0x000000008024978c                func_8024975C
                0x00000000802497b8                func_80249788
                0x000000008024982c                nop_802497FC
                0x000000008024983c                func_8024980C
                0x000000008024995c                func_8024992C
                0x0000000080249a10                set_mario_initial_cap_powerup
                0x0000000080249ab4                set_mario_initial_action
                0x0000000080249cd8                init_mario_after_warp
                0x000000008024a124                func_8024A02C
                0x000000008024a18c                func_8024A094
                0x000000008024a1d8                func_8024A0E0
                0x000000008024a374                check_instant_warp
                0x000000008024a584                func_8024A48C
                0x000000008024a700                initiate_warp
                0x000000008024a7b4                get_painting_warp_node
                0x000000008024a85c                initiate_painting_warp
                0x000000008024a9cc                level_trigger_warp
                0x000000008024aedc                initiate_delayed_warp
                0x000000008024b13c                update_hud_values
                0x000000008024b390                basic_update
                0x000000008024b3e4                play_mode_normal
                0x000000008024b5d4                play_mode_paused
                0x000000008024b6cc                play_mode_frame_advance
                0x000000008024b798                level_set_transition
                0x000000008024b7c0                play_mode_change_area
                0x000000008024b880                play_mode_change_level
                0x000000008024b940                play_mode_unused
                0x000000008024b9b8                update_level
                0x000000008024ba8c                init_level
                0x000000008024bcd8                lvl_init_or_update
                0x000000008024bd5c                lvl_init_from_save_file
                0x000000008024be14                lvl_set_current_level
                0x000000008024bfa0                lvl_play_the_end_screen_sound
 build/us/src/game/interaction.o(.text)
 .text          0x000000008024bff0     0x4950 build/us/src/game/interaction.o
                0x000000008024bff0                get_mario_cap_flag
                0x000000008024c0b8                object_facing_mario
                0x000000008024c16c                mario_angle_to_object
                0x000000008024c1d8                determine_interaction
                0x000000008024c51c                attack_object
                0x000000008024c618                mario_stop_riding_object
                0x000000008024c66c                mario_grab_used_object
                0x000000008024c6c0                mario_drop_held_object
                0x000000008024c780                mario_throw_held_object
                0x000000008024c894                mario_stop_riding_and_holding
                0x000000008024c8fc                func_8024C75C
                0x000000008024c928                mario_blow_off_cap
                0x000000008024ca68                mario_lose_cap_to_enemy
                0x000000008024caf8                mario_retrieve_cap
                0x000000008024cb58                able_to_grab_object
                0x000000008024cbfc                mario_get_collided_object
                0x000000008024cc7c                mario_check_object_grab
                0x000000008024ce08                bully_knock_back_mario
                0x000000008024d0b4                bounce_off_object
                0x000000008024d130                hit_object_from_below
                0x000000008024d16c                unused_determine_knockback_action
                0x000000008024d2bc                determine_knockback_action
                0x000000008024d578                push_mario_out_of_object
                0x000000008024d72c                bounce_back_from_attack
                0x000000008024d804                func_8024D664
                0x000000008024d8b0                take_damage_from_interact_object
                0x000000008024d998                take_damage_and_knock_back
                0x000000008024daac                reset_mario_pitch
                0x000000008024db2c                interact_coin
                0x000000008024dbf0                interact_water_ring
                0x000000008024dc28                interact_star_or_key
                0x000000008024de4c                interact_bbh_entrance
                0x000000008024df10                interact_warp
                0x000000008024e0c4                interact_warp_door
                0x000000008024e2fc                get_door_save_file_flag
                0x000000008024e420                interact_door
                0x000000008024e6ec                interact_cannon_base
                0x000000008024e778                interact_igloo_barrier
                0x000000008024e7d4                interact_tornado
                0x000000008024e8f0                interact_whirlpool
                0x000000008024e9d0                interact_wind
                0x000000008024ead8                interact_flame
                0x000000008024ec54                interact_snufit_bullet
                0x000000008024ed84                interact_clam_or_bubba
                0x000000008024ee44                interact_bully
                0x000000008024eff8                interact_shock
                0x000000008024f134                func_8024EF8C
                0x000000008024f170                interact_mr_blizzard
                0x000000008024f1e0                interact_hit_from_below
                0x000000008024f354                interact_bounce_top
                0x000000008024f4ac                interact_unknown_08
                0x000000008024f55c                interact_damage
                0x000000008024f5cc                interact_breakable
                0x000000008024f6a4                interact_koopa_shell
                0x000000008024f7a8                check_object_grab_mario
                0x000000008024f8bc                interact_pole
                0x000000008024fa60                interact_hoot
                0x000000008024fb30                interact_cap
                0x000000008024fd2c                interact_grabbable
                0x000000008024fe6c                func_8024FC94
                0x000000008024ff04                func_8024FD2C
                0x0000000080250098                func_8024FEC0
                0x0000000080250198                interact_text
                0x0000000080250230                check_kick_or_punch_wall
                0x00000000802503f0                mario_process_interactions
                0x00000000802505c8                check_death_barrier
                0x000000008025065c                check_lava_boost
                0x0000000080250724                pss_begin_slide
                0x0000000080250778                pss_end_slide
                0x00000000802507fc                mario_handle_special_floors
 build/us/src/game/mario.o(.text)
 .text          0x0000000080250940     0x4740 build/us/src/game/mario.o
                0x0000000080250940                func_80250770
                0x000000008025097c                func_802507AC
                0x00000000802509b8                set_mario_animation
                0x0000000080250b04                func_80250934
                0x0000000080250c7c                func_80250AAC
                0x0000000080250d38                func_80250B68
                0x0000000080250e54                func_80250C84
                0x0000000080251020                func_80250E50
                0x00000000802510dc                func_80250F0C
                0x0000000080251120                func_80250F50
                0x000000008025118c                func_80250FBC
                0x0000000080251274                func_80251048
                0x0000000080251310                func_802510E4
                0x0000000080251444                func_80251218
                0x00000000802514ac                func_80251280
                0x0000000080251510                func_802512E4
                0x0000000080251574                func_80251348
                0x00000000802515d8                func_802513AC
                0x000000008025163c                func_80251410
                0x0000000080251708                mario_set_forward_vel
                0x000000008025177c                mario_get_floor_class
                0x00000000802518a8                func_8025167C
                0x0000000080251a48                func_8025181C
                0x0000000080251afc                func_802518D0
                0x0000000080251b54                mario_facing_downhill
                0x0000000080251bd4                func_802519A8
                0x0000000080251cfc                mario_floor_is_slope
                0x0000000080251e24                func_80251BF8
                0x0000000080251f24                find_floor_height_relative_polar
                0x0000000080252000                func_80251DD4
                0x00000000802521a0                func_80251F74
                0x000000008025229c                func_80252070
                0x00000000802523c8                func_8025219C
                0x0000000080252460                set_mario_action_airborne
                0x00000000802529e4                set_mario_action_moving
                0x0000000080252bd4                set_mario_action_submerged
                0x0000000080252c18                set_mario_action_cutscene
                0x0000000080252cf4                set_mario_action
                0x0000000080252e5c                func_80252C30
                0x00000000802530a0                func_80252E74
                0x0000000080253178                drop_and_set_mario_action
                0x00000000802531c4                func_80252F98
                0x0000000080253218                func_80252FEC
                0x0000000080253300                func_802530D4
                0x00000000802533e4                func_802531B8
                0x0000000080253488                func_8025325C
                0x0000000080253588                func_8025335C
                0x0000000080253720                func_802534F4
                0x0000000080253838                func_8025360C
                0x000000008025395c                func_80253730
                0x0000000080253a60                func_80253834
                0x0000000080253d58                func_80253B2C
                0x0000000080253ec0                func_80253C94
                0x0000000080254060                func_80253E34
                0x00000000802542b4                func_80254088
                0x0000000080254338                func_8025410C
                0x0000000080254390                func_80254164
                0x00000000802543e8                func_802541BC
                0x0000000080254588                func_8025435C
                0x0000000080254768                Unknown8025453C
                0x0000000080254830                func_80254604
                0x0000000080254b20                func_802548BC
                0x0000000080254f44                func_80254CE0
 build/us/src/game/mario_step.o(.text)
 .text          0x0000000080255080     0x1d80 build/us/src/game/mario_step.o
                0x0000000080255080                zero_80254E20
                0x000000008025509c                nop_80254E3C
                0x00000000802550b0                nop_80254E50
                0x00000000802550c0                transfer_bully_speed
                0x0000000080255238                init_bully_collision_data
                0x00000000802552fc                mario_bonk_reflection
                0x0000000080255414                mario_update_quicksand
                0x0000000080255654                mario_push_off_steep_floor
                0x000000008025570c                mario_update_moving_sand
                0x000000008025580c                mario_update_windy_ground
                0x00000000802559b0                stop_and_set_height_to_floor
                0x0000000080255a34                stationary_ground_step
                0x0000000080255b04                perform_ground_quarter_step
                0x0000000080255d88                perform_ground_step
                0x0000000080255ec4                check_ledge_grab
                0x00000000802560ac                perform_air_quarter_step
                0x00000000802564e0                apply_twirl_gravity
                0x0000000080256584                should_strengthen_gravity_for_jump_ascent
                0x000000008025661c                apply_gravity
                0x00000000802569f8                apply_vertical_wind
                0x0000000080256b24                perform_air_step
                0x0000000080256cd8                set_vel_from_pitch_and_yaw
                0x0000000080256d8c                set_vel_from_yaw
 build/us/src/game/mario_actions_cutscene.o(.text)
 .text          0x0000000080256e00     0x6f70 build/us/src/game/mario_actions_cutscene.o
                0x0000000080256e00                get_credits_str_width
                0x0000000080256e88                print_displaying_credits_entry
                0x0000000080257060                BehEndPeachLoop
                0x00000000802570dc                BehEndToadLoop
                0x0000000080257198                geo_switch_peach_eyes
                0x0000000080257270                Unknown80256FF8
                0x00000000802572b0                get_star_collection_dialogue
                0x000000008025733c                handle_save_menu
                0x0000000080257450                spawn_obj_at_mario_rel_yaw
                0x00000000802574e8                cutscene_take_cap_off
                0x0000000080257548                cutscene_put_cap_on
                0x00000000802575a8                mario_ready_to_speak
                0x0000000080257640                set_mario_npc_dialogue
                0x0000000080257748                act_reading_npc_dialogue
                0x0000000080257980                act_waiting_for_dialogue
                0x0000000080257a0c                act_disappeared
                0x0000000080257ab0                act_reading_automatic_dialogue
                0x0000000080257ce4                act_reading_sign
                0x0000000080257eac                act_debug_free_move
                0x0000000080258184                general_star_dance_handler
                0x0000000080258420                act_star_dance
                0x00000000802584dc                act_star_dance_water
                0x00000000802585c0                act_fall_after_star_grab
                0x00000000802586cc                common_death_handler
                0x0000000080258744                act_standing_death
                0x00000000802587ec                act_electrocution
                0x000000008025883c                act_suffocation
                0x000000008025888c                act_death_on_back
                0x00000000802588f8                act_death_on_stomach
                0x0000000080258964                act_quicksand_death
                0x0000000080258a7c                act_eaten_by_bubba
                0x0000000080258b24                launch_mario_until_land
                0x0000000080258ba8                act_unlocking_key_door
                0x0000000080258dac                act_unlocking_star_door
                0x0000000080258f94                act_entering_star_door
                0x0000000080259264                act_going_through_door
                0x00000000802593cc                act_warp_door_spawn
                0x00000000802594d4                act_emerge_from_pipe
                0x0000000080259608                act_spawn_spin_airborne
                0x0000000080259740                act_spawn_spin_landing
                0x00000000802597ac                act_exit_airborne
                0x0000000080259854                act_falling_exit_airborne
                0x00000000802598d0                act_exit_land_save_dialogue
                0x0000000080259c30                act_death_exit
                0x0000000080259ce8                act_unused_death_exit
                0x0000000080259d74                act_falling_death_exit
                0x0000000080259e00                act_special_exit_airborne
                0x0000000080259ef8                act_special_death_exit
                0x0000000080259fcc                act_spawn_no_spin_airborne
                0x000000008025a040                act_spawn_no_spin_landing
                0x000000008025a0bc                act_bbh_enter_spin
                0x000000008025a494                act_bbh_enter_jump
                0x000000008025a610                act_teleport_fade_out
                0x000000008025a6fc                act_teleport_fade_in
                0x000000008025a858                act_shocked
                0x000000008025a9ac                act_squished
                0x000000008025ae0c                act_putting_on_cap
                0x000000008025aea8                stuck_in_ground_handler
                0x000000008025affc                act_head_stuck_in_ground
                0x000000008025b050                act_butt_stuck_in_ground
                0x000000008025b0a4                act_feet_stuck_in_ground
                0x000000008025b0f8                advance_cutscene_step
                0x000000008025b11c                intro_cutscene_hide_hud_and_mario
                0x000000008025b178                intro_cutscene_peach_lakitu_scene
                0x000000008025b234                intro_cutscene_raise_pipe
                0x000000008025b2ec                intro_cutscene_jump_out_of_pipe
                0x000000008025b404                intro_cutscene_land_outside_pipe
                0x000000008025b454                intro_cutscene_lower_pipe
                0x000000008025b520                intro_cutscene_set_mario_to_idle
                0x000000008025b58c                act_intro_cutscene
                0x000000008025b654                jumbo_star_cutscene_falling
                0x000000008025b760                jumbo_star_cutscene_taking_off
                0x000000008025b9a8                jumbo_star_cutscene_flying
                0x000000008025bbec                act_jumbo_star_cutscene
                0x000000008025bc80                generate_yellow_sparkles
                0x000000008025beb8                func_8025BC14
                0x000000008025bf64                end_peach_cutscene_mario_falling
                0x000000008025c014                end_peach_cutscene_mario_landing
                0x000000008025c0c4                end_peach_cutscene_summon_jumbo_star
                0x000000008025c1c0                end_peach_cutscene_spawn_peach
                0x000000008025c498                end_peach_cutscene_descend_peach
                0x000000008025c600                end_peach_cutscene_run_to_peach
                0x000000008025c6f8                end_peach_cutscene_dialogue_1
                0x000000008025c904                end_peach_cutscene_dialogue_2
                0x000000008025ca48                end_peach_cutscene_kiss_from_peach
                0x000000008025cbdc                end_peach_cutscene_star_dance
                0x000000008025cd6c                end_peach_cutscene_dialogue_3
                0x000000008025cef0                end_peach_cutscene_run_to_castle
                0x000000008025cfe4                end_peach_cutscene_fade_out
                0x000000008025d040                act_end_peach_cutscene
                0x000000008025d1d4                act_credits_cutscene
                0x000000008025d4f0                act_end_waving_cutscene
                0x000000008025d70c                check_for_instant_quicksand
                0x000000008025d798                mario_execute_cutscene_action
 build/us/src/game/mario_actions_automatic.o(.text)
 .text          0x000000008025dd70     0x2b40 build/us/src/game/mario_actions_automatic.o
                0x000000008025dd70                add_tree_leaf_particles
                0x000000008025de1c                play_climbing_sounds
                0x000000008025df04                set_pole_position
                0x000000008025e21c                act_holding_pole
                0x000000008025e5a8                act_climbing_pole
                0x000000008025e7a4                act_grab_pole_slow
                0x000000008025e830                act_grab_pole_fast
                0x000000008025e930                act_top_of_pole_transition
                0x000000008025ea30                act_top_of_pole
                0x000000008025eb50                perform_hanging_step
                0x000000008025ecfc                update_hang_moving
                0x000000008025eed0                update_hang_stationary
                0x000000008025ef58                act_start_hanging
                0x000000008025f0b4                act_hanging
                0x000000008025f1e4                act_hang_moving
                0x000000008025f384                let_go_of_ledge
                0x000000008025f4b4                func_8025F0DC
                0x000000008025f560                func_8025F188
                0x000000008025f644                update_ledge_climb
                0x000000008025f6c0                act_ledge_grab
                0x000000008025f970                act_ledge_climb_slow
                0x000000008025fa64                act_ledge_climb_down
                0x000000008025fae8                act_ledge_climb_fast
                0x000000008025fb90                act_grabbed
                0x000000008025fc6c                act_in_cannon
                0x0000000080260154                act_tornado_twirling
                0x0000000080260568                check_common_automatic_cancels
                0x00000000802605d0                mario_execute_automatic_action
 build/us/src/game/mario_actions_stationary.o(.text)
 .text          0x00000000802608b0     0x35b0 build/us/src/game/mario_actions_stationary.o
                0x00000000802608b0                func_802604E0
                0x0000000080260aac                func_802606DC
                0x0000000080260cb4                act_idle
                0x0000000080260f94                func_80260BC4
                0x0000000080261000                act_start_sleeping
                0x0000000080261268                act_sleeping
                0x00000000802614fc                act_waking_up
                0x000000008026168c                act_shivering
                0x00000000802618d8                act_coughing
                0x00000000802619d0                func_802615C4
                0x0000000080261ad0                func_802616C4
                0x0000000080261bf8                act_standing_against_wall
                0x0000000080261cec                act_in_quicksand
                0x0000000080261db4                act_crouching
                0x0000000080261f70                act_panting
                0x0000000080262080                func_80261C74
                0x000000008026217c                func_80261D70
                0x00000000802621dc                act_braking_stop
                0x00000000802622dc                act_butt_slide_stop
                0x0000000080262398                func_80261F8C
                0x0000000080262490                act_slide_kick_slide_stop
                0x0000000080262530                act_start_crouching
                0x0000000080262650                act_stop_crouching
                0x0000000080262770                act_start_crawling
                0x0000000080262890                act_stop_crawling
                0x0000000080262980                func_80262574
                0x0000000080262bc4                func_802627B8
                0x0000000080262c34                func_80262828
                0x0000000080262d68                act_jump_land_stop
                0x0000000080262dc4                act_double_jump_land_stop
                0x0000000080262e20                act_side_flip_land_stop
                0x0000000080262e94                act_freefall_land_stop
                0x0000000080262ef0                act_triple_jump_land_stop
                0x0000000080262f50                act_backflip_land_stop
                0x0000000080262fec                act_lava_boost_land
                0x000000008026305c                act_long_jump_land_stop
                0x00000000802630f8                func_80262CEC
                0x00000000802631f0                func_80262DE4
                0x00000000802632e8                act_air_throw_land
                0x00000000802633b4                act_twirl_land
                0x000000008026350c                act_ground_pound_land
                0x00000000802635e8                act_first_person
                0x0000000080263784                func_80263378
                0x0000000080263898                mario_execute_stationary_action
 build/us/src/game/mario_actions_moving.o(.text)
 .text          0x0000000080263e60     0x60e0 build/us/src/game/mario_actions_moving.o
                0x0000000080263e60                func_80263A50
                0x0000000080263ee4                func_80263AD4
                0x0000000080264024                func_80263C14
                0x000000008026409c                begin_walking_action
                0x00000000802640fc                check_ledge_climb_down
                0x00000000802642b4                slide_bonk
                0x0000000080264340                set_triple_jump_action
                0x000000008026440c                update_sliding_angle
                0x0000000080264740                update_sliding
                0x0000000080264b54                apply_slope_accel
                0x0000000080264d80                apply_landing_accel
                0x0000000080264e18                update_shell_speed
                0x0000000080265080                apply_slope_decel
                0x00000000802651b0                update_decelerating_speed
                0x0000000080265244                update_walking_speed
                0x0000000080265458                should_begin_sliding
                0x0000000080265514                analog_stick_held_back
                0x0000000080265558                check_ground_dive_or_punch
                0x0000000080265620                begin_braking_action
                0x0000000080265700                func_802652F0
                0x0000000080265b1c                func_8026570C
                0x0000000080265d90                func_80265980
                0x0000000080265df8                func_802659E8
                0x0000000080266038                func_80265C28
                0x00000000802661cc                func_80265DBC
                0x0000000080266354                act_walking
                0x00000000802665b4                act_move_punching
                0x0000000080266734                act_hold_walking
                0x000000008026699c                act_hold_heavy_walking
                0x0000000080266af8                act_turning_around
                0x0000000080266d4c                act_finish_turning_around
                0x0000000080266e48                act_braking
                0x0000000080266fc8                act_decelerating
                0x0000000080267240                act_hold_decelerating
                0x0000000080267504                act_riding_shell_ground
                0x0000000080267728                act_crawling
                0x000000008026795c                act_burning_ground
                0x0000000080267c24                func_80267814
                0x0000000080267ce4                common_slide_action
                0x0000000080267fa4                common_slide_action_with_jump
                0x0000000080268074                act_butt_slide
                0x00000000802680d4                act_hold_butt_slide
                0x0000000080268168                act_crouch_slide
                0x0000000080268338                act_slide_kick_slide
                0x00000000802684ac                stomach_slide_action
                0x00000000802685c0                act_stomach_slide
                0x0000000080268608                act_hold_stomach_slide
                0x0000000080268684                act_dive_slide
                0x00000000802687b8                common_ground_knockback_action
                0x00000000802689f8                act_hard_backward_ground_kb
                0x0000000080268adc                act_hard_forward_ground_kb
                0x0000000080268b64                act_backward_ground_kb
                0x0000000080268bb0                act_forward_ground_kb
                0x0000000080268bfc                act_soft_backward_ground_kb
                0x0000000080268c48                act_soft_forward_ground_kb
                0x0000000080268c94                act_ground_bonk
                0x0000000080268d04                act_death_exit_land
                0x0000000080268dcc                common_landing_action
                0x0000000080268f78                common_landing_cancels
                0x0000000080269108                act_jump_land
                0x0000000080269170                act_freefall_land
                0x00000000802691d8                act_side_flip_land
                0x0000000080269264                act_hold_jump_land
                0x0000000080269300                act_hold_freefall_land
                0x000000008026939c                act_long_jump_land
                0x000000008026947c                act_double_jump_land
                0x00000000802694e4                act_triple_jump_land
                0x0000000080269588                act_backflip_land
                0x0000000080269640                quicksand_jump_land_action
                0x0000000080269788                act_quicksand_jump_land
                0x00000000802697dc                act_hold_quicksand_jump_land
                0x0000000080269830                check_common_moving_cancels
                0x0000000080269954                mario_execute_moving_action
 build/us/src/game/mario_actions_airborne.o(.text)
 .text          0x0000000080269f40     0x61d0 build/us/src/game/mario_actions_airborne.o
                0x0000000080269f40                play_flip_sounds
                0x0000000080269fc0                play_far_fall_sound
                0x000000008026a090                func_u_8026A090
                0x000000008026a12c                lava_boost_on_wall
                0x000000008026a224                check_fall_damage
                0x000000008026a400                check_kick_or_dive_in_air
                0x000000008026a494                should_get_stuck_in_ground
                0x000000008026a598                check_fall_damage_or_get_stuck
                0x000000008026a62c                check_horizontal_wind
                0x000000008026a818                update_air_with_turn
                0x000000008026aa48                update_air_without_turn
                0x000000008026acd8                update_lava_boost_or_twirling
                0x000000008026ae5c                update_flying_yaw
                0x000000008026b004                update_flying_pitch
                0x000000008026b17c                update_flying
                0x000000008026b444                common_air_action_step
                0x000000008026b6a0                act_jump
                0x000000008026b740                act_double_jump
                0x000000008026b814                act_triple_jump
                0x000000008026b90c                act_backflip
                0x000000008026b9ac                act_freefall
                0x000000008026bab8                act_hold_jump
                0x000000008026bbb4                act_hold_freefall
                0x000000008026bcc0                act_side_flip
                0x000000008026bdcc                act_wall_kick_air
                0x000000008026be78                act_long_jump
                0x000000008026bf40                act_riding_shell_air
                0x000000008026c034                act_twirling
                0x000000008026c1e0                act_dive
                0x000000008026c4b8                act_air_throw
                0x000000008026c5d0                act_water_jump
                0x000000008026c738                act_hold_water_jump
                0x000000008026c880                act_steep_jump
                0x000000008026c9fc                act_ground_pound
                0x000000008026cd0c                act_burning_jump
                0x000000008026ce50                act_burning_fall
                0x000000008026cf28                act_crazy_box_bounce
                0x000000008026d1b0                common_air_knockback_step
                0x000000008026d33c                func_8026CDFC
                0x000000008026d3c8                act_backward_air_kb
                0x000000008026d43c                act_forward_air_kb
                0x000000008026d4b0                act_hard_backward_air_kb
                0x000000008026d508                act_hard_forward_air_kb
                0x000000008026d560                act_thrown_backward
                0x000000008026d608                act_thrown_forward
                0x000000008026d6fc                act_soft_bonk
                0x000000008026d770                act_getting_blown
                0x000000008026d988                act_air_hit_wall
                0x000000008026db54                act_forward_rollout
                0x000000008026dcf4                act_backward_rollout
                0x000000008026de98                act_butt_slide_air
                0x000000008026e088                act_hold_butt_slide_air
                0x000000008026e2b4                act_lava_boost
                0x000000008026e59c                act_slide_kick
                0x000000008026e810                act_jump_kick
                0x000000008026e968                act_shot_from_cannon
                0x000000008026ec00                act_flying
                0x000000008026f158                act_riding_hoot
                0x000000008026f2ec                act_flying_triple_jump
                0x000000008026f614                act_top_of_pole_jump
                0x000000008026f660                act_vertical_wind
                0x000000008026f840                act_special_triple_jump
                0x000000008026fa18                check_common_airborne_cancels
                0x000000008026fb04                mario_execute_airborne_action
 build/us/src/game/mario_actions_submerged.o(.text)
 .text          0x0000000080270110     0x4da0 build/us/src/game/mario_actions_submerged.o
                0x0000000080270110                set_swimming_at_surface_particles
                0x00000000802701cc                swimming_near_surface
                0x0000000080270234                get_buoyancy
                0x0000000080270304                perform_water_full_step
                0x0000000080270500                apply_water_current
                0x0000000080270918                perform_water_step
                0x0000000080270a74                func_80270504
                0x0000000080270b4c                stationary_slow_down
                0x0000000080270c94                update_swimming_speed
                0x0000000080270e40                update_swimming_yaw
                0x0000000080270fd8                update_swimming_pitch
                0x00000000802710c4                common_idle_step
                0x00000000802711d4                act_water_idle
                0x00000000802712c0                act_hold_water_idle
                0x00000000802713bc                act_water_action_end
                0x00000000802714a8                act_hold_water_action_end
                0x00000000802715ec                func_8027107C
                0x000000008027163c                func_802710CC
                0x0000000080271704                common_swimming_step
                0x0000000080271918                func_802713A8
                0x000000008027197c                check_water_jump
                0x0000000080271aa0                act_breaststroke
                0x0000000080271d04                act_swimming_end
                0x0000000080271eb4                act_flutter_kick
                0x000000008027202c                act_hold_breaststroke
                0x000000008027226c                act_hold_swimming_end
                0x00000000802723f0                act_hold_flutter_kick
                0x0000000080272548                act_water_shell_swimming
                0x000000008027267c                check_water_grab
                0x0000000080272778                act_water_throw
                0x0000000080272870                act_water_punch
                0x0000000080272a60                common_water_knockback_step
                0x0000000080272b1c                act_backward_water_kb
                0x0000000080272b64                act_forward_water_kb
                0x0000000080272bac                act_water_shocked
                0x0000000080272cbc                act_drowning
                0x0000000080272dc0                act_water_death
                0x0000000080272e3c                act_water_plunge
                0x0000000080273160                act_caught_in_whirlpool
                0x0000000080273518                func_80272FA8
                0x00000000802735a4                play_metal_water_walking_sound
                0x0000000080273618                update_metal_water_walking_speed
                0x00000000802737f4                update_metal_water_jump_speed
                0x0000000080273a2c                act_metal_water_standing
                0x0000000080273bd4                act_hold_metal_water_standing
                0x0000000080273cd0                act_metal_water_walking
                0x0000000080273e74                act_hold_metal_water_walking
                0x0000000080274030                act_metal_water_jump
                0x0000000080274134                act_hold_metal_water_jump
                0x0000000080274268                act_metal_water_falling
                0x0000000080274384                act_hold_metal_water_falling
                0x00000000802744ac                act_metal_water_jump_land
                0x0000000080274580                act_hold_metal_water_jump_land
                0x0000000080274688                act_metal_water_fall_land
                0x000000008027475c                act_hold_metal_water_fall_land
                0x0000000080274864                check_common_submerged_cancels
                0x000000008027499c                mario_execute_submerged_action
 build/us/src/game/mario_actions_object.o(.text)
 .text          0x0000000080274eb0     0x1320 build/us/src/game/mario_actions_object.o
                0x0000000080274eb0                animated_stationary_ground_step
                0x0000000080274f10                mario_update_punch_sequence
                0x0000000080275328                act_punching
                0x000000008027546c                act_picking_up
                0x00000000802755fc                act_dive_picking_up
                0x00000000802756c8                act_placing_down
                0x0000000080275794                act_throwing
                0x00000000802758c0                act_heavy_throw
                0x00000000802759b4                act_stomach_slide_stop
                0x0000000080275a80                act_picking_up_bowser
                0x0000000080275b34                act_holding_bowser
                0x0000000080275e78                act_releasing_bowser
                0x0000000080275f0c                check_common_object_cancels
                0x0000000080275fe0                mario_execute_object_action
 build/us/src/game/level_geo.o(.text)
 .text          0x00000000802761d0      0x2e0 build/us/src/game/level_geo.o
                0x00000000802761d0                geo_exec_level
                0x00000000802763d4                geo_skybox_main
 build/us/src/game/mario_misc.o(.text)
 .text          0x00000000802764b0     0x1a30 build/us/src/game/mario_misc.o
                0x00000000802764b0                Geo18_802764B0
                0x000000008027657c                bhvToadMessage_faded
                0x00000000802765fc                bhvToadMessage_opaque
                0x00000000802766b4                bhvToadMessage_talking
                0x00000000802767b8                bhvToadMessage_opacifying
                0x0000000080276804                bhvToadMessage_fading
                0x000000008027684c                bhvToadMessage_loop
                0x0000000080276910                bhvToadMessage_init
                0x0000000080276aa0                bhvUnlockDoorStar_spawn_particle
                0x0000000080276bb8                bhvUnlockDoorStar_init
                0x0000000080276ccc                bhvUnlockDoorStar_loop
                0x0000000080276f90                func_802769E0
                0x00000000802770a4                Geo18_802770A4
                0x0000000080277150                geo_switch_mario_stand_run
                0x00000000802771bc                geo_switch_mario_eyes
                0x0000000080277294                Geo18_80277294
                0x00000000802773a4                Geo18_802773A4
                0x00000000802774f4                geo_switch_mario_hand
                0x00000000802775cc                Geo18_802775CC
                0x00000000802776d8                geo_switch_mario_cap_effect
                0x0000000080277740                geo_switch_mario_cap_on_off
                0x0000000080277824                Geo18_80277824
                0x000000008027795c                Geo1C_8027795C
                0x0000000080277b14                Geo18_80277B14
                0x0000000080277d6c                Geo18_80277D6C
 build/us/src/game/memory.o(.text)
 .text          0x0000000080277ee0     0x1280 build/us/src/game/memory.o
                0x0000000080277ee0                set_segment_base_addr
                0x0000000080277f20                get_segment_base_addr
                0x0000000080277f50                segmented_to_virtual
                0x0000000080277fa8                virtual_to_segmented
                0x0000000080277ff0                move_segment_table_to_dmem
                0x0000000080278074                main_pool_init
                0x0000000080278120                main_pool_alloc
                0x0000000080278238                main_pool_free
                0x0000000080278358                main_pool_realloc
                0x00000000802783c8                main_pool_available
                0x00000000802783e8                main_pool_push_state
                0x0000000080278498                main_pool_pop_state
                0x0000000080278504                dma_read
                0x0000000080278610                dynamic_dma_read
                0x000000008027868c                load_segment
                0x00000000802786f0                load_to_fixed_pool_addr
                0x00000000802787d8                load_segment_decompress
                0x00000000802788b4                func_80278304
                0x0000000080278974                load_engine_code_segment
                0x0000000080278a14                alloc_only_pool_init
                0x0000000080278ab8                alloc_only_pool_alloc
                0x0000000080278b28                alloc_only_pool_resize
                0x0000000080278b98                mem_pool_init
                0x0000000080278c58                mem_pool_alloc
                0x0000000080278d74                mem_pool_free
                0x0000000080278f2c                alloc_display_list
                0x0000000080278fa0                func_802789F0
                0x0000000080279028                func_80278A78
                0x0000000080279084                func_80278AD4
 build/us/src/game/save_file.o(.text)
 .text          0x0000000080279160     0x1670 build/us/src/game/save_file.o
                0x0000000080279160                no_op
                0x0000000080279174                read_eeprom_data
                0x0000000080279218                write_eeprom_data
                0x00000000802792c0                calc_checksum
                0x0000000080279314                verify_save_block_signature
                0x000000008027939c                add_save_block_signature
                0x00000000802793fc                restore_main_menu_data
                0x00000000802794a0                save_main_menu_data
                0x000000008027951c                wipe_main_menu_data
                0x00000000802795a0                get_coin_score_age
                0x00000000802795d4                set_coin_score_age
                0x0000000080279650                touch_coin_score_age
                0x0000000080279700                touch_high_score_ages
                0x0000000080279748                restore_save_file_data
                0x0000000080279840                save_file_do_save
                0x00000000802798fc                save_file_erase
                0x0000000080279960                save_file_copy
                0x00000000802799dc                save_file_load_all
                0x0000000080279bc8                save_file_reload
                0x0000000080279c44                save_file_collect_star_or_key
                0x0000000080279e44                save_file_exists
                0x0000000080279e80                save_file_get_max_coin_score
                0x0000000080279f80                save_file_get_course_star_count
                0x000000008027a010                save_file_get_total_star_count
                0x000000008027a0a8                save_file_set_flags
                0x000000008027a0f4                save_file_clear_flags
                0x000000008027a16c                save_file_get_flags
                0x000000008027a1c8                save_file_get_star_flags
                0x000000008027a23c                save_file_set_star_flags
                0x000000008027a310                save_file_get_course_coin_score
                0x000000008027a340                save_file_is_cannon_unlocked
                0x000000008027a390                save_file_set_cannon_unlocked
                0x000000008027a418                save_file_set_cap_pos
                0x000000008027a4ac                save_file_get_cap_pos
                0x000000008027a564                save_file_set_sound_mode
                0x000000008027a5b4                save_file_get_sound_mode
                0x000000008027a5d4                save_file_move_cap_to_default_location
                0x000000008027a698                disable_warp_checkpoint
                0x000000008027a6b0                check_if_should_set_warp_checkpoint
                0x000000008027a718                check_warp_checkpoint
 build/us/src/game/area.o(.text)
 .text          0x000000008027a7d0      0xef0 build/us/src/game/area.o
                0x000000008027a7d0                func_8027A220
                0x000000008027a83c                set_warp_transition_rgb
                0x000000008027a8b0                print_intro_text
                0x000000008027a93c                get_mario_spawn_type
                0x000000008027a9c8                area_get_warp_node
                0x000000008027aa28                func_8027A478
                0x000000008027aa74                func_8027A4C4
                0x000000008027ab04                clear_areas
                0x000000008027ad74                func_8027A7C4
                0x000000008027ae44                load_area
                0x000000008027af48                func_8027A998
                0x000000008027afbc                load_mario_area
                0x000000008027b038                func_8027AA88
                0x000000008027b0c0                change_area
                0x000000008027b164                area_update_objects
                0x000000008027b1a0                play_transition
                0x000000008027b35c                play_transition_after_delay
                0x000000008027b3b4                render_game
 build/us/src/game/rendering_graph_node.o(.text)
 .text          0x000000008027b6c0     0x2d20 build/us/src/game/rendering_graph_node.o
                0x000000008027b6c0                func_8027B110
                0x000000008027b904                func_8027B354
                0x000000008027ba00                func_8027B450
                0x000000008027ba98                func_8027B4E8
                0x000000008027bc74                func_8027B6C4
                0x000000008027bdf0                func_8027B840
                0x000000008027be84                func_8027B8D4
                0x000000008027bf58                func_8027B9A8
                0x000000008027c114                func_8027BB64
                0x000000008027c238                func_8027BC88
                0x000000008027c35c                func_8027BDAC
                0x000000008027c474                func_8027BEC4
                0x000000008027c594                func_8027BFE4
                0x000000008027c73c                func_8027C18C
                0x000000008027c7a4                func_8027C1F4
                0x000000008027c858                func_8027C2A8
                0x000000008027ca70                func_8027C4C0
                0x000000008027cf38                func_8027C988
                0x000000008027d0b8                func_8027CB08
                0x000000008027d518                func_8027CF68
                0x000000008027d6fc                func_8027D14C
                0x000000008027da10                func_8027D460
                0x000000008027da84                func_8027D4D4
                0x000000008027de68                func_8027D8B8
                0x000000008027dea8                func_8027D8F8
                0x000000008027e130                func_8027DB80
 build/us/src/game/profiler.o(.text)
 .text          0x000000008027e3e0     0x1100 build/us/src/game/profiler.o
                0x000000008027e3e0                profiler_log_thread5_time
                0x000000008027e490                profiler_log_thread4_time
                0x000000008027e520                profiler_log_gfx_time
                0x000000008027e5cc                profiler_log_vblank_time
                0x000000008027e65c                draw_profiler_bar
                0x000000008027e958                draw_reference_profiler_bars
                0x000000008027ebcc                draw_profiler_mode_1
                0x000000008027eeac                draw_profiler_mode_0
                0x000000008027f460                draw_profiler
 build/us/asm/decompress.o(.text)
 .text          0x000000008027f4e0       0xb0 build/us/asm/decompress.o
                0x000000008027f4e0                decompress
 build/us/src/game/camera.o(.text)
 .text          0x000000008027f590    0x1d1e0 build/us/src/game/camera.o
                0x000000008027f590                set_camera_shake
                0x000000008027f8b8                set_camera_shake_2
                0x000000008027f9f0                func_8027F440
                0x000000008027fb74                unused_set_camera_shake
                0x000000008027fc18                func_8027F668
                0x000000008027fe20                copy_mario_position_shifted_up
                0x000000008027ff00                unused_8027F950
                0x000000008027fff8                func_8027FA48
                0x0000000080280368                func_8027FDB8
                0x00000000802804f4                func_8027FF44
                0x00000000802806a4                find_in_bounds_yaw_wdw_bob_thi
                0x0000000080280810                CameraChange01
                0x0000000080280970                CameraChange0E
                0x0000000080280b00                func_80280550
                0x0000000080281188                func_80280BD8
                0x00000000802813bc                func_80280E0C
                0x00000000802813ec                func_80280E3C
                0x000000008028146c                func_80280EBC
                0x0000000080281588                update_bowser_level_camera
                0x00000000802816a0                CameraChange02
                0x00000000802817fc                func_8028124C
                0x0000000080281904                CameraChange0C
                0x0000000080282280                CameraChange0D
                0x00000000802826a0                CameraChange0B
                0x0000000080282c0c                CameraChange05
                0x0000000080282c28                unused_80282678
                0x0000000080282c3c                func_8028268C
                0x0000000080282c7c                func_802826CC
                0x0000000080282ce0                func_80282730
                0x0000000080282d78                CameraChange03
                0x0000000080283340                func_80282D90
                0x0000000080283578                func_80282FC8
                0x00000000802839e4                update_behind_mario_camera
                0x0000000080283a18                camera_change_nop
                0x0000000080283a34                update_water_surface_camera
                0x0000000080283a68                CameraChange040710
                0x0000000080283af8                func_80283548
                0x0000000080284cb8                func_80284708
                0x0000000080284cfc                camera_lakitu_zoom_distance
                0x0000000080284d38                camera_mario_zoom_distance
                0x0000000080284d74                CameraChange11
                0x00000000802850ac                func_80284AFC
                0x00000000802850ec                CameraChange090F
                0x000000008028517c                unused_80284BCC
                0x00000000802851dc                func_80284C2C
                0x000000008028526c                func_80284CBC
                0x00000000802852f4                func_80284D44
                0x0000000080285370                exit_c_up_mode
                0x0000000080285808                CameraChange06
                0x00000000802858a4                func_802852F4
                0x0000000080285a2c                func_8028547C
                0x0000000080285d20                update_c_up_camera
                0x0000000080285ed8                CameraChange0A
                0x0000000080285f60                update_cannon_camera
                0x000000008028603c                func_80285A8C
                0x0000000080286088                set_camera_preset
                0x0000000080286188                func_80285BD8
                0x0000000080286420                func_80285E70
                0x00000000802868f8                update_camera
                0x0000000080286f68                reset_camera
                0x000000008028724c                init_camera
                0x00000000802879ec                func_80287404
                0x0000000080287bc4                select_mario_cam_mode
                0x0000000080287be0                func_802875F8
                0x0000000080287cb8                func_802876D0
                0x0000000080287d30                Geo0F_80287D30
                0x0000000080287dc0                dummy_802877D8
                0x0000000080287dd4                dummy_802877EC
                0x0000000080287de8                vec3f_sub
                0x0000000080287e28                object_pos_to_vec3f
                0x0000000080287e50                vec3f_to_object_pos
                0x0000000080287e78                unused_object_angle_to_vec3s
                0x0000000080287ea0                func_802878B8
                0x00000000802882e4                func_80287CFC
                0x0000000080288624                select_or_activate_mario_cam
                0x0000000080288718                test_or_set_mario_cam_active
                0x0000000080288888                func_802882A0
                0x00000000802889b0                func_802883C8
                0x0000000080288ce4                find_c_buttons_pressed
                0x0000000080288e68                update_camera_status
                0x0000000080288f5c                find_and_return_count_wall_collisions
                0x0000000080289198                vec3f_compare
                0x0000000080289214                vec3f_rotate_into_yaw_range
                0x00000000802892d8                is_within_100_units_of_mario
                0x000000008028935c                func_80288D74
                0x00000000802893f4                approach_f32_exponential_bool
                0x0000000080289488                approach_f32_exponential
                0x00000000802894b4                approach_s16_exponential_bool
                0x000000008028956c                approach_s16_exponential
                0x0000000080289610                approach_vec3f_exponential
                0x0000000080289684                func_8028909C
                0x00000000802896f8                approach_vec3s_exponential
                0x000000008028976c                camera_approach_s16_symmetric_bool
                0x000000008028984c                camera_approach_s16_symmetric
                0x000000008028993c                func_80289354
                0x00000000802899cc                camera_approach_f32_symmetric_bool
                0x0000000080289b0c                camera_approach_f32_symmetric
                0x0000000080289c00                func_80289618
                0x0000000080289d20                func_80289738
                0x0000000080289f88                clamp_positions_and_find_yaw_angle
                0x000000008028a080                func_80289A98
                0x000000008028a0f4                is_pos_less_than_bounds
                0x000000008028a4ec                is_behind_surface
                0x000000008028a6bc                func_8028A0D4
                0x000000008028a7ec                is_mario_behind_surface
                0x000000008028a834                scale_along_line
                0x000000008028a8e8                check_if_vector_fits_in_bounds
                0x000000008028aa28                calculate_verticle_angle
                0x000000008028aad8                calculate_yaw
                0x000000008028ab60                calculate_angles
                0x000000008028ac28                calc_abs_dist
                0x000000008028accc                calc_hor_dist
                0x000000008028ad4c                rotate_in_xz
                0x000000008028ae1c                rotate_in_yz
                0x000000008028aef0                set_camera_pitch_shake
                0x000000008028af4c                set_camera_yaw_shake
                0x000000008028b00c                set_camera_roll_shake
                0x000000008028b068                func_8028AA80
                0x000000008028b11c                Unknown8028AB34
                0x000000008028b1d0                func_8028ABE8
                0x000000008028b218                func_8028AC30
                0x000000008028b32c                func_8028AD44
                0x000000008028b438                func_8028AE50
                0x000000008028b50c                func_8028AF24
                0x000000008028b724                func_8028B13C
                0x000000008028b754                func_8028B16C
                0x000000008028b784                play_camera_buzz_if_cdown
                0x000000008028b7c4                play_camera_buzz_if_cbutton
                0x000000008028b804                play_camera_buzz_if_c_sideways
                0x000000008028b850                play_sound_cbutton_up
                0x000000008028b884                play_sound_cbutton_down
                0x000000008028b8b8                play_sound_cbutton_side
                0x000000008028b8ec                play_sound_button_change_blocked
                0x000000008028b920                play_sound_rbutton_changed
                0x000000008028b954                func_8028B36C
                0x000000008028b9c4                func_8028B3DC
                0x000000008028bd34                stop_mario
                0x000000008028bd98                func_8028B7A4
                0x000000008028c038                func_8028BA38
                0x000000008028c13c                set_camera_cutscene_table
                0x000000008028c18c                determine_star_fadeout_cutscene_table
                0x000000008028c26c                return_table_door_push_or_pull
                0x000000008028c2c8                return_cutscene_table
                0x000000008028c7a0                func_8028C1A0
                0x000000008028c8f0                func_8028C2F0
                0x000000008028c9ac                Unknown8028C3AC
                0x000000008028c9cc                func_8028C3CC
                0x000000008028cb08                unused_8028C508
                0x000000008028cbf0                func_8028C5F0
                0x000000008028cd94                func_8028C794
                0x000000008028cdec                determine_pushing_or_pulling_door
                0x000000008028ce24                func_8028C824
                0x000000008028d41c                Unknown8028CE1C
                0x000000008028d44c                set_camera_preset_fixed_ref_point
                0x000000008028d5ac                set_camera_preset_bowser_level
                0x000000008028d5fc                set_camera_preset_boss_fight
                0x000000008028d658                set_camera_preset_close_cam
                0x000000008028d698                set_camera_preset_open_camera
                0x000000008028d79c                parallel_tracking_init
                0x000000008028d888                func_8028D288
                0x000000008028d92c                func_8028D32C
                0x000000008028da18                CameraRR00
                0x000000008028da50                CameraRR04
                0x000000008028daec                CameraRR02
                0x000000008028db38                CameraRR0305
                0x000000008028dbb4                CameraRR01
                0x000000008028dbf4                CameraCotMC00
                0x000000008028dc1c                CameraSL00
                0x000000008028dc70                CameraSL01
                0x000000008028dca4                func_8028D6A4
                0x000000008028dd48                CameraHMC00
                0x000000008028de2c                CameraHMC02
                0x000000008028de5c                CameraHMC03
                0x000000008028de90                CameraHMC04
                0x000000008028dec4                CameraHMC05
                0x000000008028def8                CameraSSL00
                0x000000008028df24                CameraSSL0102
                0x000000008028df6c                CameraSSL03
                0x000000008028dfb4                CameraTHI00
                0x000000008028dfe8                CameraTHI01
                0x000000008028e01c                CameraRR07
                0x000000008028e064                CameraRR08
                0x000000008028e098                CameraHMC01
                0x000000008028e0ec                CameraInside20
                0x000000008028e164                CameraInside1E
                0x000000008028e210                CameraInside1F
                0x000000008028e298                CameraInside01
                0x000000008028e300                CameraInside1213
                0x000000008028e334                CameraUnused
                0x000000008028e38c                CameraInside00
                0x000000008028e3b8                CameraInside0E
                0x000000008028e3f0                CameraInside0F
                0x000000008028e41c                bbh_room_6_camera
                0x000000008028e450                CameraBBH24
                0x000000008028e47c                CameraBBH2E2F
                0x000000008028e524                bbh_room_1_camera
                0x000000008028e55c                CameraBBH01
                0x000000008028e594                bbh_room_2_lower_camera
                0x000000008028e5cc                bbh_room_4_camera
                0x000000008028e604                bbh_room_8_camera
                0x000000008028e63c                bbh_room_5_library_camera
                0x000000008028e674                bbh_room_5_library_to_hidden_transition
                0x000000008028e6c4                bbh_room_5_hidden_to_library_transition
                0x000000008028e714                bbh_room_5_hidden_camera
                0x000000008028e758                bbh_room_3_camera
                0x000000008028e790                bbh_room_7_mr_i_camera
                0x000000008028e7c8                bbh_room_7_mr_i_to_coffins_transition
                0x000000008028e818                bbh_room_7_coffins_to_mr_i_transition
                0x000000008028e868                CameraBBH3033
                0x000000008028e8a0                CameraBBH34
                0x000000008028e8cc                CameraBBH38
                0x000000008028e930                bbh_room_12_upper_camera
                0x000000008028e974                CameraBBH00
                0x000000008028e9a0                bbh_room_2_library_camera
                0x000000008028e9d8                bbh_room_2_library_to_trapdoor_transition
                0x000000008028ea28                bbh_room_2_trapdoor_camera
                0x000000008028ea60                bbh_room_2_trapdoor_transition
                0x000000008028eab0                bbh_room_9_attic_camera
                0x000000008028eae8                bbh_room_9_attic_transition
                0x000000008028eb38                bbh_room_9_mr_i_transition
                0x000000008028eb88                bbh_room_13_balcony_camera
                0x000000008028ebc0                bbh_room_0_camera
                0x000000008028ec04                CameraCCM00
                0x000000008028ec2c                CameraCCM01
                0x000000008028ec58                func_8028E634
                0x000000008028ed30                func_8028E70C
                0x000000008028ed98                func_8028E774
                0x000000008028eeb0                func_8028E88C
                0x000000008028f670                resolve_geometry_collisions
                0x000000008028f914                func_8028F2F0
                0x000000008028fc9c                find_mario_relative_geometry
                0x000000008028fe24                func_8028F800
                0x000000008028fe58                func_8028F834
                0x000000008028fe84                unused_8028F860
                0x000000008028ff04                func_8028F8E0
                0x000000008028ffc8                func_8028F9A4
                0x000000008029000c                func_8028F9E8
                0x0000000080290098                func_8028FA74
                0x00000000802900e0                func_8028FABC
                0x0000000080290104                func_8028FAE0
                0x0000000080290168                cap_switch_save
                0x00000000802901a4                func_8028FB80
                0x00000000802901fc                func_8028FBD8
                0x00000000802903b8                func_8028FD94
                0x000000008029040c                unused_8028FDE8
                0x0000000080290440                Cutscene26Todo0
                0x0000000080290474                unused_8028FE50
                0x00000000802904a8                CutsceneIntroPeach0_2
                0x00000000802904e4                CutsceneIntroPeach2_1
                0x000000008029051c                func_8028FEDC
                0x000000008029053c                move_credits_camera
                0x0000000080290784                func_80290144
                0x00000000802907f4                func_802901B4
                0x0000000080290864                func_80290224
                0x00000000802908e8                func_802902A8
                0x0000000080290938                unused_vec3s_to_vec3f
                0x0000000080290984                unused_vec3f_to_vec3s
                0x00000000802909d0                func_80290390
                0x0000000080290a5c                CutsceneEnterSomething8029041C
                0x0000000080290a90                unused_80290450
                0x0000000080290abc                func_8029047C
                0x0000000080290b54                func_80290514
                0x0000000080290ba4                func_80290564
                0x0000000080290bd8                func_80290598
                0x0000000080290c08                unused_802905C8
                0x0000000080290c1c                Cutscene0FTodo0
                0x0000000080290c30                Cutscene0FTodo1
                0x0000000080290c44                CutscenePeachEnd0_1
                0x0000000080290c9c                CutscenePeachEnd0_2
                0x0000000080290d90                CutscenePeachEnd0
                0x0000000080290e00                CutscenePeachEnd2
                0x0000000080290e74                CutscenePeachEndCommon367A
                0x0000000080290eb0                CutscenePeachEnd3_1
                0x0000000080290f1c                CutscenePeachEnd3
                0x0000000080290f8c                CutscenePeachEnd1
                0x0000000080291074                CutscenePeachEnd4_1
                0x0000000080291108                CutscenePeachEnd4
                0x00000000802911c8                CutscenePeachEnd5_1
                0x0000000080291208                CutscenePeachEnd5_2
                0x000000008029127c                CutscenePeachEnd5_3
                0x00000000802912b8                CutscenePeachEnd5_4
                0x0000000080291354                CutscenePeachEnd5
                0x000000008029142c                CutscenePeachEnd6
                0x00000000802914cc                CutscenePeachEnd7_1
                0x0000000080291514                CutscenePeachEnd7
                0x00000000802915d4                CutscenePeachEnd8
                0x0000000080291654                CutscenePeachEnd9_1
                0x00000000802916b8                CutscenePeachEnd9_2
                0x0000000080291774                CutscenePeachEnd9
                0x00000000802917e4                CutscenePeachEndA_1
                0x000000008029184c                CutscenePeachEndA_2
                0x0000000080291870                CutscenePeachEndA
                0x0000000080291924                CutscenePeachEndB
                0x0000000080291964                CutsceneGrandStar0_1
                0x00000000802919dc                CutsceneGrandStar0_2
                0x0000000080291ab4                CutsceneGrandStar0_4
                0x0000000080291b18                CutsceneGrandStar0_5
                0x0000000080291b68                CutsceneGrandStar0_6
                0x0000000080291bf4                CutsceneGrandStar0_7
                0x0000000080291c3c                CutsceneGrandStar0_3
                0x0000000080291cd0                CutsceneGrandStar0
                0x0000000080291db0                CutsceneGrandStar1_1
                0x0000000080291e84                CutsceneGrandStar1_2
                0x0000000080291f18                CutsceneGrandStar1_3
                0x0000000080292038                CutsceneGrandStar1_4
                0x0000000080292164                CutsceneGrandStar1
                0x00000000802921fc                func_80291BBC
                0x000000008029228c                CutsceneDanceCommon
                0x0000000080292324                CutsceneStarDance1_4
                0x0000000080292370                CutsceneStarDance1_5
                0x00000000802923b8                CutsceneStarDance1_6
                0x0000000080292400                dummy_80291DC0
                0x0000000080292414                CutsceneStarDance1_1
                0x000000008029244c                CutsceneStarDance1_3
                0x0000000080292484                CutsceneStarDance1_2
                0x00000000802924b8                CutsceneStarDance1
                0x0000000080292628                func_80291FE8
                0x00000000802926dc                CutsceneStarDance3_1
                0x00000000802927d0                CutsceneStarDance3_2
                0x0000000080292868                CutsceneStarDance3_3
                0x0000000080292974                CutsceneStarDance3_4
                0x0000000080292a20                CutsceneStarDance3_5
                0x0000000080292a4c                CutsceneStarDance3_6
                0x0000000080292a80                CutsceneStarDance3
                0x0000000080292c00                CutsceneStarDance2_1
                0x0000000080292d80                CutsceneStarDance2_3
                0x0000000080292e2c                CutsceneStarDance2_2
                0x0000000080292ec4                func_80292884
                0x0000000080292f40                CutsceneStarDance2_4
                0x0000000080292f98                CutsceneStarDance2_5
                0x0000000080292fe4                CutsceneStarDance2_6
                0x0000000080293018                CutsceneStarDance2
                0x00000000802930f0                CutsceneKeyDance0_6
                0x0000000080293164                CutsceneKeyDance0_2
                0x00000000802931c0                CutsceneKeyDance0_3
                0x0000000080293220                CutsceneKeyDance0_4
                0x000000008029328c                CutsceneKeyDance0_5
                0x00000000802932f4                CutsceneKeyDance0_7
                0x0000000080293328                CutsceneKeyDance0_8
                0x0000000080293354                CutsceneKeyDance0_1
                0x000000008029338c                CutsceneKeyDance0
                0x0000000080293488                CutsceneEnterBowserPlatform0_4
                0x00000000802934b4                CutsceneEnterBowserPlatform0_3
                0x00000000802934d8                CutsceneEnterBowserPlatform0_5
                0x0000000080293548                CutsceneEnterBowserPlatform0_8
                0x00000000802935e0                CutsceneEnterBowserPlatform0_9
                0x0000000080293624                CutsceneEnterBowserPlatform0_7
                0x000000008029369c                CutsceneEnterBowserPlatform0_6
                0x00000000802936dc                CutsceneEnterBowserPlatform0_1
                0x0000000080293708                func_802930C8
                0x0000000080293734                CutsceneEnterBowserPlatform0_2
                0x00000000802937e8                bowser_fight_intro_dialogue
                0x000000008029386c                CutsceneEnterBowserPlatform1
                0x00000000802938c8                CutsceneEnterBowserPlatform2
                0x0000000080293944                CutsceneEnterBowserPlatform0
                0x0000000080293abc                CutsceneStarSpawn0_1
                0x0000000080293ae8                CutsceneStarSpawn0_2
                0x0000000080293b70                CutsceneStarSpawn1_1
                0x0000000080293bf4                CutsceneStarSpawn1_2
                0x0000000080293c2c                CutsceneStarSpawn0
                0x0000000080293cb0                CutsceneStarSpawn1
                0x0000000080293d5c                CutsceneStarSpawn2
                0x0000000080293d90                CutsceneExitWaterfall0_1
                0x0000000080293dd4                Cutscene80293794
                0x0000000080293e7c                CutsceneExitWaterfall0
                0x0000000080293ed8                CutsceneFallCommon1
                0x0000000080293f2c                CutsceneFallToCastleGrounds0_1
                0x0000000080293f70                CutsceneFallToCastleGrounds0
                0x0000000080293fcc                CutsceneSpecialStarSpawn0_1
                0x0000000080294024                CutsceneSpecialStarSpawn0_3
                0x0000000080294088                CutsceneSpecialStarSpawn0_4
                0x00000000802940cc                CutsceneSpecialStarSpawn0_5
                0x000000008029410c                CutsceneSpecialStarSpawn0_2
                0x00000000802942cc                CutsceneSpecialStarSpawn0_6
                0x00000000802942f0                CutsceneSpecialStarSpawn0
                0x00000000802943d4                CutsceneSpecialStarSpawn1
                0x0000000080294428                func_80293DE8
                0x0000000080294718                CutscenePrepareCannon0_1
                0x00000000802947a4                CutscenePrepareCannon0_2
                0x000000008029480c                func_802941CC
                0x00000000802948a0                CutscenePrepareCannon0_3
                0x0000000080294a14                CutscenePrepareCannon0
                0x0000000080294a94                CutscenePrepareCannon1
                0x0000000080294ae8                func_802944A8
                0x0000000080294b78                func_80294538
                0x0000000080294bb4                CutsceneDeath1_1
                0x0000000080294c28                CutsceneDeath1_2
                0x0000000080294c5c                CutsceneDeath1
                0x0000000080294cc4                CutsceneDeath2_1
                0x0000000080294d48                CutsceneDeath2_2
                0x0000000080294d88                unused_80294748
                0x0000000080294db4                CutsceneDeath2
                0x0000000080294e24                CutsceneBBHDeath0_1
                0x0000000080294ea8                CutsceneBBHDeath0_2
                0x0000000080294ee8                CutsceneBBHDeath0
                0x0000000080294f58                CutsceneQuicksandDeath0_1
                0x0000000080294f94                CutsceneQuicksandDeath0_2
                0x0000000080294fec                CutsceneQuicksandDeath0
                0x00000000802950b0                Cutscene1ATodo0_3
                0x0000000080295140                Cutscene1ATodo0_2
                0x00000000802951f0                Cutscene1ATodo0_1
                0x0000000080295270                Cutscene1ATodo0
                0x0000000080295310                CutsceneEnterPool0_1
                0x00000000802953dc                CutsceneEnterPool0_2
                0x0000000080295418                CutsceneEnterPool0
                0x0000000080295480                Cutscene26Todo1_1
                0x00000000802954ec                Cutscene26Todo1_5
                0x0000000080295518                Cutscene26Todo1_2
                0x0000000080295580                Cutscene26Todo1_3
                0x0000000080295670                Cutscene26Todo1_4
                0x0000000080295740                Cutscene26Todo1_7
                0x000000008029576c                Cutscene26Todo1_6
                0x00000000802957c8                Cutscene26Todo1
                0x0000000080295894                Cutscene26Todo2
                0x00000000802958d4                CutsceneEnterPyramidTop0_1
                0x0000000080295930                CutsceneEnterPyramidTop0
                0x00000000802959cc                unused_8029538C
                0x0000000080295a58                CutsceneDialog0_1
                0x0000000080295bf0                CutsceneDialog0_2
                0x0000000080295e24                CutsceneDialog0_3
                0x0000000080295e8c                CutsceneDialog0
                0x0000000080295fb0                CutsceneDialog1
                0x0000000080295fd8                CutsceneDialog2
                0x0000000080296020                CutsceneReadMessage0_1
                0x00000000802960b0                unused_80295A28
                0x0000000080296160                CutsceneReadMessage0
                0x00000000802962c8                CutsceneReadMessage1
                0x00000000802962f0                CutsceneReadMessage2
                0x0000000080296318                CutsceneExitSuccess1
                0x00000000802963b8                CutsceneExitSuccess2
                0x000000008029652c                CutsceneExitSuccess4
                0x000000008029665c                CutsceneExitSuccess3
                0x000000008029669c                CutsceneExitBowserSuccess0_1
                0x00000000802966e4                CutsceneExitSuccess5
                0x0000000080296710                CutsceneExitBowserSuccess0
                0x00000000802967c4                CutsceneExitNonPainting1
                0x000000008029685c                CutsceneBBHExitSuccess0_1
                0x00000000802968a0                CutsceneBBHExitSuccess0
                0x000000008029695c                CutsceneNonPaintingDeath0_1
                0x00000000802969f8                Cutscene1CTodo_0
                0x0000000080296a64                CutsceneNonPaintingDeath0_2
                0x0000000080296b30                CutsceneNonPaintingDeath0
                0x0000000080296bc8                CutsceneCapSwitchPress0_1
                0x0000000080296c4c                CutsceneCapSwitchPress0_4
                0x0000000080296d60                CutsceneCapSwitchPress0_5
                0x0000000080296da8                CutsceneCapSwitchPress0_2
                0x0000000080296eb4                CutsceneCapSwitchPress0_3
                0x0000000080296f38                CutsceneCapSwitchPress0_6
                0x0000000080296f70                unused_802968E8
                0x0000000080296fa8                CutsceneCapSwitchPress0
                0x0000000080297148                CutsceneUnlockKeyDoor0_1
                0x000000008029720c                CutsceneUnlockKeyDoor0_2
                0x0000000080297290                CutsceneUnlockKeyDoor0_5
                0x00000000802972ec                CutsceneUnlockKeyDoor0_6
                0x0000000080297300                CutsceneUnlockKeyDoor0_3
                0x0000000080297384                CutsceneUnlockKeyDoor0_4
                0x00000000802973b0                CutsceneUnlockKeyDoor0
                0x0000000080297464                func_80296DDC
                0x0000000080297560                peach_letter_text
                0x000000008029758c                play_sound_peach_reading_letter
                0x00000000802975c4                CutsceneIntroPeachCommon
                0x000000008029762c                CutsceneIntroPeach4
                0x00000000802976bc                CutsceneIntroPeach3_2
                0x0000000080297728                CutsceneIntroPeach2_2
                0x0000000080297748                CutsceneIntroPeach0_1
                0x0000000080297784                CutsceneIntroPeach3_1
                0x00000000802977c8                CutsceneIntroPeach3_3
                0x00000000802977f4                intro_pipe_exit_text
                0x0000000080297820                play_sound_intro_turn_on_hud
                0x000000008029784c                CutsceneIntroPeach2
                0x0000000080297908                CutsceneIntroPeach3
                0x0000000080297a38                CutsceneIntroPeach1
                0x0000000080297a64                CutsceneIntroPeach0
                0x0000000080297b58                CutsceneEndWaving0_1
                0x0000000080297b84                CutsceneEndWaving0
                0x0000000080297c14                CutsceneCredits0_1
                0x0000000080297c40                CutsceneCredits0
                0x00000000802980dc                CutsceneSlidingDoorsOpen0_1
                0x000000008029819c                CutsceneSlidingDoorsOpen0_2
                0x0000000080298218                CutsceneSlidingDoorsOpen0_3
                0x0000000080298254                CutsceneSlidingDoorsOpen0_4
                0x0000000080298290                CutsceneSlidingDoorsOpen0_5
                0x00000000802983b4                CutsceneSlidingDoorsOpen0
                0x0000000080298458                CutsceneDoubleDoorsOpen1
                0x00000000802984a0                CutsceneEnterPainting0_1
                0x00000000802984b4                CutsceneEnterPainting0
                0x00000000802987b0                CutsceneExitPainting80298094
                0x000000008029894c                CutsceneExitPainting80298230
                0x00000000802989e8                CutsceneExitPainting802982CC
                0x0000000080298af8                CutsceneExitPainting0
                0x0000000080298ba0                Cutscene11Todo_0
                0x0000000080298c2c                Cutscene11Todo_1
                0x0000000080298ccc                CutsceneExitPainting1
                0x0000000080298d44                CutsceneEnterCannon2
                0x0000000080298d9c                CutsceneEnterCannon1
                0x0000000080298fe8                CutsceneEnterCannon0
                0x0000000080299100                CutsceneDoor0
                0x0000000080299154                CutsceneDoor1
                0x00000000802991a8                CutsceneDoorWarp1
                0x00000000802991f0                CutsceneDoor2
                0x00000000802992cc                CutsceneDoor3
                0x0000000080299360                CutsceneDoor4
                0x0000000080299404                CutsceneDoorAB_2
                0x00000000802994e8                handle_cutscenes
                0x000000008029a2f8                call_cutscene_func_in_time_range
                0x000000008029a37c                func_80299C60
                0x000000008029a3b4                func_80299C98
                0x000000008029a41c                func_80299D00
                0x000000008029a4d0                func_80299DB4
                0x000000008029a5bc                unused_80299EA0
                0x000000008029a5e8                set_fov_30
                0x000000008029a60c                approach_fov_20
                0x000000008029a64c                set_fov_45
                0x000000008029a670                set_fov_29
                0x000000008029a694                zoom_fov_30
                0x000000008029a6f4                zoom_fov_for_sleep
                0x000000008029a81c                unused_8029A100
                0x000000008029a858                approach_fov_30
                0x000000008029a894                approach_fov_60
                0x000000008029a8d0                approach_fov_45
                0x000000008029a968                approach_fov_80
                0x000000008029a9a4                func_8029A288
                0x000000008029aa3c                Geo0A_8029AA3C
                0x000000008029ab94                set_fov_function
                0x000000008029abb0                func_8029A494
                0x000000008029ac30                func_8029A514
                0x000000008029ad80                unused_8029A664
                0x000000008029ae40                unused_8029A724
                0x000000008029aef8                func_8029A7DC
                0x000000008029af98                func_8029A87C
                0x000000008029b08c                BehBeginningPeachLoop
                0x000000008029b28c                func_8029AB70
                0x000000008029b358                func_8029AC3C
                0x000000008029b3c8                func_8029ACAC
                0x000000008029b49c                BehBeginningLakituLoop
                0x000000008029bde4                BehEndBirds1Loop
                0x000000008029bf64                BehEndBirds2Loop
                0x000000008029c0e4                func_8029B964
                0x000000008029c254                BehIntroSceneLoop
 build/us/src/game/debug_course.o(.text)
 .text          0x000000008029c770       0x10 build/us/src/game/debug_course.o
                0x000000008029c770                nop_change_course
 build/us/src/game/object_list_processor.o(.text)
 .text          0x000000008029c780     0x1110 build/us/src/game/object_list_processor.o
                0x000000008029c780                copy_mario_state_to_object
                0x000000008029c9cc                spawn_particle
                0x000000008029ca58                bhv_mario_update
                0x000000008029cb34                update_objects_starting_at
                0x000000008029cbc8                update_objects_during_time_stop
                0x000000008029cd28                update_objects_in_list
                0x000000008029cd98                unload_deactivated_objects_in_list
                0x000000008029ce58                set_object_respawn_info_bits
                0x000000008029cedc                unload_objects_from_area
                0x000000008029cfb0                spawn_objects_from_info
                0x000000008029d1d8                stub_8029CA50
                0x000000008029d1e8                clear_objects
                0x000000008029d324                update_terrain_objects
                0x000000008029d374                update_non_terrain_objects
                0x000000008029d428                unload_deactivated_objects
                0x000000008029d4d0                unused_get_elapsed_time
                0x000000008029d690                update_objects
 build/us/src/game/object_helpers.o(.text)
 .text          0x000000008029d890     0x7d90 build/us/src/game/object_helpers.o
                0x000000008029d890                Geo18_8029D890
                0x000000008029d924                Geo18_8029D924
                0x000000008029db48                geo_switch_anim_state
                0x000000008029dbd4                geo_switch_area
                0x000000008029dcd4                func_8029D558
                0x000000008029dda8                apply_object_scale_to_matrix
                0x000000008029de80                func_8029D704
                0x000000008029e1b0                set_object_held_state
                0x000000008029e27c                lateral_dist_between_objects
                0x000000008029e2f8                dist_between_objects
                0x000000008029e398                obj_obj_forward_vel_approach_upward
                0x000000008029e3e8                approach_f32_signed
                0x000000008029e494                approach_f32_symmetric
                0x000000008029e530                approach_s16_symmetric
                0x000000008029e5ec                obj_rotate_yaw_toward
                0x000000008029e694                angle_to_object
                0x000000008029e714                obj_turn_toward_object
                0x000000008029e8bc                set_object_parent_relative_pos
                0x000000008029e914                set_object_pos
                0x000000008029e96c                set_object_angle
                0x000000008029e9ac                spawn_object_abs_with_rot
                0x000000008029ea24                spawn_object_rel_with_rot
                0x000000008029eaac                Unknown8029E330
                0x000000008029eb04                spawn_water_splash
                0x000000008029ed20                spawn_object_at_origin
                0x000000008029edcc                spawn_object
                0x000000008029ee24                try_to_spawn_object
                0x000000008029eeb8                spawn_object_with_scale
                0x000000008029ef20                build_relative_object_transform
                0x000000008029ef64                spawn_object_relative
                0x000000008029effc                spawn_object_relative_with_scale
                0x000000008029f070                obj_move_using_vel
                0x000000008029f0c8                copy_object_graph_y_offset
                0x000000008029f0e0                copy_object_pos_and_angle
                0x000000008029f120                copy_object_pos
                0x000000008029f148                copy_object_angle
                0x000000008029f188                func_8029EA0C
                0x000000008029f1b0                Unknown8029EA34
                0x000000008029f200                linear_mtxf_mul_vec3f
                0x000000008029f274                linear_mtxf_transpose_mul_vec3f
                0x000000008029f2ec                apply_scale_to_object_transform
                0x000000008029f3a8                copy_object_scale
                0x000000008029f3d0                scale_object_xyz
                0x000000008029f404                scale_object
                0x000000008029f430                obj_scale
                0x000000008029f464                SetObjAnimation
                0x000000008029f4b4                func_8029ED38
                0x000000008029f514                func_8029ED98
                0x000000008029f59c                func_8029EE20
                0x000000008029f600                obj_enable_rendering_and_become_tangible
                0x000000008029f620                obj_enable_rendering
                0x000000008029f644                obj_disable_rendering_and_become_intangible
                0x000000008029f66c                obj_disable_rendering
                0x000000008029f694                obj_unhide
                0x000000008029f6bc                obj_hide
                0x000000008029f6e0                obj_set_pos_relative
                0x000000008029f7d8                obj_set_pos_relative_to_parent
                0x000000008029f820                obj_enable_rendering_2
                0x000000008029f848                obj_unused_init_on_floor
                0x000000008029f8ec                obj_set_facing_to_move_angles
                0x000000008029f914                get_object_list_from_behavior
                0x000000008029f95c                obj_nearest_object_with_behavior
                0x000000008029f998                obj_dist_to_nearest_object_with_behavior
                0x000000008029f9ec                obj_find_nearest_object_with_behavior
                0x000000008029fb1c                find_unimportant_object
                0x000000008029fb68                count_unimportant_objects
                0x000000008029fbdc                count_objects_with_behavior
                0x000000008029fc9c                obj_find_nearby_held_actor
                0x000000008029fd8c                obj_reset_timer_and_subaction
                0x000000008029fdb4                obj_change_action
                0x000000008029fe00                func_8029F684
                0x000000008029fe6c                func_8029F6F0
                0x000000008029fea4                func_8029F728
                0x000000008029ff04                func_8029F788
                0x000000008029ffa4                func_8029F828
                0x00000000802a0008                obj_check_anim_frame
                0x00000000802a0050                obj_check_anim_frame_in_range
                0x00000000802a00ac                Unknown8029F930
                0x00000000802a0114                mario_is_in_air_action
                0x00000000802a0154                mario_is_dive_sliding
                0x00000000802a0198                func_8029FA1C
                0x00000000802a01d8                func_8029FA5C
                0x00000000802a0234                obj_move_after_thrown_or_dropped
                0x00000000802a0380                obj_get_thrown_or_placed
                0x00000000802a0474                obj_get_dropped
                0x00000000802a04c0                obj_set_model
                0x00000000802a04f0                mario_set_flag
                0x00000000802a0514                obj_clear_interact_status_flag
                0x00000000802a0568                mark_object_for_deletion
                0x00000000802a057c                obj_disable
                0x00000000802a05b4                obj_become_intangible
                0x00000000802a05d4                obj_become_tangible
                0x00000000802a05f0                make_object_tangible
                0x00000000802a0604                obj_update_floor_height
                0x00000000802a064c                obj_update_floor_height_and_get_floor
                0x00000000802a069c                apply_drag_to_value
                0x00000000802a079c                obj_apply_drag_xz
                0x00000000802a07e8                obj_move_xz
                0x00000000802a0ab0                obj_move_update_underwater_flags
                0x00000000802a0bdc                obj_move_update_ground_air_flags
                0x00000000802a0d84                obj_move_y_and_get_water_level
                0x00000000802a0e68                obj_move_y
                0x00000000802a10e0                nop_802A0964
                0x00000000802a10f0                clear_move_flag
                0x00000000802a113c                obj_unused_resolve_wall_collisions
                0x00000000802a11a8                abs_angle_diff
                0x00000000802a120c                obj_move_xz_using_fvel
                0x00000000802a12a4                obj_move_y_with_terminal_vel
                0x00000000802a1308                obj_compute_vel_xz
                0x00000000802a1370                func_802A0BF4
                0x00000000802a1424                are_objects_collided
                0x00000000802a148c                obj_set_behavior
                0x00000000802a14c4                set_object_behavior
                0x00000000802a14fc                obj_has_behavior
                0x00000000802a1554                object_has_behavior
                0x00000000802a15ac                obj_lateral_dist_from_mario_to_home
                0x00000000802a1634                obj_lateral_dist_to_home
                0x00000000802a16ac                obj_outside_home_square
                0x00000000802a1774                obj_outside_home_rectangle
                0x00000000802a184c                obj_set_pos_to_home
                0x00000000802a188c                obj_set_pos_to_home_and_stop
                0x00000000802a18dc                obj_shake_y
                0x00000000802a1930                func_802A11B4
                0x00000000802a1960                Unknown802A11E4
                0x00000000802a19ac                obj_set_billboard
                0x00000000802a19c8                obj_set_hitbox_radius_and_height
                0x00000000802a19f0                obj_set_hurtbox_radius_and_height
                0x00000000802a1a18                spawn_object_loot_coins
                0x00000000802a1b34                spawn_object_loot_blue_coins
                0x00000000802a1b8c                spawn_object_loot_yellow_coins
                0x00000000802a1bdc                obj_spawn_loot_coin_at_mario_pos
                0x00000000802a1c68                obj_abs_y_dist_to_home
                0x00000000802a1cc4                Unknown802A1548
                0x00000000802a1d7c                obj_detect_steep_floor
                0x00000000802a1f3c                obj_resolve_wall_collisions
                0x00000000802a20f4                obj_update_floor
                0x00000000802a21d4                obj_update_floor_and_resolve_wall_collisions
                0x00000000802a2320                obj_update_floor_and_walls
                0x00000000802a2348                obj_move_standard
                0x00000000802a24d0                obj_within_12k_bounds
                0x00000000802a25b4                obj_move_using_vel_and_gravity
                0x00000000802a2644                obj_move_using_fvel_and_gravity
                0x00000000802a2674                set_object_pos_relative
                0x00000000802a2748                obj_angle_to_home
                0x00000000802a27b0                func_802A2008
                0x00000000802a2804                translate_object_local
                0x00000000802a2930                build_object_transform_from_pos_and_angle
                0x00000000802a2a18                func_802A2270
                0x00000000802a2a84                build_object_transform_relative_to_parent
                0x00000000802a2b28                Unknown802A2380
                0x00000000802a2b6c                obj_rotate_move_angle_using_vel
                0x00000000802a2bc4                obj_rotate_face_angle_using_vel
                0x00000000802a2c1c                obj_set_face_angle_to_move_angle
                0x00000000802a2c5c                obj_follow_path
                0x00000000802a2ed4                chain_segment_init
                0x00000000802a2f14                random_f32_around_zero
                0x00000000802a2f5c                scale_object_random
                0x00000000802a2fc0                translate_object_xyz_random
                0x00000000802a308c                translate_object_xz_random
                0x00000000802a3124                func_802A297C
                0x00000000802a31e0                func_802A2A38
                0x00000000802a3268                obj_reflect_move_angle_off_wall
                0x00000000802a32ac                obj_spawn_particles
                0x00000000802a34a4                set_object_hitbox
                0x00000000802a3604                signum_positive
                0x00000000802a3634                absf
                0x00000000802a3674                absi
                0x00000000802a36a4                obj_wait_then_blink
                0x00000000802a3754                obj_is_mario_ground_pounding_platform
                0x00000000802a37ac                func_802A3004
                0x00000000802a37dc                func_802A3034
                0x00000000802a3818                obj_push_mario_away
                0x00000000802a390c                obj_push_mario_away_from_cylinder
                0x00000000802a399c                BehDustSmokeLoop
                0x00000000802a3a3c                nop_802A3294
                0x00000000802a3a4c                func_802A32A4
                0x00000000802a3a88                func_802A32E0
                0x00000000802a3b28                nop_802A3380
                0x00000000802a3b40                func_802A3398
                0x00000000802a3c18                func_802A3470
                0x00000000802a3cec                nop_802A3544
                0x00000000802a3cfc                obj_is_mario_on_platform
                0x00000000802a3d40                obj_shake_y_until
                0x00000000802a3dd4                func_802A362C
                0x00000000802a3e30                obj_call_action_function
                0x00000000802a3e80                func_802A36D8
                0x00000000802a3ef8                Unknown802A3750
                0x00000000802a3f24                func_802A377C
                0x00000000802a3f48                obj_mario_far_away
                0x00000000802a404c                obj_is_mario_moving_fast_or_in_air
                0x00000000802a40b8                item_in_array
                0x00000000802a4110                nop_802A3968
                0x00000000802a4120                bhv_init_room
                0x00000000802a4210                obj_enable_rendering_if_mario_in_room
                0x00000000802a4360                obj_set_hitbox_and_die_if_attacked
                0x00000000802a4440                func_802A3C98
                0x00000000802a44f4                set_object_collision_data
                0x00000000802a452c                obj_if_hit_wall_bounce_away
                0x00000000802a4564                obj_hide_if_mario_far_away_y
                0x00000000802a45e4                Geo18_802A45E4
                0x00000000802a462c                Unknown802A3E84
                0x00000000802a46cc                obj_is_hidden
                0x00000000802a4704                enable_time_stop
                0x00000000802a4728                disable_time_stop
                0x00000000802a4750                set_time_stop_flags
                0x00000000802a4774                clear_time_stop_flags
                0x00000000802a47a0                func_802A3FF8
                0x00000000802a48bc                obj_is_mario_in_range_and_ready_to_speak
                0x00000000802a48fc                obj_end_dialogue
                0x00000000802a4960                obj_update_dialogue_unk1
                0x00000000802a4be4                obj_update_dialogue_unk2
                0x00000000802a4f04                obj_has_model
                0x00000000802a4f58                obj_align_gfx_with_floor
                0x00000000802a5034                mario_is_within_rectangle
                0x00000000802a50fc                ShakeScreen
                0x00000000802a513c                attack_collided_non_mario_object
                0x00000000802a51ac                obj_was_attacked_or_ground_pounded
                0x00000000802a5228                copy_object_behavior_params
                0x00000000802a5248                func_802A4A70
                0x00000000802a5288                func_802A4AB0
                0x00000000802a52c4                func_802A4AEC
                0x00000000802a52f8                obj_check_grabbed_mario
                0x00000000802a5358                player_performed_grab_escape_action
                0x00000000802a540c                obj_unused_play_footstep_sound
                0x00000000802a5460                enable_time_stop_including_mario
                0x00000000802a5498                disable_time_stop_including_mario
                0x00000000802a54d8                obj_check_interacted
                0x00000000802a5524                obj_spawn_loot_blue_coin
                0x00000000802a5588                obj_spawn_star_at_y_offset
 build/us/src/game/behavior_actions.o(.text)
 .text          0x00000000802a5620    0x233d0 build/us/src/game/behavior_actions.o
                0x00000000802a5620                func_802A4DB0
                0x00000000802a56bc                bhv_star_door_loop
                0x00000000802a58dc                bhv_piranha_particle_loop
                0x00000000802a597c                ActionMrIParticle0
                0x00000000802a5a44                ActionMrIParticle1
                0x00000000802a5aa0                bhv_mr_i_particle_loop
                0x00000000802a5acc                func_802A525C
                0x00000000802a5bd4                bhv_mr_i_body_loop
                0x00000000802a5d4c                ActionMrI3
                0x00000000802a6518                ActionMrI2
                0x00000000802a68a0                ActionMrI1
                0x00000000802a6ad8                ActionMrI0
                0x00000000802a6b7c                bhv_mr_i_loop
                0x00000000802a6c20                bhv_pole_init
                0x00000000802a6c74                bhv_giant_pole_loop
                0x00000000802a6cf4                bhv_thi_huge_island_top_loop
                0x00000000802a6d64                bhv_thi_tiny_island_top_loop
                0x00000000802a6ee4                ActionActivateCapSwitch0
                0x00000000802a7020                ActionActivateCapSwitch1
                0x00000000802a708c                ActionActivateCapSwitch2
                0x00000000802a7160                ActionActivateCapSwitch3
                0x00000000802a7170                bhv_cap_switch_loop
                0x00000000802a719c                Geo18_802A719C
                0x00000000802a7230                bhv_bobomb_anchor_mario_loop
                0x00000000802a7264                ActionKingBobomb0
                0x00000000802a7384                func_802A6AF8
                0x00000000802a73d8                ActionKingBobomb2
                0x00000000802a7598                ActionKingBobomb3
                0x00000000802a7804                ActionKingBobomb1
                0x00000000802a78d8                ActionKingBobomb6
                0x00000000802a7a60                ActionKingBobomb7
                0x00000000802a7b1c                ActionKingBobomb8
                0x00000000802a7b5c                ActionKingBobomb4
                0x00000000802a7d14                ActionKingBobomb5
                0x00000000802a7fbc                func_802A7748
                0x00000000802a8064                bhv_king_bobomb_loop
                0x00000000802a816c                bhv_beta_chest_init
                0x00000000802a81e8                bhv_beta_chest_loop
                0x00000000802a821c                bhv_beta_chest_upper_loop
                0x00000000802a8370                bhv_water_air_bubble_init
                0x00000000802a83a0                bhv_water_air_bubble_loop
                0x00000000802a8630                bhv_bubble_wave_init
                0x00000000802a86bc                Unknown802A7E48
                0x00000000802a870c                bhv_bubble_maybe_loop
                0x00000000802a88a4                bhv_small_water_wave_loop
                0x00000000802a8a38                func_802A81C4
                0x00000000802a8b18                bhv_particle_init
                0x00000000802a8bc0                bhv_particle_loop
                0x00000000802a8c88                bhv_small_bubbles_loop
                0x00000000802a8cdc                bhv_fish_group_loop
                0x00000000802a8d48                bhv_water_waves_init
                0x00000000802a8d98                bhv_cannon_base_unused_loop
                0x00000000802a8dc0                ActionOpenedCannon0
                0x00000000802a8f40                ActionOpenedCannon4
                0x00000000802a9114                ActionOpenedCannon6
                0x00000000802a92fc                ActionOpenedCannon5
                0x00000000802a93f8                ActionOpenedCannon1
                0x00000000802a9440                ActionOpenedCannon2
                0x00000000802a9460                ActionOpenedCannon3
                0x00000000802a9498                bhv_cannon_base_loop
                0x00000000802a94f8                bhv_cannon_barrel_loop
                0x00000000802a958c                func_802A8D18
                0x00000000802a9708                bhv_chuckya_anchor_mario_loop
                0x00000000802a973c                Unknown802A8EC8
                0x00000000802a98c4                func_802A9050
                0x00000000802a9994                ActionChuckya0
                0x00000000802a9d08                ActionChuckya1
                0x00000000802a9f54                ActionChuckya3
                0x00000000802a9fc8                ActionChuckya2
                0x00000000802aa02c                func_802A97B8
                0x00000000802aa0ac                bhv_chuckya_loop
                0x00000000802aa1b8                bhv_wf_breakable_wall_loop
                0x00000000802aa280                func_802A9A0C
                0x00000000802aa3c8                func_802A9B54
                0x00000000802aa3f4                bhv_kickable_board_loop
                0x00000000802aa700                bhv_tower_door_loop
                0x00000000802aa774                bhv_wf_rotating_wooden_platform_loop
                0x00000000802aa830                bhv_rotating_platform_loop
                0x00000000802aa948                func_802AA0D4
                0x00000000802aa97c                bhv_koopa_shell_underwater_loop
                0x00000000802aaa60                bhv_warp_loop
                0x00000000802aab54                BehFadingWarpLoop
                0x00000000802aac48                bhv_white_puff_exploding_loop
                0x00000000802aae8c                func_802AA618
                0x00000000802aaf48                bhv_unused_080c_init
                0x00000000802aaffc                func_802AA788
                0x00000000802ab060                func_802AA7EC
                0x00000000802ab158                func_802AA8E4
                0x00000000802ab18c                func_802AA918
                0x00000000802ab1c8                bhv_unused_080c_loop
                0x00000000802ab558                bhv_spawn_star_objects
                0x00000000802ab5c8                bhv_coin_sparkles_init
                0x00000000802ab650                bhv_yellow_coin_init
                0x00000000802ab70c                bhv_yellow_coin_loop
                0x00000000802ab748                bhv_temp_coin_loop
                0x00000000802ab7a4                bhv_coin_init
                0x00000000802ab860                bhv_coin_loop
                0x00000000802aba40                bhv_coin_formation_spawn_loop
                0x00000000802abc04                func_802AB364
                0x00000000802abee4                bhv_coin_formation_init
                0x00000000802abf0c                bhv_coin_formation_loop
                0x00000000802ac068                ActionCoinInsideBoo1
                0x00000000802ac15c                ActionCoinInsideBoo0
                0x00000000802ac294                bhv_coin_inside_boo_loop
                0x00000000802ac2c0                bhv_coin_sparkles_loop
                0x00000000802ac2ec                bhv_golden_coin_sparkles_loop
                0x00000000802ac3a8                bhv_punch_tiny_triangle_loop
                0x00000000802ac4a0                bhv_punch_tiny_triangle_init
                0x00000000802ac5b4                bhv_wall_tiny_star_particle_loop
                0x00000000802ac678                bhv_tiny_star_particles_init
                0x00000000802ac78c                bhv_pound_tiny_star_particle_loop
                0x00000000802ac864                bhv_pound_tiny_star_particle_init
                0x00000000802ac910                func_802AC070
                0x00000000802ac958                func_802AC0B8
                0x00000000802ac9d0                func_802AC130
                0x00000000802aca6c                func_802AC1CC
                0x00000000802acac8                bhv_door_loop
                0x00000000802acc3c                bhv_door_init
                0x00000000802ace80                bhv_star_door_loop_2
                0x00000000802ad078                ActionGrindelThwomp4
                0x00000000802ad10c                ActionGrindelThwomp2
                0x00000000802ad1a4                ActionGrindelThwomp3
                0x00000000802ad238                ActionGrindelThwomp1
                0x00000000802ad2d0                ActionGrindelThwomp0
                0x00000000802ad34c                bhv_grindel_thwomp_loop
                0x00000000802ad378                bhv_tumbling_bridge_platform_loop
                0x00000000802ad580                ActionTumblingBridge1
                0x00000000802ad76c                ActionTumblingBridge2
                0x00000000802ad7f4                ActionTumblingBridge3
                0x00000000802ad828                ActionTumblingBridge0
                0x00000000802ad890                bhv_tumbling_bridge_loop
                0x00000000802ad8bc                func_802AD01C
                0x00000000802ad8f0                ActionElevator0
                0x00000000802ada4c                ActionElevator1
                0x00000000802adb88                ActionElevator2
                0x00000000802adce4                ActionElevator4
                0x00000000802add70                ActionElevator3
                0x00000000802addf8                bhv_elevator_init
                0x00000000802adf6c                bhv_elevator_loop
                0x00000000802adf98                bhv_water_mist_spawn_loop
                0x00000000802adfd8                bhv_water_mist_loop
                0x00000000802ae0cc                spawn_triangle_break_particles
                0x00000000802ae238                bhv_water_mist_2_loop
                0x00000000802ae304                bhv_pound_white_puffs_init
                0x00000000802ae334                func_802ADA94
                0x00000000802ae360                bhv_unused_0e40_init
                0x00000000802ae394                Unknown802ADAF4
                0x00000000802ae45c                func_802ADBBC
                0x00000000802ae48c                bhv_ground_snow_init
                0x00000000802ae4c0                func_802ADC20
                0x00000000802ae534                bhv_wind_loop
                0x00000000802ae85c                bhv_piranha_particles_spawn_loop
                0x00000000802ae908                bhv_little_cage_2_loop
                0x00000000802aea6c                ActionLittleCage0
                0x00000000802aeab8                ActionLittleCage1
                0x00000000802aeb1c                ActionLittleCage2
                0x00000000802aeb74                ActionLittleCage3
                0x00000000802aeb9c                bhv_little_cage_loop
                0x00000000802aebc8                bhv_squishable_platform_loop
                0x00000000802aec40                bhv_bitfs_sinking_platform_loop
                0x00000000802aeca8                bhv_ddd_moving_pole_loop
                0x00000000802aecdc                bhv_bitfs_sinking_cage_platform_loop
                0x00000000802aedc0                bhv_beta_moving_flames_spawn_loop
                0x00000000802aeea4                bhv_beta_moving_flames_loop
                0x00000000802aef1c                bhv_flamethrower_flame_loop
                0x00000000802af1e8                bhv_flamethrower_loop
                0x00000000802af3fc                bhv_rr_rotating_bridge_platform_loop
                0x00000000802af448                bhv_bouncing_fireball_flame_loop
                0x00000000802af5f8                bhv_bouncing_fireball_loop
                0x00000000802af7c4                bhv_bowser_shock_wave_loop
                0x00000000802af9cc                bhv_black_smoke_upward_loop
                0x00000000802afa0c                bhv_black_smoke_bowser_loop
                0x00000000802afae4                bhv_black_smoke_mario_loop
                0x00000000802afbf8                bhv_flame_mario_loop
                0x00000000802afce4                bhv_beta_fish_splash_spawner_loop
                0x00000000802afd1c                bhv_spindrift_loop
                0x00000000802afee8                bhv_wf_solid_tower_platform_loop
                0x00000000802aff30                bhv_wf_elevator_tower_platform_loop
                0x00000000802b00e4                bhv_wf_sliding_tower_platform_loop
                0x00000000802b0244                func_802AF9A4
                0x00000000802b039c                func_802AFAFC
                0x00000000802b04b4                bhv_tower_platform_group_loop
                0x00000000802b0614                bhv_tree_snow_or_leaf_loop
                0x00000000802b0974                bhv_snow_leaf_particle_spawn_init
                0x00000000802b0b9c                func_802B02FC
                0x00000000802b0bec                bhv_squarish_path_moving_loop
                0x00000000802b0d48                bhv_piranha_plant_waking_bubbles_loop
                0x00000000802b0df0                bhv_piranha_plant_bubble_loop
                0x00000000802b1278                bhv_floor_switch_loop
                0x00000000802b14f4                func_802B0C54
                0x00000000802b15e8                bhv_pushable_loop
                0x00000000802b1714                func_802B0E74
                0x00000000802b17f4                func_802B0F54
                0x00000000802b19d8                func_802B1138
                0x00000000802b1ae0                bhv_hidden_object_loop
                0x00000000802b1b2c                bhv_breakable_box_loop
                0x00000000802b1bb0                Geo18_802B1BB0
                0x00000000802b1c54                bhv_heave_ho_throw_mario_loop
                0x00000000802b1d7c                ActionHeaveHo1
                0x00000000802b1e6c                ActionHeaveHo2
                0x00000000802b1ff4                ActionHeaveHo3
                0x00000000802b20a0                ActionHeaveHo0
                0x00000000802b2154                func_802B18B4
                0x00000000802b2278                bhv_heave_ho_loop
                0x00000000802b2340                bhv_ccm_touched_star_spawn_loop
                0x00000000802b23e0                bhv_pound_explodes_loop
                0x00000000802b2494                bhv_beta_trampoline_spawn_loop
                0x00000000802b25ac                bhv_beta_trampoline_loop
                0x00000000802b26a4                ActionJumpingBox0
                0x00000000802b27d8                ActionJumpingBox1
                0x00000000802b2824                func_802B1F84
                0x00000000802b288c                bhv_jumping_box_loop
                0x00000000802b29b8                bhv_boo_cage_loop
                0x00000000802b2bc8                func_802B2328
                0x00000000802b2d10                bhv_beta_boo_key_outside_loop
                0x00000000802b2dac                ActionBetaBooKeyInside2
                0x00000000802b2f34                ActionBetaBooKeyInside1
                0x00000000802b3064                ActionBetaBooKeyInside0
                0x00000000802b3108                bhv_beta_boo_key_inside_loop
                0x00000000802b3134                func_802B2894
                0x00000000802b3250                func_802B29B0
                0x00000000802b329c                bhv_grand_star_loop
                0x00000000802b3600                bhv_bowser_key_2_loop
                0x00000000802b37b8                bhv_white_puff_smoke_init
                0x00000000802b3810                bhv_bullet_bill_init
                0x00000000802b3830                ActionBulletBill0
                0x00000000802b38b8                ActionBulletBill1
                0x00000000802b394c                ActionBulletBill2
                0x00000000802b3b08                ActionBulletBill3
                0x00000000802b3b24                ActionBulletBill4
                0x00000000802b3be0                bhv_bullet_bill_loop
                0x00000000802b3c2c                ActionBowserTailAnchor0
                0x00000000802b3cdc                ActionBowserTailAnchor1
                0x00000000802b3d10                ActionBowserTailAnchor2
                0x00000000802b3d74                bhv_bowser_tail_anchor_loop
                0x00000000802b3df4                bhv_bowser_flame_spawn_loop
                0x00000000802b4080                bhv_bowser_body_anchor_loop
                0x00000000802b4184                func_802B38B4
                0x00000000802b41fc                func_802B392C
                0x00000000802b4288                func_802B39B8
                0x00000000802b4300                func_802B3A30
                0x00000000802b4368                func_802B3A98
                0x00000000802b43dc                func_802B3B0C
                0x00000000802b4478                ActionBowser5
                0x00000000802b44bc                ActionBowser6
                0x00000000802b459c                Unknown802B3CCC
                0x00000000802b45f4                func_802B3D24
                0x00000000802b473c                func_802B3E44
                0x00000000802b48d4                func_802B3FDC
                0x00000000802b4a1c                func_802B4124
                0x00000000802b4a3c                func_802B4144
                0x00000000802b4af4                func_u_802B4AF4
                0x00000000802b4bac                ActionBowser18
                0x00000000802b4be8                ActionBowser0
                0x00000000802b4ca4                ActionBowser15
                0x00000000802b4d14                ActionBowser14
                0x00000000802b4f00                ActionBowser16
                0x00000000802b5104                ActionBowser8
                0x00000000802b5218                ActionBowser12
                0x00000000802b53f4                func_802B4A44
                0x00000000802b5444                func_802B4A94
                0x00000000802b5554                func_802B4BA4
                0x00000000802b55cc                ActionBowser13
                0x00000000802b5798                ActionBowser17
                0x00000000802b58bc                ActionBowser10
                0x00000000802b59cc                ActionBowser9
                0x00000000802b5aec                func_802B5108
                0x00000000802b5c00                ActionBowser11
                0x00000000802b5c40                ActionBowser7
                0x00000000802b5f6c                func_802B5588
                0x00000000802b5fec                ActionBowser1
                0x00000000802b611c                func_802B5738
                0x00000000802b6190                ActionBowser2
                0x00000000802b6568                ActionBowser3
                0x00000000802b65d0                func_802B5C78
                0x00000000802b6670                func_802B5D18
                0x00000000802b6730                func_802B5DD8
                0x00000000802b67d4                func_802B5E7C
                0x00000000802b6878                func_802B5F20
                0x00000000802b6a10                func_802B60B8
                0x00000000802b6a78                func_802B6120
                0x00000000802b6bac                func_802B6254
                0x00000000802b6cf0                ActionBowser4
                0x00000000802b6e40                func_802B64E8
                0x00000000802b6ee0                ActionBowser19
                0x00000000802b711c                func_802B67C4
                0x00000000802b71e4                func_802B688C
                0x00000000802b72d4                func_802B697C
                0x00000000802b7418                func_802B6AC0
                0x00000000802b75a4                bhv_bowser_loop
                0x00000000802b7878                bhv_bowser_init
                0x00000000802b798c                Geo18_802B798C
                0x00000000802b7a20                func_802B70C8
                0x00000000802b7c64                geo_switch_bowser_eyes
                0x00000000802b7d44                Geo18_802B7D44
                0x00000000802b7e68                ActionFallingBowserPlatform0
                0x00000000802b7ef0                ActionFallingBowserPlatform1
                0x00000000802b8024                ActionFallingBowserPlatform2
                0x00000000802b8384                bhv_falling_bowser_platform_loop
                0x00000000802b83b0                func_802B7A58
                0x00000000802b8434                func_802B7ADC
                0x00000000802b84ac                bhv_flame_bowser_init
                0x00000000802b85b0                bhv_flame_large_burning_out_init
                0x00000000802b8654                func_802B7CFC
                0x00000000802b8734                bhv_flame_bowser_loop
                0x00000000802b8960                bhv_flame_moving_forward_growing_init
                0x00000000802b89ec                bhv_flame_moving_forward_growing_loop
                0x00000000802b8b1c                bhv_flame_floating_landing_init
                0x00000000802b8c38                bhv_flame_floating_landing_loop
                0x00000000802b8d68                bhv_blue_bowser_flame_init
                0x00000000802b8e7c                bhv_blue_bowser_flame_loop
                0x00000000802b9034                bhv_flame_bouncing_init
                0x00000000802b90ec                bhv_flame_bouncing_loop
                0x00000000802b921c                bhv_blue_flames_group_loop
                0x00000000802b935c                bhv_blue_fish_loop
                0x00000000802b9790                bhv_tank_fish_groups_loop
                0x00000000802b98d4                func_802B8F7C
                0x00000000802b98fc                bhv_checkerboard_elevator_group_init
                0x00000000802b9a78                func_802B9120
                0x00000000802b9af8                func_802B91A0
                0x00000000802b9bb4                bhv_checkerboard_platform_init
                0x00000000802b9bd8                bhv_checkerboard_platform_loop
                0x00000000802b9e94                bhv_ddd_warp_loop
                0x00000000802b9efc                func_802B95A4
                0x00000000802ba13c                func_802B97E4
                0x00000000802ba19c                bhv_water_level_pillar_init
                0x00000000802ba1e0                bhv_water_level_pillar_loop
                0x00000000802ba25c                bhv_invisible_objects_under_bridge_init
                0x00000000802ba2b0                Geo18_802BA2B0
                0x00000000802ba2f8                bhv_door_key_1_loop
                0x00000000802ba458                bhv_door_key_2_loop
                0x00000000802ba5bc                bhv_moat_grills_loop
                0x00000000802ba608                bhv_rotating_clock_arm_loop
                0x00000000802ba7e0                func_802B9E88
                0x00000000802ba868                func_802B9F10
                0x00000000802ba8c4                Unknown802B9F6C
                0x00000000802ba958                func_802BA000
                0x00000000802bab7c                ActionUkikiOpenCage0
                0x00000000802bae40                ActionUkikiOpenCage7
                0x00000000802baec4                ActionUkikiOpenCage5
                0x00000000802baf10                ActionUkikiOpenCage6
                0x00000000802baf64                ActionUkikiOpenCage2
                0x00000000802bb07c                ActionUkikiOpenCage1
                0x00000000802bb288                ActionUkikiOpenCage3
                0x00000000802bb3b8                ActionUkikiOpenCage4
                0x00000000802bb798                func_802BAE40
                0x00000000802bb838                ukiki_blink_timer
                0x00000000802bb888                func_802BAF30
                0x00000000802bba3c                func_802BB0E4
                0x00000000802bbb98                bhv_ukiki_open_cage_init
                0x00000000802bbc0c                bhv_ukiki_open_cage_loop
                0x00000000802bbd6c                func_802BB414
                0x00000000802bbfd8                func_802BB680
                0x00000000802bc0f0                bhv_lll_moving_octagonal_mesh_platform_loop
                0x00000000802bc22c                bhv_lll_sinking_rock_block_loop
                0x00000000802bc294                bhv_lll_rotating_hex_flame_loop
                0x00000000802bc348                func_802BB9F0
                0x00000000802bc4f4                ActionRotatingCwFireBars0
                0x00000000802bc538                ActionRotatingCwFireBars1
                0x00000000802bc590                ActionRotatingCwFireBars2
                0x00000000802bc5fc                ActionRotatingCwFireBars3
                0x00000000802bc618                bhv_lll_rotating_block_fire_bars_loop
                0x00000000802bc660                bhv_lll_wood_piece_loop
                0x00000000802bc728                bhv_lll_floating_wood_bridge_loop
                0x00000000802bc898                bhv_volcano_flames_loop
                0x00000000802bc934                func_802BBFDC
                0x00000000802bca74                bhv_lll_rotating_hexagonal_ring_loop
                0x00000000802bcce8                func_802BC390
                0x00000000802bcda8                bhv_lll_sinking_rectangular_platform_loop
                0x00000000802bce58                bhv_lll_sinking_square_platforms_loop
                0x00000000802bce9c                func_802BC544
                0x00000000802bcf40                bhv_tilting_platform_init
                0x00000000802bcfc4                func_802BC66C
                0x00000000802bd058                bhv_tilting_platform_loop
                0x00000000802bd3e4                func_802BCA8C
                0x00000000802bd488                bhv_koopa_shell_flame_loop
                0x00000000802bd5dc                bhv_koopa_shell_flame_spawn
                0x00000000802bd62c                func_802BCCD4
                0x00000000802bd680                bhv_koopa_shell_loop
                0x00000000802bd8d0                func_802BCF78
                0x00000000802bd91c                func_802BCFC4
                0x00000000802bdb04                ActionToxBox4
                0x00000000802bdb3c                ActionToxBox5
                0x00000000802bdb74                ActionToxBox6
                0x00000000802bdbac                ActionToxBox7
                0x00000000802bdbe4                ActionToxBox1
                0x00000000802bdc7c                ActionToxBox2
                0x00000000802bdcc8                ActionToxBox3
                0x00000000802bdd14                ActionToxBox0
                0x00000000802bdd68                bhv_tox_box_loop
                0x00000000802bdd9c                ActionPiranhaPlant20
                0x00000000802bde10                func_802BD4A8
                0x00000000802bdeec                ActionPiranhaPlant21
                0x00000000802be034                ActionPiranhaPlant23
                0x00000000802be0b8                func_u_802BE0B8
                0x00000000802be0ec                ActionPiranhaPlant25
                0x00000000802be150                ActionPiranhaPlant26
                0x00000000802be234                ActionPiranhaPlant27
                0x00000000802be278                ActionPiranhaPlant28
                0x00000000802be350                ActionPiranhaPlant22
                0x00000000802be49c                func_802BDAD4
                0x00000000802be50c                ActionPiranhaPlant24
                0x00000000802be5a0                bhv_piranha_plant_2_loop
                0x00000000802be628                func_802BDC60
                0x00000000802be6d4                func_802BDD0C
                0x00000000802be79c                bhv_lll_bowser_puzzle_loop
                0x00000000802be8a8                ActionBowserPuzzlePiece0
                0x00000000802be8b8                ActionBowserPuzzlePiece1
                0x00000000802be8f4                func_802BDF2C
                0x00000000802be9dc                func_802BE014
                0x00000000802beb14                ActionBowserPuzzlePiece2
                0x00000000802beb54                ActionBowserPuzzlePiece3
                0x00000000802beb8c                ActionBowserPuzzlePiece4
                0x00000000802bebc4                ActionBowserPuzzlePiece5
                0x00000000802bebfc                ActionBowserPuzzlePiece6
                0x00000000802bec34                bhv_lll_bowser_puzzle_piece_loop
                0x00000000802becb0                func_802BE2E8
                0x00000000802bed7c                play_penguin_walking_sound
                0x00000000802bedec                ActionTuxiesMother2
                0x00000000802bef8c                ActionTuxiesMother1
                0x00000000802bf1d8                ActionTuxiesMother0
                0x00000000802bf3c0                bhv_tuxies_mother_loop
                0x00000000802bf424                func_802BEA58
                0x00000000802bf474                ActionSmallPenguin2
                0x00000000802bf57c                ActionSmallPenguin1
                0x00000000802bf648                ActionSmallPenguin3
                0x00000000802bf6e4                ActionSmallPenguin4
                0x00000000802bf760                ActionSmallPenguin0
                0x00000000802bf90c                ActionSmallPenguin5
                0x00000000802bfa14                func_802BF048
                0x00000000802bfa88                bhv_small_penguin_loop
                0x00000000802bfbac                geo_switch_tuxie_mother_eyes
                0x00000000802bfcd8                ActionFish0
                0x00000000802bfeb8                ActionFish1
                0x00000000802bff20                ActionFish2
                0x00000000802bff3c                bhv_fish_loop
                0x00000000802bff68                func_802BF59C
                0x00000000802c00b4                ActionFishGroup1
                0x00000000802c0348                ActionFishGroup2
                0x00000000802c06a8                ActionFishGroup0
                0x00000000802c0768                bhv_fish_group_2_loop
                0x00000000802c08a8                bhv_wdw_express_elevator_loop
                0x00000000802c0aac                ActionBirdChirpChirp0
                0x00000000802c0b50                ActionBirdChirpChirp1
                0x00000000802c0ba4                ActionBirdChirpChirp2
                0x00000000802c0bc4                ActionBirdChirpChirp3
                0x00000000802c0be0                bhv_bird_chirp_chirp_loop
                0x00000000802c0c0c                func_802C0240
                0x00000000802c0cd4                ActionCheepCheep0
                0x00000000802c0d44                ActionCheepCheep1
                0x00000000802c0f90                ActionCheepCheep2
                0x00000000802c1204                bhv_cheep_cheep_loop
                0x00000000802c12c0                bhv_rotatin_exclamation_box_loop
                0x00000000802c1308                ActionExclamationBox0
                0x00000000802c13ec                ActionExclamationBox1
                0x00000000802c14b0                ActionExclamationBox2
                0x00000000802c15b8                ActionExclamationBox3
                0x00000000802c17bc                func_802C0DF0
                0x00000000802c18d0                ActionExclamationBox4
                0x00000000802c1988                ActionExclamationBox5
                0x00000000802c19c0                bhv_exclamation_box_loop
                0x00000000802c19fc                bhv_sound_spawner_init
                0x00000000802c1a40                bhv_bowsers_sub_loop
                0x00000000802c1a80                bhv_sushi_shark_collision_loop
                0x00000000802c1a90                bhv_sushi_shark_loop
                0x00000000802c1c44                bhv_sunken_ship_part_loop
                0x00000000802c1cd4                bhv_ship_part_3_loop
                0x00000000802c1e10                bhv_jrb_sliding_box_loop
                0x00000000802c2190                bhv_white_puff_1_loop
                0x00000000802c2274                bhv_white_puff_2_loop
                0x00000000802c22b8                bhv_hidden_blue_coins_loop
                0x00000000802c242c                bhv_blue_coin_switch_loop
                0x00000000802c263c                bhv_bob_hmc_cage_door_loop
                0x00000000802c26f8                bhv_openable_grill_loop
                0x00000000802c2930                bhv_init_changing_water_level_loop
                0x00000000802c2a24                bhv_water_level_diamond_loop
                0x00000000802c2ce8                func_802C231C
                0x00000000802c2ebc                ActionTweester0
                0x00000000802c2fbc                ActionTweester1
                0x00000000802c31c4                ActionTweester2
                0x00000000802c329c                bhv_tweester_loop
                0x00000000802c32e8                bhv_tweester_sand_particle_loop
                0x00000000802c33f4                boo_stop
                0x00000000802c3440                bhv_boo_init
                0x00000000802c3460                func_802C2A94
                0x00000000802c3534                boo_should_be_active
                0x00000000802c3684                bhv_boo_group_init
                0x00000000802c3748                func_802C2D7C
                0x00000000802c3884                func_802C2EB8
                0x00000000802c39d4                func_802C3008
                0x00000000802c3b08                func_802C313C
                0x00000000802c3c04                func_802C3238
                0x00000000802c3cd0                func_802C3304
                0x00000000802c3d50                func_802C3384
                0x00000000802c3d9c                func_802C33D0
                0x00000000802c3e80                func_802C34B4
                0x00000000802c3f8c                func_802C35C0
                0x00000000802c4118                func_802C3738
                0x00000000802c4158                func_802C3778
                0x00000000802c4210                func_802C3830
                0x00000000802c43f4                ActionBoo0
                0x00000000802c4508                ActionBoo5
                0x00000000802c45b0                ActionBoo1
                0x00000000802c46d8                ActionBoo2
                0x00000000802c4720                ActionBoo3
                0x00000000802c4790                ActionBoo4
                0x00000000802c4824                bhv_boo_loop
                0x00000000802c48c0                ActionBooGivingStar0
                0x00000000802c49f0                ActionBooGivingStar1
                0x00000000802c4b54                ActionBooGivingStar2
                0x00000000802c4b9c                func_802C41AC
                0x00000000802c4bd4                func_802C41E4
                0x00000000802c4c10                func_802C4220
                0x00000000802c4c70                ActionBooGivingStar3
                0x00000000802c4dd4                ActionBooGivingStar4
                0x00000000802c4f30                bhv_boo_giving_star_loop
                0x00000000802c4fb0                ActionBooWithCage0
                0x00000000802c503c                ActionBooWithCage1
                0x00000000802c50d8                ActionBooWithCage2
                0x00000000802c5120                ActionBooWithCage3
                0x00000000802c515c                bhv_boo_with_cage_init
                0x00000000802c51d4                bhv_boo_with_cage_loop
                0x00000000802c5224                bhv_spawn_big_boo_loop
                0x00000000802c53cc                func_802C49E0
                0x00000000802c53ec                bhv_animated_texture_loop
                0x00000000802c5414                bhv_boo_in_castle_loop
                0x00000000802c5688                bhv_boo_boss_spawned_bridge_loop
                0x00000000802c5890                bhv_bbh_tilt_floor_platform_loop
                0x00000000802c5a38                bhv_tumbling_bookshelf_loop
                0x00000000802c5b54                func_802C50F4
                0x00000000802c5ca8                bhv_rotating_merry_go_round_loop
                0x00000000802c5dc0                bhv_static_checkered_platform_loop
                0x00000000802c5f48                bhv_beta_following_circling_obj_loop
                0x00000000802c5fdc                bhv_play_music_track_when_touched_loop
                0x00000000802c6050                bhv_floor_trap_in_castle_loop
                0x00000000802c60ac                bhv_castle_floor_trap_init
                0x00000000802c6150                bhv_castle_floor_trap_open_detect
                0x00000000802c61d4                bhv_castle_floor_trap_open
                0x00000000802c6278                bhv_castle_floor_trap_close_detect
                0x00000000802c62bc                bhv_castle_floor_trap_close
                0x00000000802c6328                bhv_castle_floor_trap_rotate
                0x00000000802c6348                bhv_castle_floor_trap_loop
                0x00000000802c63e8                BehClimbDetectLoop
                0x00000000802c64a4                bhv_powerup_sparkles_loop
                0x00000000802c6538                func_802C5A64
                0x00000000802c65c0                bhv_scuttlebug_loop
                0x00000000802c6b6c                bhv_scuttlebug_spawn_loop
                0x00000000802c6ca0                func_802C61CC
                0x00000000802c6d6c                ActionWhomp0
                0x00000000802c6ec8                ActionWhomp7
                0x00000000802c6fb0                ActionWhomp1
                0x00000000802c710c                ActionWhomp2
                0x00000000802c7254                ActionWhomp3
                0x00000000802c72b4                ActionWhomp4
                0x00000000802c7380                ActionWhomp5
                0x00000000802c7428                func_802C6954
                0x00000000802c75fc                func_802C6B28
                0x00000000802c76d4                ActionWhomp6
                0x00000000802c7858                ActionWhomp8
                0x00000000802c7998                ActionWhomp9
                0x00000000802c79d8                bhv_whomp_loop
                0x00000000802c7a70                bhv_water_splash_loop
                0x00000000802c7b14                bhv_water_drops_loop
                0x00000000802c7cac                bhv_surface_waves_loop
                0x00000000802c7d40                bhv_water_surface_white_wave_init
                0x00000000802c7d90                bhv_object_bubble_ripples_init
                0x00000000802c7dfc                bhv_surface_wave_shrinking_init
                0x00000000802c7e5c                bhv_wave_trail_loop
                0x00000000802c7f98                bhv_white_wind_particle_loop
                0x00000000802c81b4                func_802C76E0
                0x00000000802c834c                bhv_snowman_wind_blowing_loop
                0x00000000802c85a4                func_802C7AD0
                0x00000000802c863c                bhv_walking_penguin_loop
 build/us/src/game/platform_displacement.o(.text)
 .text          0x00000000802c89f0      0x550 build/us/src/game/platform_displacement.o
                0x00000000802c89f0                update_mario_platform
                0x00000000802c8b4c                get_mario_pos
                0x00000000802c8b8c                set_mario_pos
                0x00000000802c8bc8                apply_platform_displacement
                0x00000000802c8ec0                apply_mario_platform_displacement
                0x00000000802c8f28                clear_mario_platform
 build/us/src/game/object_collision.o(.text)
 .text          0x00000000802c8f40      0x890 build/us/src/game/object_collision.o
                0x00000000802c8f40                Unknown802C8460
                0x00000000802c8fe4                func_802C8504
                0x00000000802c91ec                func_802C870C
                0x00000000802c9388                func_802C88A8
                0x00000000802c93f8                func_802C8918
                0x00000000802c94ac                func_802C89CC
                0x00000000802c95b4                func_802C8AD4
                0x00000000802c9630                func_802C8B50
                0x00000000802c9724                detect_object_collisions
 build/us/src/game/spawn_object.o(.text)
 .text          0x00000000802c97d0      0x870 build/us/src/game/spawn_object.o
                0x00000000802c97d0                unused_init_free_list
                0x00000000802c9840                unused_try_allocate
                0x00000000802c98a4                try_allocate_object
                0x00000000802c9950                unused_deallocate
                0x00000000802c9984                deallocate_object
                0x00000000802c99b8                init_free_object_list
                0x00000000802c9a3c                clear_object_lists
                0x00000000802c9ad8                unused_delete_leaf_nodes
                0x00000000802c9b68                unload_object
                0x00000000802c9c00                allocate_object
                0x00000000802c9e5c                snap_object_to_floor
                0x00000000802c9f04                create_object
                0x00000000802ca028                mark_obj_for_deletion
 build/us/src/game/spawn_sound.o(.text)
 .text          0x00000000802ca040      0x330 build/us/src/game/spawn_sound.o
                0x00000000802ca040                exec_anim_sound_state
                0x00000000802ca144                create_sound_spawner
                0x00000000802ca190                PlaySound
                0x00000000802ca1e0                PlaySound2
                0x00000000802ca230                calc_dist_to_volume_range_1
                0x00000000802ca2d4                calc_dist_to_volume_range_2
 build/us/src/game/debug.o(.text)
 .text          0x00000000802ca370     0x1250 build/us/src/game/debug.o
                0x00000000802ca370                Stub802C9890
                0x00000000802ca380                Stub802C98A0
                0x00000000802ca390                Stub802C98B0
                0x00000000802ca3a0                Stub802C98C0
                0x00000000802ca3b0                get_current_clock
                0x00000000802ca3e0                get_clock_difference
                0x00000000802ca418                set_print_state_info
                0x00000000802ca460                print_text_array_info
                0x00000000802ca51c                set_text_array_x_y
                0x00000000802ca568                print_debug_bottom_up
                0x00000000802ca5b8                print_debug_top_down_objectinfo
                0x00000000802ca618                print_debug_top_down_mapinfo
                0x00000000802ca680                print_debug_top_down_normal
                0x00000000802ca6d0                print_mapinfo
                0x00000000802ca8e8                print_checkinfo
                0x00000000802ca918                print_surfaceinfo
                0x00000000802ca94c                print_stageinfo
                0x00000000802ca990                print_string_array_info
                0x00000000802caa6c                print_effectinfo
                0x00000000802caaa8                print_enemyinfo
                0x00000000802caae4                update_debug_dpadmask
                0x00000000802cabac                debug_unknown_level_select_check
                0x00000000802cac20                reset_debug_objectinfo
                0x00000000802cacc8                check_debug_button_seq
                0x00000000802cadc8                try_change_debug_page
                0x00000000802cae9c                try_modify_debug_controls
                0x00000000802cb0b0                stub_802CA5D0
                0x00000000802cb0c0                try_print_debug_mario_object_info
                0x00000000802cb1c0                try_print_debug_mario_level_info
                0x00000000802cb264                try_do_mario_debug_object_spawn
                0x00000000802cb394                Unknown802CA8B4
                0x00000000802cb564                Unknown802CAA84
 build/us/src/game/screen_transition.o(.text)
 .text          0x00000000802cb5c0     0x1cc0 build/us/src/game/screen_transition.o
                0x00000000802cb5c0                func_802CAAE0
                0x00000000802cb640                func_802CAB60
                0x00000000802cb894                func_802CADB4
                0x00000000802cba18                func_802CAF38
                0x00000000802cbbc4                func_802CB0E4
                0x00000000802cbc20                func_802CB140
                0x00000000802cbc7c                func_802CB19C
                0x00000000802cbd54                func_802CB274
                0x00000000802cbe64                func_802CB384
                0x00000000802cbee0                func_802CB400
                0x00000000802cbf64                func_802CB484
                0x00000000802cbfe8                func_802CB508
                0x00000000802cc180                func_802CB6A0
                0x00000000802cc4d8                func_802CB9F8
                0x00000000802ccbe8                func_802CC108
                0x00000000802ccdc8                func_802CC2E8
                0x00000000802cd1e8                Geo18_802CD1E8
 build/us/src/game/shadow.o(.text)
 .text          0x00000000802cd280     0x2330 build/us/src/game/shadow.o
                0x00000000802cd280                rotate_rectangle
                0x00000000802cd328                atan2_deg
                0x00000000802cd388                scale_shadow_with_distance
                0x00000000802cd444                disable_shadow_with_distance
                0x00000000802cd48c                dim_shadow_with_distance
                0x00000000802cd614                get_water_level_below_shadow
                0x00000000802cd6c4                init_shadow
                0x00000000802cd938                get_texture_coords_9_vertices
                0x00000000802cd988                get_texture_coords_4_vertices
                0x00000000802cd9ec                make_shadow_vertex_at_xyz
                0x00000000802cdb20                extrapolate_vertex_y_position
                0x00000000802cdb74                get_vertex_coords
                0x00000000802cdc40                calculate_vertex_xyz
                0x00000000802cde94                floor_local_tilt
                0x00000000802cdf3c                make_shadow_vertex
                0x00000000802ce128                add_shadow_to_display_list
                0x00000000802ce2bc                linearly_interpolate_solidity_positive
                0x00000000802ce3ec                linearly_interpolate_solidity_negative
                0x00000000802ce524                correct_shadow_solidity_for_animations
                0x00000000802ce690                correct_lava_shadow_height
                0x00000000802ce79c                create_shadow_player
                0x00000000802ce9d0                create_shadow_circle_9_verts
                0x00000000802ceae8                create_shadow_circle_4_verts
                0x00000000802cec04                create_shadow_circle_assuming_flat_ground
                0x00000000802cedc0                create_shadow_rectangle
                0x00000000802cef6c                get_shadow_height_solidity
                0x00000000802cf080                create_shadow_square
                0x00000000802cf1f0                create_shadow_hardcoded_rectangle
                0x00000000802cf34c                create_shadow_below_xyz
 build/us/src/game/skybox.o(.text)
 .text          0x00000000802cf5b0      0xad0 build/us/src/game/skybox.o
                0x00000000802cf5b0                func_802CEAD0
                0x00000000802cf69c                func_802CEBBC
                0x00000000802cf77c                func_802CEC9C
                0x00000000802cf804                make_skybox_rect
                0x00000000802cfa2c                func_802CEF4C
                0x00000000802cfc68                func_802CF188
                0x00000000802cfd88                func_802CF2A8
                0x00000000802cfef4                func_802CF414
 build/us/src/game/moving_texture.o(.text)
 .text          0x00000000802d0080     0x2190 build/us/src/game/moving_texture.o
                0x00000000802d0080                Geo18_802D0080
                0x00000000802d01e0                Geo18_802D01E0
                0x00000000802d0254                func_802CF774
                0x00000000802d0484                func_802CF9A4
                0x00000000802d0a84                func_802CFFA4
                0x00000000802d0bb0                func_802D00D0
                0x00000000802d0c84                func_802D01A4
                0x00000000802d0f28                func_802D0448
                0x00000000802d104c                Geo18_802D104C
                0x00000000802d1330                func_802D0850
                0x00000000802d13cc                func_802D08EC
                0x00000000802d1574                func_802D0A94
                0x00000000802d18b4                func_802D0DD4
                0x00000000802d1b70                Geo18_802D1B70
                0x00000000802d1cdc                Geo18_802D1CDC
                0x00000000802d1e48                Geo18_802D1E48
                0x00000000802d1fa8                Geo18_802D1FA8
                0x00000000802d2108                Geo18_802D2108
 build/us/src/game/geo_misc.o(.text)
 .text          0x00000000802d2210      0x7b0 build/us/src/game/geo_misc.o
                0x00000000802d2210                make_vertex
                0x00000000802d22c4                round_float
                0x00000000802d2360                geo_exec_inside_castle_light
                0x00000000802d2470                geo_exec_flying_carpet_timer_update
                0x00000000802d2520                geo_exec_flying_carpet_create
                0x00000000802d28cc                geo_exec_cake_end_screen
 build/us/src/game/paintings.o(.text)
 .text          0x00000000802d29c0     0x3440 build/us/src/game/paintings.o
                0x00000000802d29c0                func_802D1EE0
                0x00000000802d2a74                func_802D1F94
                0x00000000802d2b08                func_802D2028
                0x00000000802d2b84                func_802D20A4
                0x00000000802d2c40                func_802D2160
                0x00000000802d2d80                func_802D22A0
                0x00000000802d2dfc                func_802D231C
                0x00000000802d2eb8                func_802D23D8
                0x00000000802d2ffc                func_802D251C
                0x00000000802d319c                func_802D26BC
                0x00000000802d327c                func_802D279C
                0x00000000802d341c                func_802D293C
                0x00000000802d34fc                func_802D2A1C
                0x00000000802d36ac                func_802D2BCC
                0x00000000802d379c                func_802D2CBC
                0x00000000802d393c                func_802D2E5C
                0x00000000802d3a2c                func_802D2F4C
                0x00000000802d3bec                func_802D310C
                0x00000000802d3cec                func_802D320C
                0x00000000802d3e6c                func_802D338C
                0x00000000802d3ee4                Print1
                0x00000000802d404c                Print2
                0x00000000802d43f8                func_802D3918
                0x00000000802d44bc                func_802D39DC
                0x00000000802d47d0                func_802D3CF0
                0x00000000802d4edc                func_802D43FC
                0x00000000802d50dc                func_802D45FC
                0x00000000802d5354                func_802D4874
                0x00000000802d556c                func_802D4A8C
                0x00000000802d568c                func_802D4BAC
                0x00000000802d5778                func_802D4C98
                0x00000000802d57a8                func_802D4CC8
                0x00000000802d58e4                func_802D4E04
                0x00000000802d593c                func_802D4E5C
                0x00000000802d59a8                func_802D4EC8
                0x00000000802d5aa0                func_802D4FC0
                0x00000000802d5b98                Geo18_802D5B98
                0x00000000802d5d0c                Geo18_802D5D0C
 build/us/src/game/print.o(.text)
 .text          0x00000000802d5e00     0x1120 build/us/src/game/print.o
                0x00000000802d5e00                int_pow
                0x00000000802d5e54                format_integer
                0x00000000802d6144                parse_width_field
                0x00000000802d62d8                print_text_fmt_int
                0x00000000802d6554                print_text
                0x00000000802d66c0                print_text_centered
                0x00000000802d6858                char_to_glyph_index
                0x00000000802d69f8                add_glyph_texture
                0x00000000802d6acc                func_802D5FEC
                0x00000000802d6b3c                func_802D605C
                0x00000000802d6c88                func_802D61A8
 build/us/src/game/ingame_menu.o(.text)
 .text          0x00000000802d6f20     0x6ed0 build/us/src/game/ingame_menu.o
                0x00000000802d6f20                func_802D6440
                0x00000000802d7070                dl_add_new_translation_matrix
                0x00000000802d7174                dl_add_new_rotation_matrix
                0x00000000802d7280                dl_add_new_scale_matrix
                0x00000000802d7384                dl_add_new_ortho_matrix
                0x00000000802d7480                func_802D69A0
                0x00000000802d75dc                func_802D6AFC
                0x00000000802d76c8                put_multi_text_string
                0x00000000802d77dc                PrintGenericText
                0x00000000802d7b84                PutString
                0x00000000802d7e88                PrintRegularText
                0x00000000802d82d4                PutMiniString
                0x00000000802d862c                handleMenuScrolling
                0x00000000802d8844                get_str_x_pos_from_center
                0x00000000802d8934                func_u_802D8934
                0x00000000802d89b8                ShowCoins
                0x00000000802d8a80                ShowStars
                0x00000000802d8b34                Int2Str
                0x00000000802d8c6c                get_dialog_id
                0x00000000802d8c88                func_802D7F90
                0x00000000802d8cc4                func_802D7FCC
                0x00000000802d8d08                CreateTextBox
                0x00000000802d8d48                func_802D8050
                0x00000000802d8d90                func_802D8098
                0x00000000802d8e2c                func_802D8134
                0x00000000802d9148                func_802D8450
                0x00000000802d9388                func_802D8690
                0x00000000802d944c                func_802D8830
                0x00000000802d9634                func_u_802D9634
                0x00000000802d9800                func_802D8954
                0x00000000802d982c                func_802D8980
                0x00000000802d9cb0                func_802D8ED4
                0x00000000802d9dfc                func_802D9030
                0x00000000802d9f84                func_802D91C0
                0x00000000802da1ac                func_802D93E0
                0x00000000802da810                func_802D9A14
                0x00000000802da844                reset_cutscene_msg_fade
                0x00000000802da85c                func_802D9A60
                0x00000000802da8e4                func_802D9AE8
                0x00000000802da964                ascii_to_credits_char
                0x00000000802daa34                print_credits_str
                0x00000000802daae4                set_cutscene_message
                0x00000000802dab58                do_cutscene_handler
                0x00000000802dad54                print_peach_letter_message
                0x00000000802db08c                RenderHudCannonReticle
                0x00000000802db350                func_802DA4DC
                0x00000000802db368                func_802DA4F4
                0x00000000802db3b8                ShadeScreen
                0x00000000802db498                PrintAnimatedRedCoin
                0x00000000802db6e8                func_802DA874
                0x00000000802db760                func_802DA8EC
                0x00000000802dbb24                PauseScreenCameraMenu
                0x00000000802dbe68                PauseScreen2
                0x00000000802dc15c                PauseCastleMenuBox
                0x00000000802dc418                func_802DB540
                0x00000000802dc478                PauseScreen1
                0x00000000802dc570                func_802DB698
                0x00000000802dc718                func_802DB840
                0x00000000802dca88                func_802DBBB0
                0x00000000802dcd04                func_802DBE2C
                0x00000000802dcf30                func_802DC050
                0x00000000802dd194                func_802DC2B4
                0x00000000802dd210                func_802DC330
                0x00000000802dd838                Save
                0x00000000802ddae0                func_802DCBD4
                0x00000000802ddca4                func_802DCD98
 build/us/src/game/envfx_snow.o(.text)
 .text          0x00000000802dddf0     0x1f60 build/us/src/game/envfx_snow.o
                0x00000000802dddf0                envfx_init_snow
                0x00000000802ddf38                envfx_update_snowflake_count
                0x00000000802de0bc                envfx_cleanup_snow
                0x00000000802de114                orbit_from_positions
                0x00000000802de23c                pos_from_orbit
                0x00000000802de360                envfx_is_snowflake_alive
                0x00000000802de458                envfx_update_snow_normal
                0x00000000802de888                envfx_update_snow_blizzard
                0x00000000802decd4                is_in_mystery_snow_area
                0x00000000802ded38                envfx_update_snow_water
                0x00000000802def2c                rotate_triangle_vertices
                0x00000000802df334                append_snowflake_vertex_buffer
                0x00000000802df748                envfx_update_snow
                0x00000000802dfbc8                envfx_update_particles
 build/us/src/game/envfx_bubbles.o(.text)
 .text          0x00000000802dfd50     0x2350 build/us/src/game/envfx_bubbles.o
                0x00000000802dfd50                particle_is_laterally_close
                0x00000000802dfe00                random_flower_offset
                0x00000000802dfe80                envfx_update_flower
                0x00000000802e0120                envfx_set_lava_bubble_position
                0x00000000802e048c                envfx_update_lava
                0x00000000802e065c                envfx_rotate_around_whirlpool
                0x00000000802e08a8                envfx_is_whirlpool_bubble_alive
                0x00000000802e0934                envfx_update_whirlpool
                0x00000000802e0e24                envfx_is_jestream_bubble_alive
                0x00000000802e0eb8                envfx_update_jetstream
                0x00000000802e1238                envfx_init_bubble
                0x00000000802e1414                envfx_bubbles_update_switch
                0x00000000802e1618                append_bubble_vertex_buffer
                0x00000000802e1a20                envfx_set_bubble_texture
                0x00000000802e1bb8                envfx_update_bubble_particles
                0x00000000802e1ed8                envfx_set_max_bubble_particles
                0x00000000802e1f48                envfx_update_bubbles
 build/us/src/game/macro_special_objects.o(.text)
 .text          0x00000000802e20a0      0xc50 build/us/src/game/macro_special_objects.o
                0x00000000802e20a0                convert_rotation
                0x00000000802e2134                spawn_macro_abs_yrot_2params
                0x00000000802e21dc                spawn_macro_abs_yrot_param1
                0x00000000802e2284                spawn_macro_abs_special
                0x00000000802e233c                Unknown802E142C
                0x00000000802e2414                spawn_macro_objects
                0x00000000802e2690                spawn_macro_objects_hardcoded
                0x00000000802e28ec                spawn_special_objects
 build/us/src/game/hud.o(.text)
 .text          0x00000000802e2cf0     0x1160 build/us/src/game/hud.o
                0x00000000802e2cf0                render_hud_camera
                0x00000000802e2e58                render_hud_c_buttons
                0x00000000802e30b4                func_802E21A4
                0x00000000802e3214                func_802E2304
                0x00000000802e33b8                animate_power_meter_emphasized
                0x00000000802e3430                animate_power_meter_deemphasizing
                0x00000000802e34e4                animate_power_meter_hiding
                0x00000000802e352c                func_802E261C
                0x00000000802e3654                render_hud_hp
                0x00000000802e3744                render_hud_mario_lives
                0x00000000802e37a8                render_hud_coins
                0x00000000802e380c                render_hud_stars
                0x00000000802e38e4                func_802E29D4
                0x00000000802e395c                render_hud_timer
                0x00000000802e3b1c                set_camera_status
                0x00000000802e3b3c                show_camera_status
                0x00000000802e3d2c                render_hud
 build/us/src/game/obj_behaviors.o(.text)
 .text          0x00000000802e3e50    0x158e0 build/us/src/game/obj_behaviors.o
                0x00000000802e3e50                func_802E2F40
                0x00000000802e3e68                func_802E2F58
                0x00000000802e3f68                absf_2
                0x00000000802e3fac                TurnObjAwayFromSurface
                0x00000000802e405c                ObjFindWall
                0x00000000802e41a4                TurnObjAwayFromAwkwardFloor
                0x00000000802e42e0                ObjOrientGraph
                0x00000000802e43e4                CalcObjFriction
                0x00000000802e445c                CalcNewObjVelAndPosY
                0x00000000802e4814                CalcNewObjVelAndPosYUnderwater
                0x00000000802e4cec                ObjUpdatePosVelXZ
                0x00000000802e4d88                ObjSplash
                0x00000000802e4e90                ObjectStep
                0x00000000802e5114                func_802E4204
                0x00000000802e5160                func_802E4250
                0x00000000802e5208                IsPointCloseToMario
                0x00000000802e52b8                IsPointCloseToObject
                0x00000000802e5360                SetObjectVisibility
                0x00000000802e53f4                ObjLeaveIfMarioIsNearHome
                0x00000000802e54b0                ObjDisplaceHome
                0x00000000802e55d0                func_802E46C0
                0x00000000802e569c                func_802E478C
                0x00000000802e5760                ObjSpawnYellowCoins
                0x00000000802e5824                ObjFlickerAndDisappear
                0x00000000802e58b4                func_802E49A4
                0x00000000802e5948                func_802E4A38
                0x00000000802e5a80                ObjCheckFloorDeath
                0x00000000802e5b18                ObjLavaDeath
                0x00000000802e5c6c                SpawnOrangeNumber
                0x00000000802e5d04                Unknown802E4DF4
                0x00000000802e5de8                CoinStep
                0x00000000802e5e6c                MovingCoinFlickerLoop
                0x00000000802e5ea4                CoinCollected
                0x00000000802e5ee8                bhv_moving_yellow_coin_init
                0x00000000802e5f64                bhv_moving_yellow_coin_loop
                0x00000000802e6098                bhv_moving_blue_coin_init
                0x00000000802e6114                bhv_moving_blue_coin_loop
                0x00000000802e62a4                bhv_blue_coin_sliding_jumping_init
                0x00000000802e631c                func_802E540C
                0x00000000802e63ec                func_802E54DC
                0x00000000802e6474                bhv_blue_coin_sliding_loop
                0x00000000802e6628                bhv_blue_coin_jumping_loop
                0x00000000802e6790                bhv_seaweed_init
                0x00000000802e67dc                bhv_seaweed_bundle_init
                0x00000000802e6a2c                bhv_bobomb_init
                0x00000000802e6a8c                func_802E5B7C
                0x00000000802e6af8                BobombExplodeLoop
                0x00000000802e6bd4                CheckBobombInteractions
                0x00000000802e6cf0                BobombPatrolLoop
                0x00000000802e6dc8                BobombChaseMarioLoop
                0x00000000802e6e84                BobombLaunchedLoop
                0x00000000802e6ed8                GenericBobombFreeLoop
                0x00000000802e7020                StationaryBobombFreeLoop
                0x00000000802e7134                BobombFreeLoop
                0x00000000802e7180                BobombHeldLoop
                0x00000000802e7220                BobombDroppedLoop
                0x00000000802e7280                BobombThrownLoop
                0x00000000802e7324                ObjRandomBlink
                0x00000000802e742c                bhv_bobomb_loop
                0x00000000802e75a0                bhv_bobomb_fuse_smoke_init
                0x00000000802e76ac                bhv_bobomb_buddy_init
                0x00000000802e770c                BobombBuddyIdleLoop
                0x00000000802e7814                BobombBuddyCannonLoop
                0x00000000802e79dc                BobombBuddyTalkLoop
                0x00000000802e7b00                BobombBuddyTurnToTalkLoop
                0x00000000802e7bb0                BobombBuddyActionLoop
                0x00000000802e7c4c                bhv_bobomb_buddy_loop
                0x00000000802e7c90                bhv_cannon_closed_init
                0x00000000802e7d4c                CannonTrapDoorOpeningLoop
                0x00000000802e7e54                bhv_cannon_closed_loop
                0x00000000802e7f70                bhv_whirlpool_init
                0x00000000802e7fb8                func_802E70A8
                0x00000000802e7fec                func_802E70DC
                0x00000000802e80dc                bhv_whirlpool_loop
                0x00000000802e82b0                bhv_jet_stream_loop
                0x00000000802e8388                bhv_amp_homing_init
                0x00000000802e844c                CheckAmpAttack
                0x00000000802e84cc                AmpHomingAppearLoop
                0x00000000802e8618                AmpHomingChaseLoop
                0x00000000802e885c                AmpHomingGiveUpLoop
                0x00000000802e8920                AmpAttackCooldownLoop
                0x00000000802e89d4                bhv_amp_homing_loop
                0x00000000802e8ae4                bhv_amp_init
                0x00000000802e8c18                FixedAmpIdleLoop
                0x00000000802e8d98                AmpIdleLoop
                0x00000000802e8ecc                bhv_amp_loop
                0x00000000802e8f68                bhv_butterfly_init
                0x00000000802e9018                ButterflyStep
                0x00000000802e9278                CalculateButterflyAngle
                0x00000000802e9470                ButterflyRestingLoop
                0x00000000802e94e4                ButterflyFollowMarioLoop
                0x00000000802e9548                ButterflyReturnHomeLoop
                0x00000000802e96c8                bhv_butterfly_loop
                0x00000000802e9764                bhv_hoot_init
                0x00000000802e97fc                HootFindNextFloor
                0x00000000802e98c0                HootFloorBounce
                0x00000000802e9a4c                HootFreeStep
                0x00000000802e9cf4                PlayerSetHootYaw
                0x00000000802e9d98                HootCarryStep
                0x00000000802e9f60                HootSurfaceCollision
                0x00000000802ea144                HootAscentLoop
                0x00000000802ea258                HootActionLoop
                0x00000000802ea3f0                HootTurnToHome
                0x00000000802ea4ec                HootAwakeLoop
                0x00000000802ea588                bhv_hoot_loop
                0x00000000802ea6a8                bhv_beta_green_shell_init
                0x00000000802ea6f8                BetaGreenShellDropped
                0x00000000802ea75c                BetaGreenShellThrown
                0x00000000802ea7e0                bhv_beta_green_shell_loop
                0x00000000802ea888                bhv_object_bubble_init
                0x00000000802ea934                bhv_object_bubble_loop
                0x00000000802eaa10                bhv_object_water_wave_init
                0x00000000802eaa50                bhv_object_water_wave_loop
                0x00000000802eaa8c                bhv_explosion_init
                0x00000000802eaad0                bhv_explosion_loop
                0x00000000802eabf0                bhv_bobomb_bully_death_smoke_init
                0x00000000802eac3c                bhv_bobomb_explosion_bubble_init
                0x00000000802ead3c                bhv_bobomb_explosion_bubble_loop
                0x00000000802eaef8                bhv_respawner_loop
                0x00000000802eaf84                create_respawner
                0x00000000802eb05c                bhv_small_bully_init
                0x00000000802eb104                bhv_big_bully_init
                0x00000000802eb1c0                BullyCheckMarioCollision
                0x00000000802eb288                BullyChaseMarioLoop
                0x00000000802eb3f0                BullyKnockbackLoop
                0x00000000802eb510                BullyBackUpLoop
                0x00000000802eb5c4                BullyBackUpCheck
                0x00000000802eb630                PlayBullyStompingSound
                0x00000000802eb744                BullyStep
                0x00000000802eb7e0                BullySpawnCoin
                0x00000000802eb8b0                BullyLavaDeath
                0x00000000802eb9d0                bhv_bully_loop
                0x00000000802ebb74                BigBullySpawnMinion
                0x00000000802ebc00                bhv_big_bully_with_minions_init
                0x00000000802ebc88                BigBullyWithMinionsLavaDeath
                0x00000000802ebce0                bhv_big_bully_with_minions_loop
                0x00000000802ebf70                WaterRingCalcMarioDistInFront
                0x00000000802ec030                WaterRingInit
                0x00000000802ec1b0                bhv_jet_stream_water_ring_init
                0x00000000802ec200                CheckWaterRingCollection
                0x00000000802ec3d0                SetWaterRingScale
                0x00000000802ec4e0                WaterRingCollectedLoop
                0x00000000802ec59c                JetStreamWaterRingNotCollectedLoop
                0x00000000802ec75c                bhv_jet_stream_water_ring_loop
                0x00000000802ec7cc                Unknown802EB8A4
                0x00000000802ec818                JetStreamRingSpawnerActiveLoop
                0x00000000802ec908                bhv_jet_stream_ring_spawner_loop
                0x00000000802ec9b8                bhv_manta_ray_water_ring_init
                0x00000000802ec9f0                MantaRayWaterRingNotCollectedLoop
                0x00000000802ecba4                bhv_manta_ray_water_ring_loop
                0x00000000802ecc14                bhv_bowser_bomb_loop
                0x00000000802ecd0c                bhv_bowser_bomb_explosion_loop
                0x00000000802ecea0                bhv_bowser_bomb_smoke_loop
                0x00000000802ecfac                bhv_celebration_star_init
                0x00000000802ed10c                CelebrationStarSpinAroundMarioLoop
                0x00000000802ed28c                CelebrationStarFaceCameraLoop
                0x00000000802ed39c                bhv_celebration_star_loop
                0x00000000802ed40c                bhv_celebration_star_sparkle_loop
                0x00000000802ed45c                bhv_star_key_collection_puff_spawner_loop
                0x00000000802ed498                bhv_lll_drawbridge_spawner_loop
                0x00000000802ed62c                bhv_lll_drawbridge_loop
                0x00000000802ed78c                bhv_small_bomp_init
                0x00000000802ed7fc                bhv_small_bomp_loop
                0x00000000802edacc                bhv_large_bomp_init
                0x00000000802edb2c                bhv_large_bomp_loop
                0x00000000802eddfc                bhv_wf_sliding_platform_init
                0x00000000802edf28                bhv_wf_sliding_platform_loop
                0x00000000802ee124                bhv_moneybag_init
                0x00000000802ee1a0                MoneybagCheckMarioCollision
                0x00000000802ee268                MoneybagJump
                0x00000000802ee46c                MoneybagMoveAroundLoop
                0x00000000802ee598                MoneybagReturnHomeLoop
                0x00000000802ee728                MoneybagDisappearLoop
                0x00000000802ee778                MoneybagDeathLoop
                0x00000000802ee7e0                bhv_moneybag_loop
                0x00000000802ee8f4                bhv_moneybag_hidden_loop
                0x00000000802ee9cc                bhv_bowling_ball_init
                0x00000000802eea24                func_802EDA14
                0x00000000802eea7c                func_802EDA6C
                0x00000000802eeb64                bhv_bowling_ball_roll_loop
                0x00000000802eecb8                bhv_bowling_ball_initializeLoop
                0x00000000802eedf0                bhv_bowling_ball_loop
                0x00000000802eeeb4                bhv_generic_bowling_ball_spawner_init
                0x00000000802eef9c                bhv_generic_bowling_ball_spawner_loop
                0x00000000802ef0e8                bhv_thi_bowling_ball_spawner_loop
                0x00000000802ef21c                bhv_bob_pit_bowling_ball_init
                0x00000000802ef274                bhv_bob_pit_bowling_ball_loop
                0x00000000802ef34c                bhv_free_bowling_ball_init
                0x00000000802ef3f4                bhv_free_bowling_ball_roll_loop
                0x00000000802ef524                bhv_free_bowling_ball_loop
                0x00000000802ef63c                bhv_rr_cruiser_wing_init
                0x00000000802ef66c                bhv_rr_cruiser_wing_loop
                0x00000000802ef820                bhv_spindel_init
                0x00000000802ef858                bhv_spindel_loop
                0x00000000802efcd0                bhv_ssl_moving_pyramid_wall_init
                0x00000000802efd8c                bhv_ssl_moving_pyramid_wall_loop
                0x00000000802efe64                bhv_pyramid_elevator_init
                0x00000000802efef4                bhv_pyramid_elevator_loop
                0x00000000802f0104                bhv_pyramid_elevator_metal_balls_loop
                0x00000000802f0168                bhv_pyramid_top_init
                0x00000000802f0288                func_802EF238
                0x00000000802f04a0                func_802EF450
                0x00000000802f05b4                bhv_pyramid_top_loop
                0x00000000802f06a8                bhv_pyramid_top_explosion_init
                0x00000000802f0714                bhv_pyramid_top_explosion_loop
                0x00000000802f0788                bhv_collision_box_sub_bhvavior_loop
                0x00000000802f07f4                BehWaterfallSoundLoop
                0x00000000802f0820                BehVolcanoSoundLoop
                0x00000000802f084c                BehCastleFlagWavingInit
                0x00000000802f0898                BehBirdsSoundLoop
                0x00000000802f0950                BehAmbiantSoundsInit
                0x00000000802f09a4                BehSandSoundLoop
                0x00000000802f09f0                BehHiddenAt120StarsInit
                0x00000000802f0a40                bhv_snowmans_bottom_init
                0x00000000802f0b7c                func_802EFB2C
                0x00000000802f0bd4                func_802EFB84
                0x00000000802f0c94                func_802EFC44
                0x00000000802f0df0                func_802EFDA0
                0x00000000802f0fa8                func_802EFF58
                0x00000000802f105c                bhv_snowmans_bottom_loop
                0x00000000802f120c                bhv_snowmans_head_init
                0x00000000802f1370                bhv_snowmans_head_loop
                0x00000000802f151c                bhv_snowmans_body_checkpoint_loop
                0x00000000802f15a8                bhv_big_boulder_init
                0x00000000802f162c                func_802F05DC
                0x00000000802f1714                bhv_big_boulder_loop
                0x00000000802f17f0                bhv_big_boulder_generator_loop
                0x00000000802f1954                func_802F0904
                0x00000000802f19c8                func_802F0978
                0x00000000802f1a10                func_802F09C0
                0x00000000802f1bb8                func_802F0B68
                0x00000000802f1d64                bhv_wing_cap_init
                0x00000000802f1dc0                func_802F0D70
                0x00000000802f1e5c                func_802F0E0C
                0x00000000802f1f3c                bhv_wing_vanish_cap_loop
                0x00000000802f1fd0                bhv_metal_cap_init
                0x00000000802f2030                func_802F0FE0
                0x00000000802f20ac                bhv_metal_cap_loop
                0x00000000802f2140                bhv_normal_cap_init
                0x00000000802f21e0                func_802F1190
                0x00000000802f2284                func_802F1234
                0x00000000802f23a8                bhv_normal_cap_loop
                0x00000000802f2498                bhv_vanish_cap_init
                0x00000000802f24f4                bhv_collect_star_init
                0x00000000802f25b0                bhv_collect_star_loop
                0x00000000802f2614                bhv_star_spawn_init
                0x00000000802f2768                bhv_star_spawn_loop
                0x00000000802f2aa0                func_802F1A50
                0x00000000802f2b88                CreateStar
                0x00000000802f2bd4                func_802F1B84
                0x00000000802f2c24                func_802F1BD4
                0x00000000802f2c84                bhv_hidden_red_coin_star_init
                0x00000000802f2d8c                bhv_hidden_red_coin_star_loop
                0x00000000802f2e6c                bhv_red_coin_init
                0x00000000802f2f2c                bhv_red_coin_loop
                0x00000000802f3014                bhv_hidden_star_init
                0x00000000802f30f0                bhv_hidden_star_loop
                0x00000000802f31bc                bhv_hidden_star_trigger_loop
                0x00000000802f328c                bhv_bowser_course_red_coin_star_loop
                0x00000000802f336c                bhv_ttm_rolling_log_init
                0x00000000802f341c                func_802F238C
                0x00000000802f36a4                bhv_rolling_log_loop
                0x00000000802f38b0                func_802F2820
                0x00000000802f39b4                func_802F2924
                0x00000000802f3a30                bhvLllVolcanoFallingTrap_loop
                0x00000000802f3b98                bhv_lll_rolling_log_init
                0x00000000802f3c54                bhv_1up_interact
                0x00000000802f3cc8                bhv_1up_common_init
                0x00000000802f3d30                bhv_1up_init
                0x00000000802f3dd0                func_802F2D40
                0x00000000802f3ea8                func_802F2E18
                0x00000000802f401c                func_802F2F8C
                0x00000000802f40cc                bhv_1up_walking_loop
                0x00000000802f4248                bhv_1up_running_away_loop
                0x00000000802f43b8                func_802F3328
                0x00000000802f44c0                bhv_1up_sliding_loop
                0x00000000802f45b8                bhv_1up_loop
                0x00000000802f45f0                bhv_1up_jump_on_approach_loop
                0x00000000802f4710                bhv_1up_hidden_loop
                0x00000000802f48f4                bhv_1up_hidden_trigger_loop
                0x00000000802f496c                bhv_1up_hidden_in_pole_loop
                0x00000000802f4b00                bhv_1up_hidden_in_pole_trigger_loop
                0x00000000802f4b78                bhv_1up_hidden_in_pole_spawner_loop
                0x00000000802f4c68                func_802F3BD8
                0x00000000802f4ce0                func_802F3C50
                0x00000000802f4d78                bhv_controllable_platform_sub_loop
                0x00000000802f4eb4                bhv_controllable_platform_init
                0x00000000802f5010                func_802F3F80
                0x00000000802f5068                func_802F3FD8
                0x00000000802f52c0                func_802F4230
                0x00000000802f547c                func_802F43EC
                0x00000000802f55a4                bhv_controllable_platform_loop
                0x00000000802f5cd4                bhv_breakable_box_small_init
                0x00000000802f5d78                func_802F4CE8
                0x00000000802f5e44                func_802F4DB4
                0x00000000802f5f48                breakable_box_small_released_loop
                0x00000000802f6014                breakable_box_small_idle_loop
                0x00000000802f60d8                breakable_box_small_get_dropped
                0x00000000802f6150                breakable_box_small_get_thrown
                0x00000000802f6228                bhv_breakable_box_small_loop
                0x00000000802f62e4                bhv_sliding_snow_mound_loop
                0x00000000802f6448                bhv_snow_mound_spawn_loop
                0x00000000802f6588                func_802F54F8
                0x00000000802f665c                func_802F55CC
                0x00000000802f6984                bhv_floating_platform_loop
                0x00000000802f6a44                func_802F59B4
                0x00000000802f6b2c                func_802F5A9C
                0x00000000802f6c0c                bhv_arrow_lift_loop
                0x00000000802f6d20                bhv_orange_number_init
                0x00000000802f6d58                bhv_orange_number_loop
                0x00000000802f6e40                bhv_manta_ray_init
                0x00000000802f6eb0                func_802F5E20
                0x00000000802f7068                func_802F5FD8
                0x00000000802f7264                bhv_manta_ray_loop
                0x00000000802f7348                bhv_falling_pillar_init
                0x00000000802f7398                func_802F6308
                0x00000000802f7418                func_802F6388
                0x00000000802f74dc                bhv_falling_pillar_loop
                0x00000000802f7760                bhv_some_subobject_falling_pillar_loop
                0x00000000802f7924                bhv_jrb_floating_box_loop
                0x00000000802f7978                bhv_oscillating_pendulum_init
                0x00000000802f79b0                bhv_oscillating_pendulum_loop
                0x00000000802f7a58                bhv_treasure_chest_top_loop
                0x00000000802f7c9c                bhv_treasure_chest_bottom_init
                0x00000000802f7d04                bhv_treasure_chest_bottom_loop
                0x00000000802f7f1c                func_802F6E8C
                0x00000000802f7fa0                bhv_treasure_chest_ship_init
                0x00000000802f8044                bhv_treasure_chest_ship_loop
                0x00000000802f8158                bhv_treasure_chest_jrb_init
                0x00000000802f8208                bhv_treasure_chest_jrb_loop
                0x00000000802f82f8                bhv_treasure_chest_init
                0x00000000802f83a4                bhv_treasure_chest_loop
                0x00000000802f8490                bhv_mips_init
                0x00000000802f85e0                func_802F7528
                0x00000000802f8760                func_802F76A8
                0x00000000802f8808                func_802F7750
                0x00000000802f893c                func_802F788C
                0x00000000802f8988                func_802F78D8
                0x00000000802f8a34                func_802F7984
                0x00000000802f8ab4                func_802F7A04
                0x00000000802f8b54                func_802F7AA4
                0x00000000802f8c74                func_802F7BC4
                0x00000000802f8cf8                func_802F7C48
                0x00000000802f8dac                bhv_mips_loop
                0x00000000802f8e54                bhv_yoshi_init
                0x00000000802f8f08                yoshi_walk_loop
                0x00000000802f9054                yoshi_idle_loop
                0x00000000802f923c                yoshi_talk_loop
                0x00000000802f93a8                yoshi_walk_and_jump_off_roof_loop
                0x00000000802f9500                yoshi_finish_jumping_and_despawn_loop
                0x00000000802f95ac                yoshi_give_present_loop
                0x00000000802f965c                BehYoshiLoop
 build/us/src/game/obj_behaviors_2.o(.text)
 .text          0x00000000802f9730    0x1b300 build/us/src/game/obj_behaviors_2.o
                0x00000000802f9730                obj_is_rendering_enabled
                0x00000000802f9770                obj_get_pitch_from_vel
                0x00000000802f97bc                obj_update_race_proposition_dialogue
                0x00000000802f9820                obj_set_dist_from_home
                0x00000000802f9890                obj_is_near_to_and_facing_mario
                0x00000000802f9904                obj_perform_position_op
                0x00000000802f9a28                platform_on_track_update_pos_or_spawn_ball
                0x00000000802f9e28                func_802F8D78
                0x00000000802fa158                obj_rotate_yaw_and_bounce_off_walls
                0x00000000802fa1b0                obj_get_pitch_to_home
                0x00000000802fa1f8                obj_compute_vel_from_move_pitch
                0x00000000802fa25c                clamp_s16
                0x00000000802fa2bc                clamp_f32
                0x00000000802fa32c                func_802F927C
                0x00000000802fa360                func_802F92B0
                0x00000000802fa39c                func_802F92EC
                0x00000000802fa3dc                func_802F932C
                0x00000000802fa428                func_802F9378
                0x00000000802fa4c4                obj_turn_pitch_toward_mario
                0x00000000802fa544                approach_f32_ptr
                0x00000000802fa5d0                obj_forward_vel_approach
                0x00000000802fa618                obj_y_vel_approach
                0x00000000802fa660                obj_move_pitch_approach
                0x00000000802fa6d4                obj_face_pitch_approach
                0x00000000802fa748                obj_face_yaw_approach
                0x00000000802fa7bc                obj_face_roll_approach
                0x00000000802fa830                obj_smooth_turn
                0x00000000802fa900                obj_roll_to_match_yaw_turn
                0x00000000802fa964                random_linear_offset
                0x00000000802fa9d8                random_mod_offset
                0x00000000802faa64                obj_random_fixed_turn
                0x00000000802faac8                obj_grow_then_shrink
                0x00000000802fac18                oscillate_toward
                0x00000000802fad34                obj_update_blinking
                0x00000000802fadd4                obj_resolve_object_collisions
                0x00000000802fb01c                obj_bounce_off_walls_edges_objects
                0x00000000802fb0cc                obj_resolve_collisions_and_turn
                0x00000000802fb128                obj_die_if_health_non_positive
                0x00000000802fb254                obj_unused_die
                0x00000000802fb288                obj_set_knockback_action
                0x00000000802fb3a0                obj_set_squished_action
                0x00000000802fb3dc                obj_die_if_above_lava_and_health_non_positive
                0x00000000802fb518                obj_handle_attacks
                0x00000000802fb6e8                obj_act_knockback
                0x00000000802fb778                obj_act_squished
                0x00000000802fb87c                obj_update_standard_actions
                0x00000000802fb938                obj_check_attacks
                0x00000000802fba40                obj_move_for_one_second
                0x00000000802fbab4                treat_far_home_as_mario
                0x00000000802fbc4c                bhv_koopa_init
                0x00000000802fbd5c                koopa_play_footstep_sound
                0x00000000802fbdd4                koopa_check_run_from_mario
                0x00000000802fbe50                koopa_shelled_act_stopped
                0x00000000802fbecc                koopa_walk_start
                0x00000000802fbf58                koopa_walk
                0x00000000802fbfdc                koopa_walk_stop
                0x00000000802fc03c                koopa_shelled_act_walk
                0x00000000802fc16c                koopa_shelled_act_run_from_mario
                0x00000000802fc288                koopa_dive_update_speed
                0x00000000802fc338                koopa_shelled_act_lying
                0x00000000802fc414                shelled_koopa_attack_handler
                0x00000000802fc510                koopa_shelled_update
                0x00000000802fc670                koopa_unshelled_act_run
                0x00000000802fc914                koopa_unshelled_act_dive
                0x00000000802fcaf4                koopa_unshelled_act_unused3
                0x00000000802fcb1c                koopa_unshelled_update
                0x00000000802fcc00                obj_begin_race
                0x00000000802fccc8                koopa_the_quick_act_wait_before_race
                0x00000000802fcd64                koopa_the_quick_act_show_init_text
                0x00000000802fce94                koopa_the_quick_detect_bowling_ball
                0x00000000802fd014                koopa_the_quick_animate_footsteps
                0x00000000802fd068                koopa_the_quick_act_race
                0x00000000802fd3e4                koopa_the_quick_act_decelerate
                0x00000000802fd464                koopa_the_quick_act_stop
                0x00000000802fd4b0                koopa_the_quick_act_after_race
                0x00000000802fd6ac                koopa_the_quick_update
                0x00000000802fd7f8                bhv_koopa_update
                0x00000000802fd950                bhv_koopa_race_endpoint_update
                0x00000000802fda28                bhv_pokey_body_part_update
                0x00000000802fdea8                pokey_act_uninitialized
                0x00000000802fdfc4                pokey_act_wander
                0x00000000802fe37c                pokey_act_unload_parts
                0x00000000802fe3b0                bhv_pokey_update
                0x00000000802fe450                swoop_act_idle
                0x00000000802fe520                swoop_act_move
                0x00000000802fe8b4                bhv_swoop_update
                0x00000000802fe988                fly_guy_act_idle
                0x00000000802feb00                fly_guy_act_approach_mario
                0x00000000802fed50                fly_guy_act_lunge
                0x00000000802fef18                fly_guy_act_shoot_fire
                0x00000000802ff040                bhv_fly_guy_update
                0x00000000802ff214                bhv_goomba_triplet_spawner_update
                0x00000000802ff408                bhv_goomba_init
                0x00000000802ff518                goomba_begin_jump
                0x00000000802ff584                mark_goomba_as_dead
                0x00000000802ff600                goomba_act_walk
                0x00000000802ff868                goomba_act_attacked_mario
                0x00000000802ff8e8                goomba_act_jump
                0x00000000802ff94c                huge_goomba_weakly_attacked
                0x00000000802ff96c                bhv_goomba_update
                0x00000000802ffb38                bhv_chain_chomp_chain_part_update
                0x00000000802ffc60                chain_chomp_act_uninitialized
                0x00000000802ffdac                chain_chomp_update_chain_segments
                0x000000008030009c                chain_chomp_restore_normal_chain_lengths
                0x00000000803000e4                chain_chomp_sub_act_turn
                0x00000000803002f4                chain_chomp_sub_act_lunge
                0x00000000803004f0                chain_chomp_released_trigger_cutscene
                0x000000008030059c                chain_chomp_released_lunge_around
                0x0000000080300778                chain_chomp_released_break_gate
                0x00000000803008a8                chain_chomp_released_jump_away
                0x00000000803008ec                chain_chomp_released_end_cutscene
                0x0000000080300940                chain_chomp_act_move
                0x0000000080300dd4                chain_chomp_act_unload_chain
                0x0000000080300e40                bhv_chain_chomp_update
                0x0000000080300ecc                bhv_wooden_post_update
                0x0000000080301148                bhv_chain_chomp_gate_init
                0x0000000080301180                bhv_chain_chomp_gate_update
                0x0000000080301210                bhv_wiggler_body_part_update
                0x00000000803014cc                wiggler_init_segments
                0x00000000803016e0                wiggler_update_segments
                0x0000000080301940                wiggler_act_walk
                0x0000000080301c88                wiggler_act_jumped_on
                0x0000000080301e84                wiggler_act_knockback
                0x0000000080301f70                wiggler_act_shrink
                0x0000000080302024                wiggler_act_fall_through_floor
                0x00000000803020e4                wiggler_jumped_on_attack_handler
                0x0000000080302154                bhv_wiggler_update
                0x0000000080302358                spiny_check_active
                0x00000000803023e4                spiny_act_walk
                0x000000008030267c                spiny_act_held_by_lakitu
                0x00000000803027ac                spiny_act_thrown_by_lakitu
                0x0000000080302910                bhv_spiny_update
                0x00000000803029b8                enemy_lakitu_act_uninitialized
                0x0000000080302a54                enemy_lakitu_update_vel_y
                0x0000000080302b20                enemy_lakitu_update_speed_and_angle
                0x0000000080302c84                enemy_lakitu_sub_act_no_spiny
                0x0000000080302db0                enemy_lakitu_sub_act_hold_spiny
                0x0000000080302e84                enemy_lakitu_sub_act_throw_spiny
                0x0000000080302f04                enemy_lakitu_act_main
                0x0000000080303028                bhv_enemy_lakitu_update
                0x00000000803030a8                cloud_act_spawn_parts
                0x00000000803031b4                cloud_act_fwoosh_hidden
                0x000000008030320c                cloud_fwoosh_update
                0x0000000080303498                cloud_act_main
                0x0000000080303634                cloud_act_unload
                0x000000008030369c                bhv_cloud_update
                0x0000000080303744                bhv_cloud_part_update
                0x0000000080303984                bhv_camera_lakitu_init
                0x0000000080303a20                camera_lakitu_intro_act_trigger_cutscene
                0x0000000080303b08                camera_lakitu_intro_act_spawn_cloud
                0x0000000080303c14                camera_lakitu_intro_act_show_dialogue
                0x0000000080303f64                bhv_camera_lakitu_update
                0x00000000803041a0                link_objects_with_behavior
                0x0000000080304274                monty_mole_select_available_hole
                0x00000000803043f8                bhv_monty_mole_hole_update
                0x0000000080304474                monty_mole_spawn_dirt_particles
                0x00000000803044c0                bhv_monty_mole_init
                0x00000000803044dc                monty_mole_act_select_hole
                0x0000000080304710                monty_mole_act_rise_from_hole
                0x00000000803047ac                monty_mole_act_spawn_rock
                0x0000000080304864                monty_mole_act_begin_jump_into_hole
                0x00000000803048ec                monty_mole_act_throw_rock
                0x0000000080304958                monty_mole_act_jump_into_hole
                0x0000000080304a14                monty_mole_hide_in_hole
                0x0000000080304a70                monty_mole_act_hide
                0x0000000080304ae0                monty_mole_act_jump_out_of_hole
                0x0000000080304ba8                bhv_monty_mole_update
                0x0000000080304e28                monty_mole_rock_act_held
                0x0000000080304f74                monty_mole_rock_act_move
                0x0000000080304fd4                bhv_monty_mole_rock_update
                0x000000008030505c                platform_on_track_reset
                0x000000008030508c                platform_on_track_mario_not_on_platform
                0x0000000080305100                bhv_platform_on_track_init
                0x000000008030522c                platform_on_track_act_init
                0x00000000803053dc                platform_on_track_act_wait_for_mario
                0x0000000080305474                platform_on_track_act_move_along_track
                0x000000008030586c                platform_on_track_act_pause_briefly
                0x00000000803058a4                platform_on_track_act_fall
                0x0000000080305904                platform_on_track_rock_ski_lift
                0x0000000080305a58                bhv_platform_on_track_update
                0x0000000080305bb0                bhv_track_ball_update
                0x0000000080305c14                bhv_seesaw_platform_init
                0x0000000080305c90                bhv_seesaw_platform_update
                0x0000000080305e2c                bhv_ferris_wheel_axle_init
                0x0000000080305f24                bhv_ferris_wheel_platform_update
                0x0000000080306084                bhv_water_bomb_spawner_update
                0x00000000803062a8                water_bomb_spawn_explode_particles
                0x0000000080306304                water_bomb_act_init
                0x0000000080306364                water_bomb_act_drop
                0x000000008030668c                water_bomb_act_explode
                0x00000000803066d8                water_bomb_act_shot_from_cannon
                0x00000000803067e8                bhv_water_bomb_update
                0x00000000803068c0                bhv_water_bomb_shadow_update
                0x000000008030699c                bhv_ttc_rotating_solid_init
                0x0000000080306a38                bhv_ttc_rotating_solid_update
                0x0000000080306cc4                bhv_ttc_pendulum_init
                0x0000000080306d38                bhv_ttc_pendulum_update
                0x0000000080306f48                bhv_ttc_treadmill_init
                0x0000000080307010                bhv_ttc_treadmill_update
                0x00000000803071b8                bhv_ttc_moving_bar_init
                0x0000000080307240                ttc_moving_bar_act_wait
                0x0000000080307348                ttc_moving_bar_act_pull_back
                0x00000000803073f8                ttc_moving_bar_reset
                0x0000000080307434                ttc_moving_bar_act_extend
                0x00000000803075f8                ttc_moving_bar_act_retract
                0x0000000080307670                bhv_ttc_moving_bar_update
                0x0000000080307760                bhv_ttc_cog_init
                0x00000000803077e0                bhv_ttc_cog_update
                0x0000000080307930                bhv_ttc_pit_block_init
                0x00000000803079c8                bhv_ttc_pit_block_update
                0x0000000080307ae4                bhv_ttc_elevator_init
                0x0000000080307b58                bhv_ttc_elevator_update
                0x0000000080307c88                bhv_ttc_2d_rotator_init
                0x0000000080307cf8                bhv_ttc_2d_rotator_update
                0x0000000080307ea4                bhv_ttc_spinner_update
                0x0000000080307fb8                func_80306ED4
                0x000000008030803c                bhv_mr_blizzard_init
                0x0000000080308110                func_8030702C
                0x0000000080308228                func_80307144
                0x00000000803082ec                func_80307208
                0x0000000080308454                func_80307370
                0x0000000080308734                func_80307650
                0x0000000080308a74                func_80307990
                0x0000000080308af0                func_80307A0C
                0x0000000080308bb8                func_80307AD4
                0x0000000080308d6c                bhv_mr_blizzard_update
                0x0000000080308f08                func_80307E24
                0x0000000080308f94                func_80307EB0
                0x00000000803090b8                func_80307FD4
                0x0000000080309154                bhv_mr_blizzard_snowball
                0x00000000803091e0                BehSlidingPlatform2Init
                0x0000000080309354                BehSlidingPlatform2Loop
                0x0000000080309454                BehOctagonalPlatformRotatingInit
                0x00000000803094d0                BehOctagonalPlatformRotatingLoop
                0x00000000803094f8                BehAnimatesOnFloorSwitchPressInit
                0x0000000080309530                BehAnimatesOnFloorSwitchPressLoop
                0x00000000803097a4                bhv_activated_back_and_forth_platform_init
                0x00000000803098c0                bhv_activated_back_and_forth_platform_update
                0x0000000080309b64                bhv_recovery_heart_loop
                0x0000000080309cec                BehCannonBarrelBubblesLoop
                0x0000000080309ed4                func_80308DF0
                0x0000000080309f68                func_80308E84
                0x000000008030a0e8                func_80309004
                0x000000008030a11c                BehWaterBombCannonLoop
                0x000000008030a1c0                BehUnagiInit
                0x000000008030a2a8                func_803091C4
                0x000000008030a390                func_803092AC
                0x000000008030a514                func_80309430
                0x000000008030a614                func_80309530
                0x000000008030a93c                BehUnagiLoop
                0x000000008030aabc                BehUnagiSubobjectLoop
                0x000000008030ad04                dorrie_raise_head
                0x000000008030ae9c                dorrie_act_move
                0x000000008030b0b8                dorrie_begin_head_raise
                0x000000008030b0f0                dorrie_act_lower_head
                0x000000008030b220                dorrie_act_raise_head
                0x000000008030b2f4                bhv_dorrie_update
                0x000000008030b658                BehHauntedChairInit
                0x000000008030b6d8                func_8030A5D8
                0x000000008030ba68                func_8030A968
                0x000000008030bc90                BehHauntedChairLoop
                0x000000008030bd2c                mad_piano_act_wait
                0x000000008030bdf8                mad_piano_act_attack
                0x000000008030bfd0                bhv_mad_piano_update
                0x000000008030c06c                func_8030AF6C
                0x000000008030c0f0                func_8030AFF0
                0x000000008030c210                func_8030B110
                0x000000008030c2c8                func_8030B1C8
                0x000000008030c364                BehFlyingBookendLoop
                0x000000008030c4b0                BehBookendSpawnLoop
                0x000000008030c564                func_8030B464
                0x000000008030c60c                func_8030B50C
                0x000000008030c6a4                func_8030B5A4
                0x000000008030c828                func_8030B728
                0x000000008030c894                func_8030B794
                0x000000008030c8ec                BehBookshelfThingLoop
                0x000000008030c98c                BehBookSwitchLoop
                0x000000008030cd30                obj_spit_fire
                0x000000008030cddc                bhv_fire_piranha_plant_init
                0x000000008030cec0                fire_piranha_plant_act_hide
                0x000000008030d140                fire_piranha_plant_act_grow
                0x000000008030d2f0                bhv_fire_piranha_plant_update
                0x000000008030d42c                fire_spitter_act_idle
                0x000000008030d4d4                fire_spitter_act_spit_fire
                0x000000008030d598                bhv_fire_spitter_update
                0x000000008030d640                BehSmallPiranhaFlameLoop
                0x000000008030d8d4                BehFlyGuyFlameLoop
                0x000000008030d93c                Geo18_8030D93C
                0x000000008030d9ac                Geo18_8030D9AC
                0x000000008030da14                func_8030C914
                0x000000008030db38                func_8030CA38
                0x000000008030dc70                BehSnufitLoop
                0x000000008030dfc4                BehSnufitBallsLoop
                0x000000008030e14c                bhv_horizontal_grindel_init
                0x000000008030e16c                bhv_horizontal_grindel_update
                0x000000008030e384                func_8030D284
                0x000000008030e3e0                eyerok_spawn_hand
                0x000000008030e488                eyerok_boss_act_sleep
                0x000000008030e52c                eyerok_boss_act_wake_up
                0x000000008030e688                eyerok_boss_act_show_intro_text
                0x000000008030e6d4                eyerok_boss_act_fight
                0x000000008030e9e0                eyerok_boss_act_die
                0x000000008030ea9c                bhv_eyerok_boss_loop
                0x000000008030eb3c                eyerok_hand_check_attacked
                0x000000008030eca8                func_8030DBA8
                0x000000008030ecf8                eyerok_hand_act_sleep
                0x000000008030ef08                eyerok_hand_act_idle
                0x000000008030f118                eyerok_hand_act_open
                0x000000008030f21c                eyerok_hand_act_show_eye
                0x000000008030f440                eyerok_hand_act_close
                0x000000008030f508                eyerok_hand_act_attacked
                0x000000008030f58c                eyerok_hand_act_recover
                0x000000008030f5cc                eyerok_hand_act_become_active
                0x000000008030f628                eyerok_hand_act_die
                0x000000008030f6bc                eyerok_hand_act_retreat
                0x000000008030f840                eyerok_hand_act_target_mario
                0x000000008030f9c0                eyerok_hand_act_smash
                0x000000008030fb3c                eyerok_hand_act_fist_push
                0x000000008030fc34                eyerok_hand_act_fist_sweep
                0x000000008030fcf4                eyerok_hand_act_begin_double_pound
                0x000000008030fe38                eyerok_hand_act_double_pound
                0x000000008030fff8                bhv_eyerok_hand_loop
                0x00000000803101dc                klepto_target_mario
                0x0000000080310258                func_8030F158
                0x0000000080310318                func_8030F218
                0x0000000080310498                bhv_klepto_init
                0x000000008031054c                klepto_change_target
                0x0000000080310774                klepto_circle_target
                0x000000008031097c                klepto_approach_target
                0x0000000080310a7c                klepto_act_wait_for_mario
                0x0000000080310b2c                klepto_act_turn_toward_mario
                0x0000000080310c3c                klepto_act_dive_at_mario
                0x0000000080310f04                klepto_act_struck_by_mario
                0x0000000080311018                klepto_act_retreat
                0x000000008031111c                klepto_act_reset_position
                0x000000008031126c                obj_set_speed_to_zero
                0x000000008031129c                bhv_klepto_update
                0x000000008031157c                bird_act_init
                0x00000000803116c0                bird_act_fly
                0x0000000080311874                bhv_bird_update
                0x00000000803118e4                bhv_racing_penguin_init
                0x0000000080311954                racing_penguin_act_wait_for_mario
                0x00000000803119e4                racing_penguin_act_show_init_text
                0x0000000080311b18                racing_penguin_act_prepare_for_race
                0x0000000080311b7c                racing_penguin_act_race
                0x0000000080311dd8                racing_penguin_act_finish_race
                0x0000000080311ea4                racing_penguin_act_show_final_text
                0x0000000080312070                bhv_racing_penguin_update
                0x0000000080312168                bhv_penguin_race_finish_line_update
                0x0000000080312200                bhv_penguin_race_shortcut_check_update
                0x0000000080312248                BehHauntedRoomCheckLoop
                0x0000000080312370                func_80311264
                0x000000008031262c                func_80311520
                0x000000008031274c                BehHauntedRoomCheckSubobjectLoop
                0x0000000080312804                func_803116F8
                0x0000000080312900                func_803117F4
                0x0000000080312a54                BehClamShellLoop
                0x0000000080312af4                skeeter_spawn_waves
                0x0000000080312b80                skeeter_act_idle
                0x0000000080312d0c                skeeter_act_lunge
                0x0000000080312ea8                skeeter_act_walk
                0x0000000080313110                bhv_skeeter_update
                0x00000000803131e8                bhv_skeeter_wave_update
                0x000000008031326c                bhv_swing_platform_init
                0x0000000080313294                bhv_swing_platform_update
                0x0000000080313354                bhv_donut_platform_spawner_update
                0x0000000080313530                bhv_donut_platform_update
                0x00000000803136cc                bhv_ddd_pole_init
                0x0000000080313754                bhv_ddd_pole_update
                0x00000000803137f4                bhv_red_coin_star_marker_init
                0x000000008031381c                triplet_butterfly_act_init
                0x00000000803139f0                triplet_butterfly_act_wander
                0x0000000080313be4                triplet_butterfly_act_activate
                0x0000000080313e1c                triplet_butterfly_act_explode
                0x0000000080313fc0                bhv_triplet_butterfly_update
                0x0000000080314098                func_80312F8C
                0x000000008031427c                func_80313170
                0x00000000803145d4                BehBubbaLoop
 build/us/src/audio/something.o(.text)
 .text          0x0000000080314a30     0x2450 build/us/src/audio/something.o
                0x0000000080314de4                func_80313CD4
                0x0000000080314f64                func_80313E54
                0x0000000080315590                func_80314480
                0x0000000080316010                func_80314F08
                0x00000000803160dc                func_80314FD4
                0x0000000080316138                func_80315030
                0x000000008031619c                func_80315094
                0x00000000803166fc                func_803155F4
                0x0000000080316ac8                func_803159C0
                0x0000000080316af4                func_803159EC
                0x0000000080316da8                func_80315D88
                0x0000000080316db4                func_80315D94
                0x0000000080316e00                func_80315DE0
 build/us/src/audio/dac.o(.text)
 .text          0x0000000080316e80     0x11c0 build/us/src/audio/dac.o
                0x0000000080316e80                func_80315E60
                0x0000000080316ec4                func_80315EA4
                0x0000000080316fb4                func_80315F94
                0x0000000080317040                soundAlloc
                0x00000000803170b4                func_80316094
                0x00000000803170d4                func_803160B4
                0x00000000803170e8                func_803160C8
                0x0000000080317118                unused_803160F8
                0x0000000080317128                func_80316108
                0x0000000080317184                func_80316164
                0x0000000080317200                func_803161E0
                0x000000008031727c                func_8031625C
                0x0000000080317338                func_80316318
                0x00000000803173f4                unused_803163D4
                0x00000000803173fc                func_803163DC
                0x000000008031782c                func_8031680C
                0x00000000803178ec                func_803168CC
                0x0000000080317914                func_803168F4
                0x0000000080317948                func_80316928
                0x0000000080317bf0                L80317BF0
                0x0000000080317bfc                L80317BFC
                0x0000000080317c0c                L80317C0C
                0x0000000080317c1c                L80317C1C
                0x0000000080317c2c                L80317C2C
                0x0000000080317c3c                L80317C3C
 build/us/src/audio/dma.o(.text)
 .text          0x0000000080318040     0x18e0 build/us/src/audio/dma.o
                0x0000000080318040                BlockDmaCopy
                0x00000000803180c4                func_80317034
                0x0000000080318130                func_803170A0
                0x00000000803181ec                func_8031715C
                0x0000000080318300                func_80317270
                0x0000000080318634                func_8031758C
                0x00000000803188f4                func_8031784C
                0x0000000080318b30                func_80317A88
                0x0000000080318c8c                func_80317BE4
                0x0000000080318dc4                func_80317D1C
                0x0000000080318e70                func_80317DC8
                0x0000000080318fac                func_80317F04
                0x00000000803190f4                func_8031804C
                0x0000000080319220                func_80318178
                0x0000000080319328                func_80318280
                0x0000000080319388                func_803182E0
                0x000000008031950c                InitAudioSystem
 build/us/src/audio/playback.o(.text)
 .text          0x0000000080319920     0x15c0 build/us/src/audio/playback.o
                0x0000000080319920                func_80318870
                0x0000000080319998                func_803188E8
                0x00000000803199b8                func_80318908
                0x0000000080319db8                func_80318D18
                0x0000000080319f64                func_80318EC4
                0x0000000080319f84                func_80318EE4
                0x0000000080319fa4                func_80318F04
                0x000000008031a1d0                func_80319164
                0x000000008031a254                func_803191E8
                0x000000008031a264                func_803191F8
                0x000000008031a2b4                func_80319248
                0x000000008031a368                func_803192FC
                0x000000008031a494                func_80319428
                0x000000008031a5d0                func_80319564
                0x000000008031a610                func_803195A4
                0x000000008031a63c                func_803195D0
                0x000000008031a6cc                func_80319660
                0x000000008031a794                func_80319728
                0x000000008031a7c8                func_8031975C
                0x000000008031a820                func_803197B4
                0x000000008031a89c                func_80319830
                0x000000008031a8f0                func_80319884
                0x000000008031a94c                func_803198E0
                0x000000008031ac34                func_80319BC8
                0x000000008031adac                func_80319D40
 build/us/src/audio/playback2.o(.text)
 .text          0x000000008031aee0      0x950 build/us/src/audio/playback2.o
                0x000000008031aee0                func_80319E70
                0x000000008031aee8                func_80319E78
                0x000000008031b0cc                func_8031A078
                0x000000008031b1c0                func_8031A17C
                0x000000008031b248                func_8031A204
                0x000000008031b440                func_8031A418
                0x000000008031b4a0                func_8031A478
                0x000000008031b58c                func_8031A564
                0x000000008031b5ac                func_8031A584
 build/us/src/audio/interface_1.o(.text)
 .text          0x000000008031b830     0x2cc0 build/us/src/audio/interface_1.o
                0x000000008031b830                func_8031A810
                0x000000008031b940                func_8031A920
                0x000000008031ba30                func_8031AA10
                0x000000008031ba6c                func_8031AA4C
                0x000000008031baf0                func_8031AAD0
                0x000000008031bb5c                func_8031AB3C
                0x000000008031bba4                func_8031AB84
                0x000000008031bcd0                func_8031ACB0
                0x000000008031bda0                func_8031AD80
                0x000000008031be44                func_8031AE24
                0x000000008031bf14                func_8031AEF4
                0x000000008031bf54                func_8031AF34
                0x000000008031bf94                func_8031AF74
                0x000000008031c03c                func_8031B01C
                0x000000008031c050                func_8031B030
                0x000000008031c080                func_8031B060
                0x000000008031c0c4                func_8031B0A4
                0x000000008031c200                L_U_8031C200
                0x000000008031c23c                L_U_8031C23C
                0x000000008031c298                L_U_8031C298
                0x000000008031c2dc                L_U_8031C2DC
                0x000000008031c328                L_U_8031C328
                0x000000008031c36c                L_U_8031C36C
                0x000000008031c3bc                L_U_8031C3BC
                0x000000008031c3e8                L_U_8031C3E8
                0x000000008031c454                L_U_8031C454
                0x000000008031c4a4                L_U_8031C4A4
                0x000000008031c5c8                L_U_8031C5C8
                0x000000008031c698                L_U_8031C698
                0x000000008031c6a0                L_U_8031C6A0
                0x000000008031cbe0                L_U_8031CBE0
                0x000000008031cbec                L_U_8031CBEC
                0x000000008031ce54                func_8031BEB0
                0x000000008031cfd4                SetInstrument
                0x000000008031d068                func_8031C0C4
                0x000000008031d08c                func_8031C104
                0x000000008031d144                L_U_8031D144
                0x000000008031d1f8                L_U_8031D1F8
                0x000000008031d234                L_U_8031D234
                0x000000008031d26c                L_U_8031D26C
                0x000000008031d2b4                L_U_8031D2B4
                0x000000008031d2c4                L_U_8031D2C4
                0x000000008031d31c                L_U_8031D31C
                0x000000008031d344                L_U_8031D344
                0x000000008031d354                L_U_8031D354
                0x000000008031d370                L_U_8031D370
                0x000000008031d3a8                L_U_8031D3A8
                0x000000008031d3c4                L_U_8031D3C4
                0x000000008031d3d4                L_U_8031D3D4
                0x000000008031d3e4                L_U_8031D3E4
                0x000000008031d400                L_U_8031D400
                0x000000008031d424                L_U_8031D424
                0x000000008031d44c                L_U_8031D44C
                0x000000008031d474                L_U_8031D474
                0x000000008031d498                L_U_8031D498
                0x000000008031d4bc                L_U_8031D4BC
                0x000000008031d4d4                L_U_8031D4D4
                0x000000008031d4f0                L_U_8031D4F0
                0x000000008031d500                L_U_8031D500
                0x000000008031d51c                L_U_8031D51C
                0x000000008031d538                L_U_8031D538
                0x000000008031d56c                L_U_8031D56C
                0x000000008031d5a0                L_U_8031D5A0
                0x000000008031d5b4                L_U_8031D5B4
                0x000000008031d5d4                L_U_8031D5D4
                0x000000008031d5e4                L_U_8031D5E4
                0x000000008031d640                L_U_8031D640
                0x000000008031d678                L_U_8031D678
                0x000000008031d6c4                L_U_8031D6C4
                0x000000008031d6d4                L_U_8031D6D4
                0x000000008031d6f4                L_U_8031D6F4
                0x000000008031d718                L_U_8031D718
                0x000000008031d728                L_U_8031D728
                0x000000008031d73c                L_U_8031D73C
                0x000000008031d7b8                L_U_8031D7B8
                0x000000008031d7e8                L_U_8031D7E8
                0x000000008031d7f8                L_U_8031D7F8
                0x000000008031d814                L_U_8031D814
                0x000000008031d830                L_U_8031D830
                0x000000008031d87c                L_U_8031D87C
                0x000000008031d898                L_U_8031D898
                0x000000008031d8f8                L_U_8031D8F8
                0x000000008031d900                L_U_8031D900
                0x000000008031d930                L_U_8031D930
                0x000000008031d94c                L_U_8031D94C
                0x000000008031d974                L_U_8031D974
                0x000000008031d9ec                func_8031CAD4
                0x000000008031e240                func_8031D384
                0x000000008031e2e8                func_8031D42C
                0x000000008031e374                func_8031D4B8
 build/us/src/audio/interface_2.o(.text)
 .text          0x000000008031e4f0     0x3e80 build/us/src/audio/interface_2.o
                0x000000008031e4f0                unused_8031E4F0
                0x000000008031e568                unused_8031E568
                0x000000008031e578                func_8031D630
                0x000000008031e5c0                func_8031D690
                0x000000008031e60c                func_8031D6E4
                0x000000008031e6a4                func_8031D7B0
                0x000000008031e710                func_8031D838
                0x000000008031e7b8                func_8031D924
                0x000000008031eb00                SetSound
                0x000000008031eb30                func_8031DCA8
                0x000000008031edec                func_8031DF64
                0x000000008031ee70                func_8031DFE8
                0x000000008031ef6c                func_8031E0E4
                0x000000008031eff4                func_8031E16C
                0x000000008031f810                func_8031E97C
                0x000000008031f96c                func_8031EB24
                0x000000008031fb20                func_8031EC7C
                0x000000008031fbe8                func_8031ED70
                0x000000008031fd7c                func_8031EEC8
                0x000000008031fd84                func_8031EED0
                0x000000008031fdac                func_8031EEF8
                0x0000000080320544                SetMusic
                0x0000000080320678                func_8031F7CC
                0x00000000803206bc                func_8031F810
                0x0000000080320734                func_8031F888
                0x000000008032080c                func_8031F96C
                0x00000000803208ec                func_8031FA4C
                0x0000000080320a4c                L8031FBAC
                0x0000000080320a8c                L8031FBEC
                0x0000000080320acc                L8031FC2C
                0x0000000080320b0c                L8031FC6C
                0x0000000080320b4c                L8031FCAC
                0x0000000080320b8c                L8031FCEC
                0x0000000080320bcc                L8031FD2C
                0x0000000080320bf4                L8031FD54
                0x0000000080320d70                Unknown8031FED0
                0x0000000080320e3c                func_8031FFB4
                0x0000000080320ec4                func_80320040
                0x0000000080320f68                func_803200E4
                0x00000000803210d4                func_80320248
                0x000000008032112c                func_803202A0
                0x0000000080321398                Unknown8032050C
                0x0000000080321474                func_803205E8
                0x0000000080321584                func_803206F8
                0x0000000080321668                func_803207DC
                0x000000008032171c                func_80320890
                0x000000008032174c                func_803208C0
                0x00000000803217a8                func_8032091C
                0x000000008032180c                func_80320980
                0x0000000080321864                Unknown803209D8
                0x00000000803218d8                func_80320A4C
                0x00000000803218f4                func_80320A68
                0x00000000803219ac                func_80320AE8
                0x0000000080321bac                func_80320CE8
                0x0000000080321ce4                func_80320E20
                0x0000000080321d38                func_80320E74
                0x0000000080321d5c                func_80320E98
                0x0000000080321d9c                func_80320ED8
                0x0000000080321e48                func_80320F84
                0x0000000080321f48                func_80321080
                0x0000000080321f9c                func_803210D4
                0x0000000080322078                play_course_clear
                0x00000000803220b4                play_peachs_jingle
                0x00000000803220f0                play_puzzle_jingle
                0x000000008032212c                play_star_fanfare
                0x0000000080322168                play_power_star_jingle
                0x00000000803221b8                play_race_fanfare
                0x00000000803221f4                play_toads_jingle
                0x0000000080322230                func_80321368
                0x000000008032231c                func_80321434
                0x0000000080322348                Unknown80321460
                0x000000008032235c                Unknown80321474
                0x00000000803223b0                . = (. + 0x40)
 *fill*         0x0000000080322370       0x40 
 build/us/libultra.a:osSetTime.o(.text)
 .text          0x00000000803223b0       0x30 build/us/libultra.a(osSetTime.o)
                0x00000000803223b0                osSetTime
 build/us/libultra.a:osMapTLB.o(.text)
 .text          0x00000000803223e0       0xc0 build/us/libultra.a(osMapTLB.o)
                0x00000000803223e0                osMapTLB
 build/us/libultra.a:osUnmapTLBAll.o(.text)
 .text          0x00000000803224a0       0x50 build/us/libultra.a(osUnmapTLBAll.o)
                0x00000000803224a0                osUnmapTLBAll
 build/us/libultra.a:sprintf.o(.text)
 .text          0x00000000803224f0       0xb0 build/us/libultra.a(sprintf.o)
                0x00000000803224f0                sprintf
                0x000000008032255c                proutSprintf
 build/us/libultra.a:osCreateMesgQueue.o(.text)
 .text          0x00000000803225a0       0x30 build/us/libultra.a(osCreateMesgQueue.o)
                0x00000000803225a0                osCreateMesgQueue
 build/us/libultra.a:osSetEventMesg.o(.text)
 .text          0x00000000803225d0       0x70 build/us/libultra.a(osSetEventMesg.o)
                0x00000000803225d0                osSetEventMesg
 build/us/libultra.a:osViSetEvent.o(.text)
 .text          0x0000000080322640       0x70 build/us/libultra.a(osViSetEvent.o)
                0x0000000080322640                osViSetEvent
 build/us/libultra.a:osCreateThread.o(.text)
 .text          0x00000000803226b0      0x150 build/us/libultra.a(osCreateThread.o)
                0x00000000803226b0                osCreateThread
 build/us/libultra.a:osRecvMesg.o(.text)
 .text          0x0000000080322800      0x140 build/us/libultra.a(osRecvMesg.o)
                0x0000000080322800                osRecvMesg
 build/us/libultra.a:osSpTaskLoadGo.o(.text)
 .text          0x0000000080322940      0x2c0 build/us/libultra.a(osSpTaskLoadGo.o)
                0x0000000080322940                _VirtualToPhysicalTask
                0x0000000080322a5c                osSpTaskLoad
                0x0000000080322bbc                osSpTaskStartGo
 build/us/libultra.a:osSpTaskYield.o(.text)
 .text          0x0000000080322c00       0x20 build/us/libultra.a(osSpTaskYield.o)
                0x0000000080322c00                osSpTaskYield
 build/us/libultra.a:osSendMesg.o(.text)
 .text          0x0000000080322c20      0x150 build/us/libultra.a(osSendMesg.o)
                0x0000000080322c20                osSendMesg
 build/us/libultra.a:osSpTaskYielded.o(.text)
 .text          0x0000000080322d70       0x80 build/us/libultra.a(osSpTaskYielded.o)
                0x0000000080322d70                osSpTaskYielded
 build/us/libultra.a:osStartThread.o(.text)
 .text          0x0000000080322df0      0x150 build/us/libultra.a(osStartThread.o)
                0x0000000080322df0                osStartThread
 build/us/libultra.a:osWritebackDCacheAll.o(.text)
 .text          0x0000000080322f40       0x30 build/us/libultra.a(osWritebackDCacheAll.o)
                0x0000000080322f40                osWritebackDCacheAll
 build/us/libultra.a:osCreateViManager.o(.text)
 .text          0x0000000080322f70      0x360 build/us/libultra.a(osCreateViManager.o)
                0x0000000080322f70                osCreateViManager
                0x00000000803230f4                viMgrMain
 build/us/libultra.a:osViSetMode.o(.text)
 .text          0x00000000803232d0       0x70 build/us/libultra.a(osViSetMode.o)
                0x00000000803232d0                osViSetMode
 build/us/libultra.a:osViBlack.o(.text)
 .text          0x0000000080323340       0x70 build/us/libultra.a(osViBlack.o)
                0x0000000080323340                osViBlack
 build/us/libultra.a:osViSetSpecialFeatures.o(.text)
 .text          0x00000000803233b0      0x1c0 build/us/libultra.a(osViSetSpecialFeatures.o)
                0x00000000803233b0                osViSetSpecialFeatures
 build/us/libultra.a:osCreatePiManager.o(.text)
 .text          0x0000000080323570      0x180 build/us/libultra.a(osCreatePiManager.o)
                0x0000000080323570                osCreatePiManager
 build/us/libultra.a:osSetThreadPri.o(.text)
 .text          0x00000000803236f0       0xe0 build/us/libultra.a(osSetThreadPri.o)
                0x00000000803236f0                osSetThreadPri
 build/us/libultra.a:osInitialize.o(.text)
 .text          0x00000000803237d0      0x230 build/us/libultra.a(osInitialize.o)
                0x00000000803237d0                osInitialize
 build/us/libultra.a:osViSwapBuffer.o(.text)
 .text          0x0000000080323a00       0x50 build/us/libultra.a(osViSwapBuffer.o)
                0x0000000080323a00                osViSwapBuffer
 build/us/libultra.a:sqrtf.o(.text)
 .text          0x0000000080323a50       0x10 build/us/libultra.a(sqrtf.o)
                0x0000000080323a50                sqrtf
 build/us/libultra.a:osContStartReadData.o(.text)
 .text          0x0000000080323a60      0x260 build/us/libultra.a(osContStartReadData.o)
                0x0000000080323a60                osContStartReadData
                0x0000000080323b24                osContGetReadData
                0x0000000080323bcc                __osPackReadData
 build/us/libultra.a:osContInit.o(.text)
 .text          0x0000000080323cc0      0x3c0 build/us/libultra.a(osContInit.o)
                0x0000000080323cc0                osContInit
                0x0000000080323ebc                __osContGetInitData
                0x0000000080323f8c                __osPackRequestData
 build/us/libultra.a:osEepromProbe.o(.text)
 .text          0x0000000080324080       0x70 build/us/libultra.a(osEepromProbe.o)
                0x0000000080324080                osEepromProbe
 build/us/libultra.a:llmuldiv.o(.text)
 .text          0x00000000803240f0      0x2c0 build/us/libultra.a(llmuldiv.o)
                0x00000000803240f0                __ull_rshift
                0x000000008032411c                __ull_rem
                0x0000000080324158                __ull_div
                0x0000000080324194                __ll_lshift
                0x00000000803241c0                __ll_rem
                0x00000000803241fc                __ll_div
                0x0000000080324258                __ll_mul
                0x0000000080324288                __ull_divremi
                0x00000000803242e8                __ll_mod
                0x0000000080324384                __ll_rshift
 build/us/libultra.a:osInvalDCache.o(.text)
 .text          0x00000000803243b0       0xb0 build/us/libultra.a(osInvalDCache.o)
                0x00000000803243b0                osInvalDCache
 build/us/libultra.a:osPiStartDma.o(.text)
 .text          0x0000000080324460      0x110 build/us/libultra.a(osPiStartDma.o)
                0x0000000080324460                osPiStartDma
 build/us/libultra.a:bzero.o(.text)
 .text          0x0000000080324570       0xa0 build/us/libultra.a(bzero.o)
                0x0000000080324570                bzero
 build/us/libultra.a:osInvalICache.o(.text)
 .text          0x0000000080324610       0x80 build/us/libultra.a(osInvalICache.o)
                0x0000000080324610                osInvalICache
 build/us/libultra.a:osEepromLongRead.o(.text)
 .text          0x0000000080324690      0x140 build/us/libultra.a(osEepromLongRead.o)
                0x0000000080324690                osEepromLongRead
 build/us/libultra.a:osEepromLongWrite.o(.text)
 .text          0x00000000803247d0      0x140 build/us/libultra.a(osEepromLongWrite.o)
                0x00000000803247d0                osEepromLongWrite
 build/us/libultra.a:bcopy.o(.text)
 .text          0x0000000080324910      0x310 build/us/libultra.a(bcopy.o)
                0x0000000080324910                bcopy
 build/us/libultra.a:guOrthoF.o(.text)
 .text          0x0000000080324c20      0x1c0 build/us/libultra.a(guOrthoF.o)
                0x0000000080324c20                guOrthoF
                0x0000000080324d74                guOrtho
 build/us/libultra.a:guPerspectiveF.o(.text)
 .text          0x0000000080324de0      0x290 build/us/libultra.a(guPerspectiveF.o)
                0x0000000080324de0                guPerspectiveF
                0x0000000080325010                guPerspective
 build/us/libultra.a:osGetTime.o(.text)
 .text          0x0000000080325070       0x90 build/us/libultra.a(osGetTime.o)
                0x0000000080325070                osGetTime
 build/us/libultra.a:llconv.o(.text)
 .text          0x0000000080325100      0x210 build/us/libultra.a(llconv.o)
                0x0000000080325100                __d_to_ll
                0x000000008032511c                __f_to_ll
                0x0000000080325138                __d_to_ull
                0x00000000803251d8                __f_to_ull
                0x0000000080325274                __ll_to_d
                0x000000008032528c                __ll_to_f
                0x00000000803252a4                __ull_to_d
                0x00000000803252d8                __ull_to_f
 build/us/libultra.a:cosf.o(.text)
 .text          0x0000000080325310      0x170 build/us/libultra.a(cosf.o)
                0x0000000080325310                cosf
 build/us/libultra.a:sinf.o(.text)
 .text          0x0000000080325480      0x1c0 build/us/libultra.a(sinf.o)
                0x0000000080325480                sinf
 build/us/libultra.a:guTranslateF.o(.text)
 .text          0x0000000080325640       0xa0 build/us/libultra.a(guTranslateF.o)
                0x0000000080325640                guTranslateF
                0x0000000080325688                guTranslate
 build/us/libultra.a:guRotateF.o(.text)
 .text          0x00000000803256e0      0x1f0 build/us/libultra.a(guRotateF.o)
                0x00000000803256e0                guRotateF
                0x0000000080325874                guRotate
 build/us/libultra.a:guScaleF.o(.text)
 .text          0x00000000803258d0       0xa0 build/us/libultra.a(guScaleF.o)
                0x00000000803258d0                guScaleF
                0x0000000080325924                guScale
 build/us/libultra.a:osAiSetFrequency.o(.text)
 .text          0x0000000080325970      0x170 build/us/libultra.a(osAiSetFrequency.o)
                0x0000000080325970                osAiSetFrequency
 build/us/libultra.a:alBnkfNew.o(.text)
 .text          0x0000000080325ae0      0x240 build/us/libultra.a(alBnkfNew.o)
                0x0000000080325bd4                alBnkfNew
                0x0000000080325cd8                alSeqFileNew
 build/us/libultra.a:osWritebackDCache.o(.text)
 .text          0x0000000080325d20       0x80 build/us/libultra.a(osWritebackDCache.o)
                0x0000000080325d20                osWritebackDCache
 build/us/libultra.a:osAiGetLength.o(.text)
 .text          0x0000000080325da0       0x10 build/us/libultra.a(osAiGetLength.o)
                0x0000000080325da0                osAiGetLength
 build/us/libultra.a:osAiSetNextBuffer.o(.text)
 .text          0x0000000080325db0       0xb0 build/us/libultra.a(osAiSetNextBuffer.o)
                0x0000000080325db0                osAiSetNextBuffer
 build/us/libultra.a:osTimer.o(.text)
 .text          0x0000000080325e60      0x400 build/us/libultra.a(osTimer.o)
                0x0000000080325e60                __osTimerServicesInit
                0x0000000080325eec                __osTimerInterrupt
                0x0000000080326064                __osSetTimerIntr
                0x00000000803260d8                __osInsertTimer
 build/us/libultra.a:_Printf.o(.text)
 .text          0x0000000080326260     0x1190 build/us/libultra.a(_Printf.o)
                0x0000000080326260                _Printf
                0x0000000080326a8c                _Putfld
 build/us/libultra.a:string.o(.text)
 .text          0x00000000803273f0       0xa0 build/us/libultra.a(string.o)
                0x00000000803273f0                memcpy
                0x000000008032741c                strlen
                0x0000000080327444                strchr
 build/us/libultra.a:__osDequeueThread.o(.text)
 .text          0x0000000080327490       0x40 build/us/libultra.a(__osDequeueThread.o)
                0x0000000080327490                __osDequeueThread
 build/us/libultra.a:__osDisableInt.o(.text)
 .text          0x00000000803274d0       0x20 build/us/libultra.a(__osDisableInt.o)
                0x00000000803274d0                __osDisableInt
 build/us/libultra.a:__osRestoreInt.o(.text)
 .text          0x00000000803274f0       0x20 build/us/libultra.a(__osRestoreInt.o)
                0x00000000803274f0                __osRestoreInt
 build/us/libultra.a:__osViInit.o(.text)
 .text          0x0000000080327510      0x130 build/us/libultra.a(__osViInit.o)
                0x0000000080327510                __osViInit
 build/us/libultra.a:__osExceptionPreamble.o(.text)
 .text          0x0000000080327640      0x870 build/us/libultra.a(__osExceptionPreamble.o)
                0x0000000080327640                __osExceptionPreamble
                0x0000000080327650                __osException
                0x00000000803278e4                L80326964
                0x0000000080327904                L80326984
                0x0000000080327938                L803269B8
                0x0000000080327a68                L80326AE8
                0x0000000080327ac4                L80326B44
                0x0000000080327ae4                L80326B64
                0x0000000080327b1c                L80326B9C
                0x0000000080327b68                L80326BE8
                0x0000000080327b98                send_mesg
                0x0000000080327c80                __osEnqueueAndYield
                0x0000000080327d10                __osEnqueueThread
                0x0000000080327d58                __osPopThread
                0x0000000080327d68                __osDispatchThread
                0x0000000080327ea8                __osCleanupThread
 build/us/libultra.a:osVirtualToPhysical.o(.text)
 .text          0x0000000080327eb0       0x80 build/us/libultra.a(osVirtualToPhysical.o)
                0x0000000080327eb0                osVirtualToPhysical
 build/us/libultra.a:__osSpSetStatus.o(.text)
 .text          0x0000000080327f30       0x10 build/us/libultra.a(__osSpSetStatus.o)
                0x0000000080327f30                __osSpSetStatus
 build/us/libultra.a:__osSpSetPc.o(.text)
 .text          0x0000000080327f40       0x40 build/us/libultra.a(__osSpSetPc.o)
                0x0000000080327f40                __osSpSetPc
 build/us/libultra.a:__osSpRawStartDma.o(.text)
 .text          0x0000000080327f80       0x90 build/us/libultra.a(__osSpRawStartDma.o)
                0x0000000080327f80                __osSpRawStartDma
 build/us/libultra.a:__osSpDeviceBusy.o(.text)
 .text          0x0000000080328010       0x30 build/us/libultra.a(__osSpDeviceBusy.o)
                0x0000000080328010                __osSpDeviceBusy
 build/us/libultra.a:__osSpGetStatus.o(.text)
 .text          0x0000000080328040       0x10 build/us/libultra.a(__osSpGetStatus.o)
                0x0000000080328040                __osSpGetStatus
 build/us/libultra.a:osGetThreadPri.o(.text)
 .text          0x0000000080328050       0x20 build/us/libultra.a(osGetThreadPri.o)
                0x0000000080328050                osGetThreadPri
 build/us/libultra.a:__osViGetCurrentContext.o(.text)
 .text          0x0000000080328070       0x10 build/us/libultra.a(__osViGetCurrentContext.o)
                0x0000000080328070                __osViGetCurrentContext
 build/us/libultra.a:__osViSwapContext.o(.text)
 .text          0x0000000080328080      0x360 build/us/libultra.a(__osViSwapContext.o)
                0x0000000080328080                __osViSwapContext
 build/us/libultra.a:osGetCount.o(.text)
 .text          0x00000000803283e0       0x10 build/us/libultra.a(osGetCount.o)
                0x00000000803283e0                osGetCount
 build/us/libultra.a:__osPiCreateAccessQueue.o(.text)
 .text          0x00000000803283f0       0xc0 build/us/libultra.a(__osPiCreateAccessQueue.o)
                0x00000000803283f0                __osPiCreateAccessQueue
                0x0000000080328440                __osPiGetAccess
                0x0000000080328484                __osPiRelAccess
 build/us/libultra.a:osPiRawStartDma.o(.text)
 .text          0x00000000803284b0       0xe0 build/us/libultra.a(osPiRawStartDma.o)
                0x00000000803284b0                osPiRawStartDma
 build/us/libultra.a:__osDevMgrMain.o(.text)
 .text          0x0000000080328590      0x180 build/us/libultra.a(__osDevMgrMain.o)
                0x0000000080328590                __osDevMgrMain
 build/us/libultra.a:__osSetSR.o(.text)
 .text          0x0000000080328710       0x10 build/us/libultra.a(__osSetSR.o)
                0x0000000080328710                __osSetSR
 build/us/libultra.a:__osGetSR.o(.text)
 .text          0x0000000080328720       0x10 build/us/libultra.a(__osGetSR.o)
                0x0000000080328720                __osGetSR
 build/us/libultra.a:__osSetFpcCsr.o(.text)
 .text          0x0000000080328730       0x10 build/us/libultra.a(__osSetFpcCsr.o)
                0x0000000080328730                __osSetFpcCsr
 build/us/libultra.a:__osSiRawReadIo.o(.text)
 .text          0x0000000080328740       0x50 build/us/libultra.a(__osSiRawReadIo.o)
                0x0000000080328740                __osSiRawReadIo
 build/us/libultra.a:__osSiRawWriteIo.o(.text)
 .text          0x0000000080328790       0x50 build/us/libultra.a(__osSiRawWriteIo.o)
                0x0000000080328790                __osSiRawWriteIo
 build/us/libultra.a:osMapTLBRdb.o(.text)
 .text          0x00000000803287e0       0x60 build/us/libultra.a(osMapTLBRdb.o)
                0x00000000803287e0                osMapTLBRdb
 build/us/libultra.a:osPiRawReadIo.o(.text)
 .text          0x0000000080328840       0x60 build/us/libultra.a(osPiRawReadIo.o)
                0x0000000080328840                osPiRawReadIo
 build/us/libultra.a:__osSiCreateAccessQueue.o(.text)
 .text          0x00000000803288a0       0xc0 build/us/libultra.a(__osSiCreateAccessQueue.o)
                0x00000000803288a0                __osSiCreateAccessQueue
                0x00000000803288f0                __osSiGetAccess
                0x0000000080328934                __osSiRelAccess
 build/us/libultra.a:__osSiRawStartDma.o(.text)
 .text          0x0000000080328960       0xb0 build/us/libultra.a(__osSiRawStartDma.o)
                0x0000000080328960                __osSiRawStartDma
 build/us/libultra.a:osSetTimer.o(.text)
 .text          0x0000000080328a10       0xe0 build/us/libultra.a(osSetTimer.o)
                0x0000000080328a10                osSetTimer
 build/us/libultra.a:osEepromWrite.o(.text)
 .text          0x0000000080328af0      0x4e0 build/us/libultra.a(osEepromWrite.o)
                0x0000000080328af0                osEepromWrite
                0x0000000080328ca0                __osPackEepWriteData
                0x0000000080328dac                __osEepStatus
 build/us/libultra.a:osJamMesg.o(.text)
 .text          0x0000000080328fd0      0x150 build/us/libultra.a(osJamMesg.o)
                0x0000000080328fd0                osJamMesg
 build/us/libultra.a:osPiGetCmdQueue.o(.text)
 .text          0x0000000080329120       0x30 build/us/libultra.a(osPiGetCmdQueue.o)
                0x0000000080329120                osPiGetCmdQueue
 build/us/libultra.a:osEepromRead.o(.text)
 .text          0x0000000080329150      0x300 build/us/libultra.a(osEepromRead.o)
                0x0000000080329150                osEepromRead
                0x0000000080329340                __osPackEepReadData
 build/us/libultra.a:guMtxF2L.o(.text)
 .text          0x0000000080329450      0x270 build/us/libultra.a(guMtxF2L.o)
                0x0000000080329450                guMtxF2L
                0x0000000080329550                guMtxIdentF
                0x00000000803295d8                guMtxIdent
                0x0000000080329608                guMtxL2F
 build/us/libultra.a:guMtxIdentF.o(.text)
 build/us/libultra.a:guNormalize.o(.text)
 .text          0x00000000803296c0       0x90 build/us/libultra.a(guNormalize.o)
                0x00000000803296c0                guNormalize
 build/us/libultra.a:__osAiDeviceBusy.o(.text)
 .text          0x0000000080329750       0x30 build/us/libultra.a(__osAiDeviceBusy.o)
                0x0000000080329750                __osAiDeviceBusy
 build/us/libultra.a:__osSetCompare.o(.text)
 .text          0x0000000080329780       0x10 build/us/libultra.a(__osSetCompare.o)
                0x0000000080329780                __osSetCompare
 build/us/libultra.a:_Litob.o(.text)
 .text          0x0000000080329790      0x300 build/us/libultra.a(_Litob.o)
                0x0000000080329790                _Litob
 build/us/libultra.a:_Ldtob.o(.text)
 .text          0x0000000080329a90      0xdd0 build/us/libultra.a(_Ldtob.o)
                0x0000000080329a90                _Ldtob
 build/us/libultra.a:kdebugserver.o(.text)
 .text          0x000000008032a860      0x480 build/us/libultra.a(kdebugserver.o)
                0x000000008032a860                u32_to_string
                0x000000008032a890                string_to_u32
                0x000000008032a8e8                send_packet
                0x000000008032a9a8                send
                0x000000008032aa80                process_command_memory
                0x000000008032aacc                process_command_register
                0x000000008032aaf8                kdebugserver
 build/us/libultra.a:__osSyncPutChars.o(.text)
 .text          0x000000008032ace0      0x130 build/us/libultra.a(__osSyncPutChars.o)
                0x000000008032ace0                __osSyncPutChars
 build/us/libultra.a:osSetIntMask.o(.text)
 .text          0x000000008032ae10       0x60 build/us/libultra.a(osSetIntMask.o)
                0x000000008032ae10                osSetIntMask
 build/us/libultra.a:osDestroyThread.o(.text)
 .text          0x000000008032ae70      0x100 build/us/libultra.a(osDestroyThread.o)
                0x000000008032ae70                osDestroyThread
 build/us/libultra.a:__osProbeTLB.o(.text)
 .text          0x000000008032af70       0xc0 build/us/libultra.a(__osProbeTLB.o)
                0x000000008032af70                __osProbeTLB
 build/us/libultra.a:__osSiDeviceBusy.o(.text)
 .text          0x000000008032b030       0x30 build/us/libultra.a(__osSiDeviceBusy.o)
                0x000000008032b030                __osSiDeviceBusy
 build/us/libultra.a:ldiv.o(.text)
 .text          0x000000008032b060      0x190 build/us/libultra.a(ldiv.o)
                0x000000008032b060                lldiv
                0x000000008032b160                ldiv
 build/us/libultra.a:__osGetCause.o(.text)
 .text          0x000000008032b1f0       0x10 build/us/libultra.a(__osGetCause.o)
                0x000000008032b1f0                __osGetCause
 build/us/libultra.a:__osAtomicDec.o(.text)
 .text          0x000000008032b200       0x60 build/us/libultra.a(__osAtomicDec.o)
                0x000000008032b200                __osAtomicDec
 build/us/libultra.a:guLookAtRef.o(.text)
 build/us/lib/rsp.o(.text)
 .text          0x000000008032b260     0x2300 build/us/lib/rsp.o
                0x000000008032b260                rspF3DBootStart
                0x000000008032b330                rspF3DBootEnd
                0x000000008032b330                rspF3DStart
                0x000000008032c738                rspF3DEnd
                0x000000008032c740                rspAspMainStart
                0x000000008032d560                rspAspMainEnd
 build/us/src/game/main.o(.data*)
 .data          0x000000008032d560       0x70 build/us/src/game/main.o
                0x000000008032d560                gVblankHandler1
                0x000000008032d564                gVblankHandler2
                0x000000008032d568                gActiveSPTask
                0x000000008032d56c                sCurrentAudioSPTask
                0x000000008032d570                sCurrentDisplaySPTask
                0x000000008032d574                sNextAudioSPTask
                0x000000008032d578                sNextDisplaySPTask
                0x000000008032d57c                sAudioEnabled
                0x000000008032d580                sNumVblanks
                0x000000008032d584                gResetTimer
                0x000000008032d588                D_8032C648
                0x000000008032d58c                gDebugLevelSelect
                0x000000008032d590                D_8032C650
                0x000000008032d594                gShowProfiler
                0x000000008032d598                gShowDebugText
                0x000000008032d59c                sProfilerKeySequence
                0x000000008032d5ac                sDebugTextKeySequence
                0x000000008032d5bc                sProfilerKey
                0x000000008032d5c0                sDebugTextKey
 build/us/src/game/display.o(.data*)
 .data          0x000000008032d5d0       0x10 build/us/src/game/display.o
                0x000000008032d5d0                unused8032C690
                0x000000008032d5d4                gGlobalTimer
                0x000000008032d5d8                sCurrFBNum
                0x000000008032d5dc                frameBufferIndex
 build/us/src/game/game.o(.data*)
 .data          0x000000008032d5e0       0x20 build/us/src/game/game.o
                0x000000008032d5e0                D_8032C6A0
                0x000000008032d5e4                gPlayer1Controller
                0x000000008032d5e8                gPlayer2Controller
                0x000000008032d5ec                gPlayer3Controller
                0x000000008032d5f0                gCurrDemoInput
                0x000000008032d5f4                gDemoInputListID
                0x000000008032d5f8                gRecordedDemoInput
 build/us/src/game/sound_init.o(.data*)
 .data          0x000000008032d600       0xd0 build/us/src/game/sound_init.o
                0x000000008032d600                D_8032C6C0
                0x000000008032d604                D_8032C6C4
                0x000000008032d608                D_8032C6C8
                0x000000008032d60c                D_8032C6CC
                0x000000008032d610                D_8032C6D0
                0x000000008032d614                D_8032C6D4
                0x000000008032d618                unused8032C6D8
                0x000000008032d628                D_8032C6E8
                0x000000008032d630                D_8032C6F0
                0x000000008032d6c0                D_8032C780
 build/us/src/game/level_update.o(.data*)
 .data          0x000000008032d6d0      0x280 build/us/src/game/level_update.o
                0x000000008032d6d0                credits01
                0x000000008032d6d8                credits02
                0x000000008032d6e4                credits03
                0x000000008032d6f0                credits04
                0x000000008032d700                credits05
                0x000000008032d710                credits06
                0x000000008032d71c                credits07
                0x000000008032d728                credits08
                0x000000008032d738                credits09
                0x000000008032d740                credits10
                0x000000008032d750                credits11
                0x000000008032d75c                credits12
                0x000000008032d764                credits13
                0x000000008032d774                credits14
                0x000000008032d77c                credits15
                0x000000008032d788                credits16
                0x000000008032d79c                credits17
                0x000000008032d7ac                credits18
                0x000000008032d7bc                credits19
                0x000000008032d7c4                credits20
                0x000000008032d7cc                sCreditsSequence
                0x000000008032d93c                gMarioState
                0x000000008032d940                unused1
                0x000000008032d944                D_8032C9E0
 build/us/src/game/interaction.o(.data*)
 .data          0x000000008032d950      0x150 build/us/src/game/interaction.o
                0x000000008032d950                sInteractionHandlers
                0x000000008032da48                sForwardKnockbackActions
                0x000000008032da6c                sBackwardKnockbackActions
                0x000000008032da90                sDisplayingDoorText
                0x000000008032da94                sJustTeleported
                0x000000008032da98                sPssSlideStarted
 build/us/src/game/mario.o(.data*)
 .data          0x000000008032daa0       0x50 build/us/src/game/mario.o
                0x000000008032daa0                D_8032CB40
                0x000000008032dacc                D_8032CB7B
                0x000000008032dae0                D_8032CB80
 build/us/src/game/mario_step.o(.data*)
 .data          0x000000008032daf0       0x40 build/us/src/game/mario_step.o
                0x000000008032daf0                sMovingSandSpeeds
                0x000000008032daf8                gWaterSurfacePseudoFloor
 build/us/src/game/mario_actions_cutscene.o(.data*)
 .data          0x000000008032db30      0x120 build/us/src/game/mario_actions_cutscene.o
                0x000000008032db30                sEndCutsceneVp
                0x000000008032db40                sDispCreditsEntry
                0x000000008032db44                D_8032CBE4
                0x000000008032db48                D_8032CBE8
                0x000000008032db4c                D_8032CBEC
                0x000000008032db54                sStarsNeededForDialogue
                0x000000008032db5c                sJumboStarKeyframes
                0x000000008032dc34                sSparkleGenTheta
                0x000000008032dc38                sSparkleGenPhi
                0x000000008032dc3c                sMarioBlinkOverride
 build/us/src/game/mario_actions_moving.o(.data*)
 .data          0x000000008032dc50       0xe0 build/us/src/game/mario_actions_moving.o
                0x000000008032dc50                sJumpLandAction
                0x000000008032dc68                sFreefallLandAction
                0x000000008032dc80                sSideFlipLandAction
                0x000000008032dc98                sHoldJumpLandAction
                0x000000008032dcb0                sHoldFreefallLandAction
                0x000000008032dcc8                sLongJumpLandAction
                0x000000008032dce0                sDoubleJumpLandAction
                0x000000008032dcf8                sTripleJumpLandAction
                0x000000008032dd10                sBackflipLandAction
 build/us/src/game/mario_actions_submerged.o(.data*)
 .data          0x000000008032dd30       0x10 build/us/src/game/mario_actions_submerged.o
                0x000000008032dd30                sWasAtSurface
                0x000000008032dd34                D_8032CDD4
                0x000000008032dd38                sWaterCurrentSpeeds
 build/us/src/game/mario_actions_object.o(.data*)
 .data          0x000000008032dd40       0x10 build/us/src/game/mario_actions_object.o
                0x000000008032dd40                sPunchingForwardVelocities
 build/us/src/game/mario_misc.o(.data*)
 .data          0x000000008032dd50       0x20 build/us/src/game/mario_misc.o
                0x000000008032dd50                D_8032CDF0
                0x000000008032dd58                D_8032CDF8
                0x000000008032dd6c                D_8032CE0C
 build/us/src/game/memory.o(.data*)
 .data          0x000000008032dd70       0x10 build/us/src/game/memory.o
                0x000000008032dd70                gMainPoolState
 build/us/src/game/save_file.o(.data*)
 .data          0x000000008032dd80       0x40 build/us/src/game/save_file.o
                0x000000008032dd80                gLastCompletedCourseNum
                0x000000008032dd84                gLastCompletedStarNum
                0x000000008032dd88                sUnusedGotGlobalCoinHiScore
                0x000000008032dd8c                gGotFileCoinHiScore
                0x000000008032dd90                gCurrCourseStarFlags
                0x000000008032dd94                gSpecialTripleJump
                0x000000008032dd98                gLevelToCourseNumTable
 build/us/src/game/area.o(.data*)
 .data          0x000000008032ddc0       0xb0 build/us/src/game/area.o
                0x000000008032ddc0                gMarioSpawnInfo
                0x000000008032ddc4                gLoadedGraphNodes
                0x000000008032ddc8                gAreas
                0x000000008032ddcc                gCurrentArea
                0x000000008032ddd0                gCurrCreditsEntry
                0x000000008032ddd4                D_8032CE74
                0x000000008032ddd8                D_8032CE78
                0x000000008032dddc                gWarpTransDelay
                0x000000008032dde0                gFBSetColor
                0x000000008032dde4                gWarpTransFBSetColor
                0x000000008032dde8                gWarpTransRed
                0x000000008032ddec                gWarpTransGreen
                0x000000008032ddf0                gWarpTransBlue
                0x000000008032ddf4                gCurrSaveFileNum
                0x000000008032ddf8                gCurrLevelNum
                0x000000008032ddfc                D_8032CE9C
                0x000000008032de4c                D_8032CEEC
                0x000000008032de60                D_8032CF00
 build/us/src/game/rendering_graph_node.o(.data*)
 .data          0x000000008032de70       0xa0 build/us/src/game/rendering_graph_node.o
                0x000000008032de70                renderModeTable
                0x000000008032deb0                D_8032CF50
                0x000000008032def0                D_8032CF90
                0x000000008032def4                D_8032CF94
                0x000000008032def8                D_8032CF98
                0x000000008032defc                D_8032CF9C
                0x000000008032df00                D_8032CFA0
                0x000000008032df04                D_8032CFA4
                0x000000008032df08                gAreaUpdateCounter
 build/us/src/game/profiler.o(.data*)
 .data          0x000000008032df10       0x10 build/us/src/game/profiler.o
                0x000000008032df10                gProfilerMode
                0x000000008032df14                gCurrentFrameIndex1
                0x000000008032df18                gCurrentFrameIndex2
 build/us/src/game/camera.o(.data*)
 .data          0x000000008032df20     0x1fa0 build/us/src/game/camera.o
                0x000000008032df20                unused_8032CFC0
                0x000000008032df24                gCutsceneFocus
                0x000000008032df28                unused_8032CFC8
                0x000000008032df2c                unused_8032CFCC
                0x000000008032df30                gSecondCameraFocus
                0x000000008032df34                D_8032CFD4
                0x000000008032df38                gCurrLevelArea
                0x000000008032df3c                gPrevLevel
                0x000000008032df40                D_8032CFE0
                0x000000008032df44                D_8032CFE4
                0x000000008032df48                D_8032CFE8
                0x000000008032df4c                gCameraZoomDist
                0x000000008032df50                D_8032CFF0
                0x000000008032df54                D_8032CFF4
                0x000000008032df58                D_8032CFF8
                0x000000008032df5c                D_8032CFFC
                0x000000008032df60                sMarioStatusForCamera
                0x000000008032df64                sLuigiStatusForCamera
                0x000000008032df68                D_8032D008
                0x000000008032df6c                D_8032D00C
                0x000000008032df78                D_8032D00C_2
                0x000000008032df84                D_8032D00C_3
                0x000000008032df90                D_8032D00C_4
                0x000000008032df9c                D_8032D00C_5
                0x000000008032dfa8                TableCameraTransitions
                0x000000008032e008                unused_8032D0A8
                0x000000008032e010                unused_8032D0B0
                0x000000008032e018                D_8032D0B8
                0x000000008032e050                BBHRoom6ParallelTrackingTable
                0x000000008032e098                TableCameraSL
                0x000000008032e0e0                TableCameraTHI
                0x000000008032e128                TableCameraHMC
                0x000000008032e1d0                TableCameraSSL
                0x000000008032e248                TableCameraRR
                0x000000008032e338                TableCameraCotMC
                0x000000008032e368                TableCameraCCM
                0x000000008032e3b0                TableCameraInside
                0x000000008032e6f8                TableCameraBBH
                0x000000008032ecb0                TableLevelCinematicCamera
                0x000000008032ed50                D_8032DDF0
                0x000000008032ee08                D_8032DEA8
                0x000000008032eec0                D_8032DF60
                0x000000008032ef30                D_8032DFD0
                0x000000008032efa0                D_8032E040
                0x000000008032eff0                D_8032E090
                0x000000008032f048                D_8032E0E8
                0x000000008032f0e8                D_8032E188
                0x000000008032f130                D_8032E1D0
                0x000000008032f178                D_8032E218
                0x000000008032f1b8                D_8032E258
                0x000000008032f214                D_8032E2B4
                0x000000008032f32c                D_8032E3CC
                0x000000008032f444                D_8032E4E4
                0x000000008032f48c                D_8032E52C
                0x000000008032f4d4                TableCutscenePeachEnd
                0x000000008032f534                TableCutsceneGrandStar
                0x000000008032f544                TableCutscene0FTodo
                0x000000008032f554                TableCutsceneDoorWarp
                0x000000008032f564                TableCutsceneEndWaving
                0x000000008032f56c                TableCutsceneCredits
                0x000000008032f574                TableCutsceneDoor00
                0x000000008032f59c                TableCutsceneDoor01
                0x000000008032f5c4                TableCutsceneDoor0A
                0x000000008032f5dc                TableCutsceneDoor0B
                0x000000008032f5f4                TableCutsceneEnterCannon
                0x000000008032f60c                TableCutsceneStarSpawn
                0x000000008032f624                TableCutsceneSpecialStarSpawn
                0x000000008032f634                TableCutsceneEnterPainting
                0x000000008032f63c                TableCutsceneDeathExit
                0x000000008032f64c                TableCutsceneExitPaintingSuccess
                0x000000008032f65c                TableCutscene11Todo
                0x000000008032f674                TableCutsceneIntroPeach
                0x000000008032f69c                TableCutscenePrepareCannon
                0x000000008032f6ac                TableCutsceneExitWaterfall
                0x000000008032f6bc                TableCutsceneFallToCastleGrounds
                0x000000008032f6cc                TableCutsceneEnterPyramidTop
                0x000000008032f6dc                TableCutscene26Todo
                0x000000008032f6f4                TableCutsceneStandingDeath
                0x000000008032f6fc                TableCutsceneEnterPool
                0x000000008032f70c                TableCutsceneDeath2
                0x000000008032f714                TableCutsceneDeathOnBack
                0x000000008032f71c                TableCutsceneQuicksandDeath
                0x000000008032f72c                TableCutsceneSuffocationDeath
                0x000000008032f734                TableCutsceneEnterBowserPlatform
                0x000000008032f74c                TableCutsceneStarDance1
                0x000000008032f754                TableCutsceneStarDance2
                0x000000008032f75c                TableCutsceneStarDance3
                0x000000008032f764                TableCutsceneKeyDance
                0x000000008032f76c                TableCutsceneCapSwitchPress
                0x000000008032f774                TableCutsceneSlidingDoorsOpen
                0x000000008032f784                TableCutsceneUnlockKeyDoor
                0x000000008032f794                TableCutsceneExitBowserSuccess
                0x000000008032f7a4                TableCutscene1CTodo
                0x000000008032f7b4                TableCutsceneBBHExitSuccess
                0x000000008032f7c4                TableCutsceneNonPaintingDeath
                0x000000008032f7d4                TableCutsceneDialog
                0x000000008032f7ec                TableCutsceneReadMessage
                0x000000008032f804                D_8032E8A4
                0x000000008032f870                D_8032E910
                0x000000008032f884                sBobCreditsCameraPositions
                0x000000008032f8ac                sBobCreditsCameraFocus
                0x000000008032f8d4                sWfCreditsCameraPositions
                0x000000008032f8fc                sWfCreditsCameraFocus
                0x000000008032f924                sJrbCreditsCameraPositions
                0x000000008032f94c                sJrbCreditsCameraFocus
                0x000000008032f974                sCcmSlideCreditsCameraPositions
                0x000000008032f99c                sCcmSlideCreditsCameraFocus
                0x000000008032f9c4                sBbhCreditsCameraPositions
                0x000000008032f9e4                sBbhCreditsCameraFocus
                0x000000008032fa04                sHmcCreditsCameraPositions
                0x000000008032fa2c                sHmcCreditsCameraFocus
                0x000000008032fa54                sThiWigglerCreditsCameraPositions
                0x000000008032fa6c                sThiWigglerCreditsCameraFocus
                0x000000008032fa84                sVolcanoCreditsCameraPositions
                0x000000008032fab4                sVolcanoCreditsCameraFocus
                0x000000008032fae4                sSslCreditsCameraPositions
                0x000000008032fb14                sSslCreditsCameraFocus
                0x000000008032fb44                sDddCreditsCameraPositions
                0x000000008032fb7c                sDddCreditsCameraFocus
                0x000000008032fbb4                sSlCreditsCameraPositions
                0x000000008032fbd4                sSlCreditsCameraFocus
                0x000000008032fbf4                sWdwCreditsCameraPositions
                0x000000008032fc14                sWdwCreditsCameraFocus
                0x000000008032fc34                sTtmCreditsCameraPositions
                0x000000008032fc64                sTtmCreditsCameraFocus
                0x000000008032fc94                sThiHugeCreditsCameraPositions
                0x000000008032fccc                sThiHugeCreditsCameraFocus
                0x000000008032fd04                sTtcCreditsCameraPositions
                0x000000008032fd24                sTtcCreditsCameraFocus
                0x000000008032fd44                sRrCreditsCameraPositions
                0x000000008032fd64                sRrCreditsCameraFocus
                0x000000008032fd84                sSaCreditsCameraPositions
                0x000000008032fdac                sSaCreditsCameraFocus
                0x000000008032fdd4                sCotmcCreditsCameraPositions
                0x000000008032fdfc                sCotmcCreditsCameraFocus
                0x000000008032fe24                sDddSubCreditsCameraPositions
                0x000000008032fe4c                sDddSubCreditsCameraFocus
                0x000000008032fe74                sCcmOutsideCreditsCameraPositions
                0x000000008032fe94                sCcmOutsideCreditsCameraFocus
 build/us/src/game/object_list_processor.o(.data*)
 .data          0x000000008032fec0      0x140 build/us/src/game/object_list_processor.o
                0x000000008032fec0                sObjectListUpdateOrder
                0x000000008032fecc                sParticleTypes
 build/us/src/game/object_helpers.o(.data*)
 .data          0x0000000080330000       0x20 build/us/src/game/object_helpers.o
                0x0000000080330000                D_8032F0A0
                0x0000000080330004                D_8032F0A4
                0x0000000080330014                sLevelsWithRooms
 build/us/src/game/behavior_actions.o(.data*)
 .data          0x0000000080330020      0xe00 build/us/src/game/behavior_actions.o
                0x0000000080330020                D_8032F0C0
                0x000000008033002c                D_8032F0CC
                0x000000008033006c                TableMrIParticleActions
                0x0000000080330074                TableMrIActions
                0x0000000080330084                sMrIHitbox
                0x0000000080330094                D_8032F134
                0x00000000803300a8                unused8032F134
                0x00000000803300ac                TableCapSwitchActions
                0x00000000803300bc                TableKingBobombActions
                0x00000000803300e0                TableKingBobombSoundStates
                0x0000000080330140                TableOpenedCannonActions
                0x000000008033015c                unused0EA1FC
                0x0000000080330198                TableChuckyaActions
                0x00000000803301a8                D_8032F24A
                0x00000000803301c0                sKoopaShellUnderwaterHitbox
                0x00000000803301d0                D_8032F270
                0x00000000803301e4                sSparkleSpawnStarHitbox
                0x00000000803301f4                sYellowCoinHitbox
                0x0000000080330204                D_8032F2A4
                0x0000000080330224                TableCoinInsideBooActions
                0x000000008033022c                D_8032F2CC
                0x0000000080330244                D_8032F2E4
                0x0000000080330260                D_8032F300
                0x0000000080330288                D_8032F328
                0x0000000080330290                D_8032F330
                0x0000000080330298                TableGrindelThwompActions
                0x00000000803302ac                TableTumblingBridgeParams
                0x00000000803302dc                TableTumblingBridgeActions
                0x00000000803302ec                D_8032F38C
                0x0000000080330318                TableElevatorActions
                0x000000008033032c                D_8032F3CC
                0x0000000080330340                D_8032F3E0
                0x0000000080330354                D_8032F3F4
                0x000000008033035c                D_8032F3FC
                0x0000000080330370                TableLittleCageActions
                0x0000000080330380                D_8032F420
                0x0000000080330390                sSpindriftHitbox
                0x00000000803303a0                sMetalBoxHitbox
                0x00000000803303b0                sBreakableBoxHitbox
                0x00000000803303c0                D_8032F460
                0x00000000803303e8                TableHeaveHoActions
                0x00000000803303f8                sJumpingBoxHitbox
                0x0000000080330408                TableJumpingBoxActions
                0x0000000080330410                sBooCageHitbox
                0x0000000080330420                TableBetaBooKeyInsideActions
                0x000000008033042c                sBowserKeyHitbox
                0x000000008033043c                TableBulletBillActions
                0x0000000080330450                TableBowserTailAnchorActions
                0x000000008033045c                D_8032F4FC
                0x000000008033046c                D_8032F50C
                0x0000000080330470                D_8032F510
                0x0000000080330474                D_8032F514
                0x0000000080330478                D_8032F518
                0x0000000080330480                D_8032F520
                0x00000000803304c8                TableBowserActions
                0x0000000080330518                D_8032F5B8
                0x00000000803305f0                D_8032F690
                0x00000000803305f4                D_8032F694
                0x00000000803305f8                D_8032F698
                0x000000008033067c                TableFallingBowserPlatformActions
                0x0000000080330688                sGrowingBowserFlameHitbox
                0x0000000080330698                sBowserFlameHitbox
                0x00000000803306a8                D_8032F748
                0x00000000803306b4                D_8032F754
                0x00000000803306dc                D_8032F77C
                0x0000000080330738                D_8032F7D8
                0x00000000803307a0                TableUkikiOpenCageActions
                0x00000000803307c0                D_8032F860
                0x00000000803307f4                D_8032F894
                0x0000000080330828                D_8032F8C8
                0x0000000080330830                TableRotatingCwFireBarsActions
                0x0000000080330840                sKoopaShellHitbox
                0x0000000080330850                D_8032F8F0
                0x0000000080330884                D_8032F924
                0x00000000803308a8                D_8032F948
                0x00000000803308cc                D_8032F96C
                0x00000000803308d8                TableToxBoxActions
                0x00000000803308f8                D_8032F998
                0x0000000080330900                TablePiranhaPlantActions
                0x0000000080330924                D_8032F9C4
                0x0000000080330940                D_8032F9E0
                0x000000008033095c                D_8032F9FC
                0x0000000080330978                D_8032FA18
                0x0000000080330994                D_8032FA34
                0x00000000803309b0                D_8032FA50
                0x00000000803309cc                D_8032FA6C
                0x00000000803309e8                D_8032FA88
                0x0000000080330a04                D_8032FAA4
                0x0000000080330a20                D_8032FAC0
                0x0000000080330a3c                D_8032FADC
                0x0000000080330a58                D_8032FAF8
                0x0000000080330a74                D_8032FB14
                0x0000000080330a90                D_8032FB30
                0x0000000080330aac                D_8032FB4C
                0x0000000080330b1c                TableBowserPuzzlePieceActions
                0x0000000080330b38                TableTuxiesMotherActions
                0x0000000080330b44                TableSmallPenguinActions
                0x0000000080330b5c                TableFishActions
                0x0000000080330b68                TableFishGroupActions
                0x0000000080330b74                TableBirdChirpChirpActions
                0x0000000080330b84                TableCheepCheepActions
                0x0000000080330b90                sExclamationBoxHitbox
                0x0000000080330ba0                TableExclamationBoxContents
                0x0000000080330c20                TableExclamationBoxActions
                0x0000000080330c38                sSkullSlidingBoxHitbox
                0x0000000080330c48                D_8032FCE8
                0x0000000080330c58                sTweesterHitbox
                0x0000000080330c68                TableTweesterActions
                0x0000000080330c74                sBooGivingStarHitbox
                0x0000000080330c84                TableCourtyardBooTripletPos
                0x0000000080330c98                TableBooActions
                0x0000000080330cb0                TableBooGivingStarActions
                0x0000000080330cc4                TableBooWithCageActions
                0x0000000080330cd4                sScuttlebugHitbox
                0x0000000080330ce4                TableWhompActions
                0x0000000080330d0c                D_8032FDAC
                0x0000000080330d30                D_8032FDD0
                0x0000000080330d54                D_8032FDF4
                0x0000000080330d78                D_8032FE18
                0x0000000080330d9c                sWindParticleHitbox
                0x0000000080330dac                D_8032FE4C
 build/us/src/game/platform_displacement.o(.data*)
 .data          0x0000000080330e20       0x20 build/us/src/game/platform_displacement.o
                0x0000000080330e20                D_8032FEC0
                0x0000000080330e24                unused_8032FEC4
                0x0000000080330e34                gMarioPlatform
 build/us/src/game/spawn_sound.o(.data*)
 build/us/src/game/debug.o(.data*)
 .data          0x0000000080330e40       0x80 build/us/src/game/debug.o
                0x0000000080330e40                sDebugEffectStringInfo
                0x0000000080330e64                sDebugEnemyStringInfo
                0x0000000080330e88                sDebugInfoDPadMask
                0x0000000080330e8c                sDebugInfoDPadUpdID
                0x0000000080330e90                sDebugLvSelectCheckFlag
                0x0000000080330e94                sDebugPage
                0x0000000080330e98                sNoExtraDebug
                0x0000000080330e9c                sDebugStringArrPrinted
                0x0000000080330ea0                sDebugSysCursor
                0x0000000080330ea4                sDebugInfoButtonSeqID
                0x0000000080330ea8                sDebugInfoButtonSeq
 build/us/src/game/screen_transition.o(.data*)
 .data          0x0000000080330ec0       0x20 build/us/src/game/screen_transition.o
                0x0000000080330ec0                D_8032FF60
                0x0000000080330ec4                D_8032FF64
                0x0000000080330ec8                D_8032FF68
 build/us/src/game/shadow.o(.data*)
 .data          0x0000000080330ee0       0x20 build/us/src/game/shadow.o
                0x0000000080330ee0                rectangles
 build/us/src/game/skybox.o(.data*)
 .data          0x0000000080330f00       0x30 build/us/src/game/skybox.o
                0x0000000080330f00                gSkyboxLists
                0x0000000080330f28                gSkyboxColors
 build/us/src/game/moving_texture.o(.data*)
 .data          0x0000000080330f30      0x3c0 build/us/src/game/moving_texture.o
                0x0000000080330f30                D_8032FFD0
                0x0000000080330f34                D_8032FFD4
                0x0000000080330f38                D_8032FFD8
                0x0000000080330f3c                D_8032FFDC
                0x0000000080330f40                D_8032FFE0
                0x0000000080330f44                D_8032FFE4
                0x0000000080330f64                D_80330004
                0x00000000803311a4                D_80330244
                0x000000008033127c                D_8033031C
 build/us/src/game/geo_misc.o(.data*)
 .data          0x00000000803312f0       0x10 build/us/src/game/geo_misc.o
                0x00000000803312f0                sCurAreaTimer
                0x00000000803312f4                sPrevAreaTimer
                0x00000000803312f8                sFlyingCarpetRippleTimer
 build/us/src/game/paintings.o(.data*)
 .data          0x0000000080331300       0x60 build/us/src/game/paintings.o
                0x0000000080331300                hmcPaintings
                0x0000000080331308                insideCastlePaintings
                0x0000000080331344                ttmPaintings
                0x000000008033134c                D_803303EC
                0x0000000080331358                D_803303F8
                0x000000008033135c                D_803303FC
 build/us/src/game/print.o(.data*)
 .data          0x0000000080331360       0x10 build/us/src/game/print.o
                0x0000000080331360                sTextLabelsCount
 build/us/src/game/ingame_menu.o(.data*)
 .data          0x0000000080331370      0x3e0 build/us/src/game/ingame_menu.o
                0x0000000080331370                D_U_80331370
                0x0000000080331470                gDiagBoxState
                0x0000000080331474                gDiagBoxOpenTimer
                0x0000000080331478                gDiagBoxScale
                0x000000008033147c                D_8033041C
                0x0000000080331480                gDiagBoxType
                0x0000000080331484                gDialogID
                0x0000000080331488                gLastDialogPageStrPos
                0x000000008033148c                D_8033042C
                0x0000000080331490                D_80330430
                0x0000000080331494                D_80330434
                0x0000000080331498                D_80330438
                0x000000008033149c                D_8033043C
                0x00000000803314a0                gDialogueResponse
                0x00000000803314b0                D_80330444
                0x00000000803314b4                D_80330448
                0x00000000803314f8                D_8033047C
                0x00000000803314fc                gEndCutsceneStr0
                0x0000000080331504                gEndCutsceneStr1
                0x0000000080331538                gEndCutsceneStr2
                0x0000000080331558                gEndCutsceneStr3
                0x000000008033156c                gEndCutsceneStr4
                0x0000000080331598                gEndCutsceneStr5
                0x00000000803315ac                gEndCutsceneStr6
                0x00000000803315cc                gEndCutsceneStr7
                0x00000000803315dc                gEndCutsceneStr8
                0x00000000803315e4                gEndCutsceneStrings
                0x000000008033160c                gCutsceneMsgFade
                0x0000000080331610                gCutsceneMsgIndex
                0x0000000080331614                gCutsceneMsgDuration
                0x0000000080331618                gCutsceneMsgTimer
                0x000000008033161c                D_80330530
                0x0000000080331620                D_80330534
                0x00000000803316c8                D_803305C0
                0x00000000803316cc                D_803305C4
                0x00000000803316d0                D_803305C8
                0x00000000803316d4                D_803305CC
 build/us/src/game/envfx_snow.o(.data*)
 .data          0x0000000080331750       0x50 build/us/src/game/envfx_snow.o
                0x0000000080331750                gEnvFxMode
                0x0000000080331754                D_80330644
                0x0000000080331758                gSnowTempVtx
                0x0000000080331788                gSnowFlakeVertex1
                0x0000000080331790                gSnowFlakeVertex2
                0x0000000080331798                gSnowFlakeVertex3
 build/us/src/game/envfx_bubbles.o(.data*)
 .data          0x00000000803317a0       0x40 build/us/src/game/envfx_bubbles.o
                0x00000000803317a0                D_80330690
                0x00000000803317a4                D_80330694
                0x00000000803317a8                gBubbleTempVtx
 build/us/src/game/macro_special_objects.o(.data*)
 .data          0x00000000803317e0      0xe10 build/us/src/game/macro_special_objects.o
                0x00000000803317e0                MacroObjectPresets
                0x0000000080332350                SpecialObjectPresets
 build/us/src/game/hud.o(.data*)
 .data          0x00000000803325f0       0x20 build/us/src/game/hud.o
                0x00000000803325f0                sPowerMeterHUD
                0x0000000080332600                D_803314F0
                0x0000000080332608                sCameraHUD
 build/us/src/game/obj_behaviors.o(.data*)
 .data          0x0000000080332610      0x230 build/us/src/game/obj_behaviors.o
                0x0000000080332610                D_80331500
                0x0000000080332614                D_80331504
                0x0000000080332618                D_80331508
                0x000000008033261c                D_8033150C
                0x0000000080332620                D_80331510
                0x0000000080332624                sMovingYellowCoinHitbox
                0x0000000080332634                sMovingBlueCoinHitbox
                0x0000000080332644                sBobombHitbox
                0x0000000080332654                sWhirlpoolHitbox
                0x0000000080332664                sAmpHitbox
                0x0000000080332674                sSmallBullyHitbox
                0x0000000080332684                sBigBullyHitbox
                0x0000000080332694                sMoneybagHitbox
                0x00000000803326a4                sMoneybagHiddenHitbox
                0x00000000803326b4                sBowlingBallHitbox
                0x00000000803326c4                D_803315B4
                0x0000000080332718                D_80331608
                0x0000000080332764                sRollingSphereHitbox
                0x0000000080332774                sCapHitbox
                0x0000000080332784                sCollectStarHitbox
                0x0000000080332794                sRedCoinHitbox
                0x00000000803327a4                D_80331694
                0x00000000803327a8                sBreakableBoxSmallHitbox
                0x00000000803327b8                D_803316A8
                0x00000000803327fc                sMantaRayHitbox
                0x000000008033280c                sFallingPillarHitbox
                0x000000008033281c                sTreasureChestBottomHitbox
                0x000000008033282c                sYoshiHomeLocations
 build/us/src/game/obj_behaviors_2.o(.data*)
 .data          0x0000000080332840      0x610 build/us/src/game/obj_behaviors_2.o
                0x0000000080332840                sKoopaHitbox
                0x0000000080332850                sKoopaUnshelledAttackHandlers
                0x0000000080332858                sKoopaShelledAttackHandlers
                0x0000000080332860                sKoopaTheQuickProperties
                0x0000000080332880                sPokeyBodyPartHitbox
                0x0000000080332890                sPokeyBodyPartAttackHandlers
                0x0000000080332898                sSwoopHitbox
                0x00000000803328a8                sFlyGuyHitbox
                0x00000000803328b8                sFlyGuyJitterAmounts
                0x00000000803328c0                sGoombaHitbox
                0x00000000803328d0                sGoombaProperties
                0x00000000803328f4                sGoombaAttackHandlers
                0x0000000080332900                sChainChompHitbox
                0x0000000080332910                sWigglerBodyPartHitbox
                0x0000000080332920                sWigglerHitbox
                0x0000000080332930                sWigglerAttackHandlers
                0x0000000080332938                sWigglerSpeeds
                0x0000000080332954                sSpinyHitbox
                0x0000000080332964                sSpinyWalkAttackHandlers
                0x000000008033296c                sEnemyLakituHitbox
                0x000000008033297c                sCloudPartHeights
                0x0000000080332984                sMontyMoleRiseFromGroundParticles
                0x0000000080332998                sMontyMoleHitbox
                0x00000000803329a8                sMontyMoleRockHitbox
                0x00000000803329b8                sMontyMoleRockBreakParticles
                0x00000000803329cc                sPlatformOnTrackCollisionModels
                0x00000000803329dc                sPlatformOnTrackPaths
                0x0000000080332a00                sSeesawPlatformCollisionModels
                0x0000000080332a20                sFerrisWheelProperties
                0x0000000080332a38                sWaterBombHitbox
                0x0000000080332a48                sWaterBombExplodeParticles
                0x0000000080332a5c                sWaterBombCannonParticle
                0x0000000080332a70                sTTCRotatingSolidCollisionModels
                0x0000000080332a78                sTTCRotatingSolidInitialDelays
                0x0000000080332a7c                sTTCPendulumInitialAccels
                0x0000000080332a8c                sTTCTreadmillCollisionModels
                0x0000000080332a94                sTTCTreadmillSpeeds
                0x0000000080332a9c                sTTCMovingBarDelays
                0x0000000080332aa4                sTTCMovingBarRandomDelays
                0x0000000080332aa8                sTTCCogCollisionModels
                0x0000000080332ab0                sTTCCogDirections
                0x0000000080332ab4                sTTCCogNormalSpeeds
                0x0000000080332ab8                sTTCPitBlockCollisionModels
                0x0000000080332ac0                sTTCPitBlockProperties
                0x0000000080332ae0                sTTCElevatorSpeeds
                0x0000000080332ae4                sTTC2DRotatorSpeeds
                0x0000000080332ae8                sTTC2DRotatorTimeBetweenTurns
                0x0000000080332af8                sTTCSpinnerSpeeds
                0x0000000080332b00                sMrBlizzardHitbox
                0x0000000080332b10                D_80331A00
                0x0000000080332b24                sMrBlizzardSnowballHitbox
                0x0000000080332b34                D_80331A24
                0x0000000080332b54                D_80331A44
                0x0000000080332b5c                D_80331A4C
                0x0000000080332b64                D_80331A54
                0x0000000080332bdc                D_80331ACC
                0x0000000080332be4                D_80331AD4
                0x0000000080332bf0                sRecoveryHeartHitbox
                0x0000000080332c00                sUnagiHitbox
                0x0000000080332c10                sHauntedChairHitbox
                0x0000000080332c20                sMadPianoHitbox
                0x0000000080332c30                sFlyingBookendHitbox
                0x0000000080332c40                D_80331B30
                0x0000000080332c4c                sBookSwitchHitbox
                0x0000000080332c5c                sFirePiranhaPlantHitbox
                0x0000000080332c6c                D_80331B5C
                0x0000000080332c74                sPiranhaPlantFireHitbox
                0x0000000080332c84                sSnufitHitbox
                0x0000000080332c94                sSnufitBulletHitbox
                0x0000000080332ca4                sEyerokHitbox
                0x0000000080332cb4                D_80331BA4
                0x0000000080332cbc                sKleptoHitbox
                0x0000000080332ccc                sKleptoTargetPositions
                0x0000000080332cf0                sKleptoAttackHandlers
                0x0000000080332cf8                sRacingPenguinData
                0x0000000080332d10                D_80331C00
                0x0000000080332d28                sClamShellHitbox
                0x0000000080332d38                sSkeeterHitbox
                0x0000000080332d48                D_80331C38
                0x0000000080332d58                sDonutPlatformPositions
                0x0000000080332e14                sTripletButterflyExplodeHitbox
                0x0000000080332e24                sTripletButterflyActivationData
                0x0000000080332e3c                sBubbaHitbox
 build/us/src/audio/interface_2.o(.data*)
 .data          0x0000000080332e50      0x450 build/us/src/audio/interface_2.o
                0x0000000080332e50                D_80331D40
                0x0000000080332e54                D_80331D44
                0x0000000080332e58                D_80331D48
                0x0000000080332f04                D_80331DF4
                0x0000000080332f40                D_80331E30
                0x0000000080332f44                D_80331E34
                0x0000000080332f48                D_80331E38
                0x0000000080332f54                D_80331E44
                0x0000000080332f6c                D_80331E5C
                0x0000000080332f88                D_80331E78
                0x0000000080332f98                D_80331E88
                0x0000000080332fa8                D_80331E98
                0x0000000080332fb8                D_80331EA8
                0x0000000080332fbc                D_80331EAC
                0x0000000080332fc0                D_80331EB0
                0x0000000080332fc4                D_80331EB4
                0x0000000080333060                D_80331F50
                0x00000000803330c0                D_80331FB0
                0x0000000080333138                D_80332028
                0x0000000080333188                D_80332078
                0x00000000803331ac                D_8033209C
                0x00000000803331b0                D_803320A0
                0x00000000803331b4                D_803320A4
                0x00000000803331c0                D_803320B0
                0x00000000803331cc                D_803320BC
                0x00000000803331d8                D_803320C8
                0x00000000803331e4                D_803320D4
                0x00000000803331f0                D_803320E0
                0x0000000080333208                D_803320F8
                0x0000000080333218                D_80332108
                0x000000008033321c                D_8033210C
                0x0000000080333220                D_80332110
                0x0000000080333224                D_80332114
                0x0000000080333228                D_80332118
                0x000000008033322c                D_8033211C
                0x0000000080333230                D_80332120
                0x0000000080333234                D_80332124
                0x0000000080333238                D_80332128
                0x000000008033323c                D_U_8033323C
 build/us/src/audio/data.o(.data*)
 .data          0x00000000803332a0     0x1d70 build/us/src/audio/data.o
                0x00000000803332a0                D_80332190
                0x0000000080333498                D_80332388
                0x0000000080333598                D_80332488
                0x0000000080333994                D_80332884
                0x0000000080333b94                D_80332A84
                0x0000000080333ba4                D_80332A94
                0x0000000080333bb4                D_80332AA4
                0x0000000080333bc4                D_80332AB4
                0x0000000080333bd0                SINE_WAVE
                0x0000000080333c50                SQUARE_WAVE
                0x0000000080333cd0                TRIANGLE_WAVE
                0x0000000080333d50                SAWTOOTH_WAVE
                0x0000000080333dd0                gWaveSamples
                0x0000000080333de0                D_80332CD0
                0x0000000080333df4                D_80332CE4
                0x0000000080333ff4                D_80332EE4
                0x00000000803341f4                D_803330E4
                0x00000000803343f4                D_803332E4
                0x00000000803345f4                D_803334E4
                0x00000000803347f4                D_803336E4
                0x00000000803349f4                D_803338E4
                0x0000000080334bf4                D_80333AE4
                0x0000000080334df4                D_80333CE4
                0x0000000080334ff4                D_80333EE4
                0x0000000080334ff8                D_80333EE8
                0x0000000080334ffc                D_80333EEC
                0x0000000080335000                D_80333EF0
                0x0000000080335004                D_80333EF4
                0x0000000080335008                unk_8033EF8
 build/us/libultra.a:osCreateViManager.o(.data*)
 .data          0x0000000080335010      0x8e0 build/us/libultra.a(osCreateViManager.o)
                0x0000000080335010                osViModeTable
                0x00000000803358d0                viMgrMainArgs
 build/us/libultra.a:osCreatePiManager.o(.data*)
 .data          0x00000000803358f0       0x20 build/us/libultra.a(osCreatePiManager.o)
                0x00000000803358f0                piMgrArgs
 build/us/libultra.a:osInitialize.o(.data*)
 .data          0x0000000080335910       0x10 build/us/libultra.a(osInitialize.o)
                0x0000000080335910                osClockRate
                0x0000000080335918                D_80334808
 build/us/libultra.a:osContInit.o(.data*)
 .data          0x0000000080335920       0x10 build/us/libultra.a(osContInit.o)
                0x0000000080335920                D_80334810
 build/us/libultra.a:osAiSetNextBuffer.o(.data*)
 .data          0x0000000080335930       0x10 build/us/libultra.a(osAiSetNextBuffer.o)
                0x0000000080335930                D_80334820
 build/us/libultra.a:osTimer.o(.data*)
 .data          0x0000000080335940       0x10 build/us/libultra.a(osTimer.o)
                0x0000000080335940                D_80334830
 build/us/libultra.a:_Printf.o(.data*)
 .data          0x0000000080335950       0x50 build/us/libultra.a(_Printf.o)
                0x0000000080335950                _spaces
                0x0000000080335974                _zeroes
 build/us/libultra.a:__osDequeueThread.o(.data*)
 .data          0x00000000803359a0       0x20 build/us/libultra.a(__osDequeueThread.o)
                0x00000000803359a0                D_80334890
                0x00000000803359a4                unknown
                0x00000000803359a8                D_80334898
                0x00000000803359ac                D_8033489C
                0x00000000803359b0                D_803348A0
                0x00000000803359b4                D_803348A4
 build/us/libultra.a:__osViInit.o(.data*)
 .data          0x00000000803359c0       0x70 build/us/libultra.a(__osViInit.o)
                0x00000000803359c0                D_803348B0
                0x0000000080335a20                D_80334910
                0x0000000080335a24                D_80334914
                0x0000000080335a28                D_80334918
                0x0000000080335a2c                D_8033491C
 build/us/libultra.a:__osExceptionPreamble.o(.data*)
 .data          0x0000000080335a30       0x20 build/us/libultra.a(__osExceptionPreamble.o)
                0x0000000080335a30                D_80334920
                0x0000000080335a44                D_80334934
                0x0000000080335a48                D_80334938
 build/us/libultra.a:__osPiCreateAccessQueue.o(.data*)
 .data          0x0000000080335a50       0x10 build/us/libultra.a(__osPiCreateAccessQueue.o)
                0x0000000080335a50                gOsPiAccessQueueCreated
 build/us/libultra.a:__osSiCreateAccessQueue.o(.data*)
 .data          0x0000000080335a60       0x10 build/us/libultra.a(__osSiCreateAccessQueue.o)
                0x0000000080335a60                gOsSiAccessQueueCreated
 build/us/libultra.a:_Litob.o(.data*)
 .data          0x0000000080335a70       0x30 build/us/libultra.a(_Litob.o)
 build/us/libultra.a:_Ldtob.o(.data*)
 build/us/libultra.a:osViData.o(.data*)
 .data          0x0000000080335aa0       0xa0 build/us/libultra.a(osViData.o)
                0x0000000080335aa0                D_80334990
                0x0000000080335af0                D_803349E0
 build/us/libultra.a:kdebugserver.o(.data*)
 .data          0x0000000080335b40       0x10 build/us/libultra.a(kdebugserver.o)
                0x0000000080335b40                D_80334A30
                0x0000000080335b44                D_80334A34
                0x0000000080335b48                D_80334A38
 build/us/libultra.a:__osSyncPutChars.o(.data*)
 .data          0x0000000080335b50       0x10 build/us/libultra.a(__osSyncPutChars.o)
                0x0000000080335b50                D_80334A40
                0x0000000080335b54                D_80334A44
 build/us/src/game/main.o(.rodata*)
 .rodata        0x0000000080335b60       0x20 build/us/src/game/main.o
 build/us/src/game/game.o(.rodata*)
 .rodata        0x0000000080335b80       0x10 build/us/src/game/game.o
 build/us/src/game/sound_init.o(.rodata*)
 .rodata        0x0000000080335b90       0x10 build/us/src/game/sound_init.o
 build/us/src/game/level_update.o(.rodata*)
 .rodata        0x0000000080335ba0      0x610 build/us/src/game/level_update.o
 build/us/src/game/interaction.o(.rodata*)
 .rodata        0x00000000803361b0      0x270 build/us/src/game/interaction.o
 build/us/src/game/mario.o(.rodata*)
 .rodata        0x0000000080336420      0x250 build/us/src/game/mario.o
 build/us/src/game/mario_step.o(.rodata*)
 .rodata        0x0000000080336670       0x60 build/us/src/game/mario_step.o
 build/us/src/game/mario_actions_cutscene.o(.rodata*)
 .rodata        0x00000000803366d0      0x270 build/us/src/game/mario_actions_cutscene.o
 build/us/src/game/mario_actions_automatic.o(.rodata*)
 .rodata        0x0000000080336940       0x30 build/us/src/game/mario_actions_automatic.o
 build/us/src/game/mario_actions_stationary.o(.rodata*)
 .rodata        0x0000000080336970      0x110 build/us/src/game/mario_actions_stationary.o
 build/us/src/game/mario_actions_moving.o(.rodata*)
 .rodata        0x0000000080336a80      0x180 build/us/src/game/mario_actions_moving.o
 build/us/src/game/mario_actions_airborne.o(.rodata*)
 .rodata        0x0000000080336c00      0x210 build/us/src/game/mario_actions_airborne.o
 build/us/src/game/mario_actions_submerged.o(.rodata*)
 .rodata        0x0000000080336e10       0xc0 build/us/src/game/mario_actions_submerged.o
 build/us/src/game/mario_actions_object.o(.rodata*)
 .rodata        0x0000000080336ed0       0x70 build/us/src/game/mario_actions_object.o
 build/us/src/game/mario_misc.o(.rodata*)
 .rodata        0x0000000080336f40       0x30 build/us/src/game/mario_misc.o
 build/us/src/game/area.o(.rodata*)
 .rodata        0x0000000080336f70       0x20 build/us/src/game/area.o
 build/us/src/game/rendering_graph_node.o(.rodata*)
 .rodata        0x0000000080336f90      0x160 build/us/src/game/rendering_graph_node.o
 build/us/src/game/camera.o(.rodata*)
 .rodata        0x00000000803370f0      0x6b0 build/us/src/game/camera.o
 build/us/src/game/object_list_processor.o(.rodata*)
 .rodata        0x00000000803377a0       0x10 build/us/src/game/object_list_processor.o
 build/us/src/game/object_helpers.o(.rodata*)
 .rodata        0x00000000803377b0       0xa0 build/us/src/game/object_helpers.o
 build/us/src/game/behavior_actions.o(.rodata*)
 .rodata        0x0000000080337850      0x5a0 build/us/src/game/behavior_actions.o
 build/us/src/game/object_collision.o(.rodata*)
 .rodata        0x0000000080337df0       0x10 build/us/src/game/object_collision.o
 build/us/src/game/spawn_object.o(.rodata*)
 .rodata        0x0000000080337e00       0x10 build/us/src/game/spawn_object.o
 build/us/src/game/spawn_sound.o(.rodata*)
 .rodata        0x0000000080337e10       0x10 build/us/src/game/spawn_sound.o
 build/us/src/game/debug.o(.rodata*)
 .rodata        0x0000000080337e20      0x1e0 build/us/src/game/debug.o
 build/us/src/game/screen_transition.o(.rodata*)
 .rodata        0x0000000080338000       0x60 build/us/src/game/screen_transition.o
 build/us/src/game/shadow.o(.rodata*)
 .rodata        0x0000000080338060       0xe0 build/us/src/game/shadow.o
 build/us/src/game/skybox.o(.rodata*)
 .rodata        0x0000000080338140       0x20 build/us/src/game/skybox.o
 build/us/src/game/moving_texture.o(.rodata*)
 .rodata        0x0000000080338160       0x10 build/us/src/game/moving_texture.o
 build/us/src/game/geo_misc.o(.rodata*)
 build/us/src/game/paintings.o(.rodata*)
 .rodata        0x0000000080338170       0x30 build/us/src/game/paintings.o
 build/us/src/game/print.o(.rodata*)
 build/us/src/game/ingame_menu.o(.rodata*)
 .rodata        0x00000000803381a0       0xe0 build/us/src/game/ingame_menu.o
 build/us/src/game/envfx_snow.o(.rodata*)
 .rodata        0x0000000080338280       0x40 build/us/src/game/envfx_snow.o
 build/us/src/game/envfx_bubbles.o(.rodata*)
 .rodata        0x00000000803382c0       0x50 build/us/src/game/envfx_bubbles.o
 build/us/src/game/macro_special_objects.o(.rodata*)
 .rodata        0x0000000080338310       0x70 build/us/src/game/macro_special_objects.o
 build/us/src/game/hud.o(.rodata*)
 .rodata        0x0000000080338380       0x50 build/us/src/game/hud.o
 build/us/src/game/obj_behaviors.o(.rodata*)
 .rodata        0x00000000803383d0      0x5e0 build/us/src/game/obj_behaviors.o
 build/us/src/game/obj_behaviors_2.o(.rodata*)
 .rodata        0x00000000803389b0      0x3f0 build/us/src/game/obj_behaviors_2.o
 build/us/src/audio/something.o(.rodata*)
 .rodata        0x0000000080338da0       0x20 build/us/src/audio/something.o
                0x0000000080338da0                D_80337BB0
                0x0000000080338da8                D_80337BB8
 build/us/src/audio/dac.o(.rodata*)
 .rodata        0x0000000080338dc0       0x50 build/us/src/audio/dac.o
                0x0000000080338dc0                jtbl_80337BE0
                0x0000000080338e00                D_U_80338E00
                0x0000000080338e04                D_U_80338E04
 build/us/src/audio/playback.o(.rodata*)
 .rodata        0x0000000080338e10       0x20 build/us/src/audio/playback.o
 build/us/src/audio/playback2.o(.rodata*)
 .rodata        0x0000000080338e30       0x30 build/us/src/audio/playback2.o
 build/us/src/audio/interface_1.o(.rodata*)
 .rodata        0x0000000080338e60      0x690 build/us/src/audio/interface_1.o
                0x0000000080338e60                jtbl_80337C90
                0x0000000080338e84                jtbl_80337CB4
                0x0000000080338eac                jtbl_80337CDC
                0x0000000080338ec0                jtbl_80337D08
                0x0000000080338fbc                jtbl_80337E04
 build/us/src/audio/interface_2.o(.rodata*)
 .rodata        0x00000000803394f0      0x2c0 build/us/src/audio/interface_2.o
                0x000000008033978c                jtbl_80338418
 build/us/libultra.a:guPerspectiveF.o(.rodata*)
 .rodata        0x00000000803397b0       0x10 build/us/libultra.a(guPerspectiveF.o)
 build/us/libultra.a:llconv.o(.rodata*)
 .rodata        0x00000000803397c0       0x10 build/us/libultra.a(llconv.o)
 build/us/libultra.a:cosf.o(.rodata*)
 .rodata        0x00000000803397d0       0x50 build/us/libultra.a(cosf.o)
 build/us/libultra.a:sinf.o(.rodata*)
 .rodata        0x0000000080339820       0x50 build/us/libultra.a(sinf.o)
 build/us/libultra.a:guRotateF.o(.rodata*)
 .rodata        0x0000000080339870       0x10 build/us/libultra.a(guRotateF.o)
 build/us/libultra.a:_Printf.o(.rodata*)
 .rodata        0x0000000080339880      0x100 build/us/libultra.a(_Printf.o)
                0x0000000080339880                length_str
                0x0000000080339884                flags_str
                0x000000008033988c                flags_arr
 build/us/libultra.a:__osExceptionPreamble.o(.rodata*)
 .rodata        0x0000000080339980       0x50 build/us/libultra.a(__osExceptionPreamble.o)
                0x0000000080339980                D_80338610
                0x00000000803399a0                jtbl_80338630
 build/us/libultra.a:NaN.o(.rodata*)
 .rodata        0x00000000803399d0       0x10 build/us/libultra.a(NaN.o)
                0x00000000803399d0                NAN
 build/us/libultra.a:_Litob.o(.rodata*)
 build/us/libultra.a:_Ldtob.o(.rodata*)
 .rodata        0x00000000803399e0       0x60 build/us/libultra.a(_Ldtob.o)
                0x00000000803399e0                D_80338670
 build/us/libultra.a:osSetIntMask.o(.rodata*)
 .rodata        0x0000000080339a40       0x80 build/us/libultra.a(osSetIntMask.o)
                0x0000000080339a40                D_803386D0
 build/us/libultra.a:guLookAtRef.o(.rodata*)
 build/us/lib/rsp.o(.rodata*)
 .rodata        0x0000000080339ac0      0xac0 build/us/lib/rsp.o
                0x0000000080339ac0                rspF3DDataStart
                0x000000008033a2c0                rspF3DDataEnd
                0x000000008033a2c0                rspAspMainDataStart
                0x000000008033a580                rspAspMainDataEnd
                0x000000008033a580                _mainSegmentEnd = (ADDR (.main) + SIZEOF (.main))
                0x00000000008c0c40                _mainSegmentRomEnd = (__romPos + SIZEOF (.main))
                [0x00000000007cc6c0]                __romPos = (__romPos + SIZEOF (.main))
                0x000000008033a580                _mainSegmentNoloadStart = ADDR (.main.noload)

.main.noload    0x000000008033a580    0x2cee0 load address 0x00000000000f5580
 build/us/src/game/main.o(.bss*)
 .bss           0x000000008033a580      0xa10 build/us/src/game/main.o
                0x000000008033a580                D_80339210
                0x000000008033a730                gIdleThread
                0x000000008033a8e0                gMainThread
                0x000000008033aa90                gGameLoopThread
                0x000000008033ac40                gSoundThread
                0x000000008033adf0                gPIMesgQueue
                0x000000008033ae08                gIntrMesgQueue
                0x000000008033ae20                gSPTaskMesgQueue
                0x000000008033ae38                gDmaMesgBuf
                0x000000008033ae40                gPIMesgBuf
                0x000000008033aec0                gSIEventMesgBuf
                0x000000008033aec8                gIntrMesgBuf
                0x000000008033af08                gUnknownMesgBuf
                0x000000008033af48                gDmaIoMesg
                0x000000008033af5c                D_80339BEC
                0x000000008033af60                gDmaMesgQueue
                0x000000008033af78                gSIEventMesgQueue
 build/us/src/game/game.o(.bss*)
 .bss           0x000000008033af90      0x1a0 build/us/src/game/game.o
                0x000000008033af90                gControllers
                0x000000008033afe8                gControllerStatuses
                0x000000008033aff8                gControllerPads
                0x000000008033b010                gGameVblankQueue
                0x000000008033b028                D_80339CB8
                0x000000008033b040                D_80339CD0
                0x000000008033b044                D_80339CD4
                0x000000008033b048                gGameVblankHandler
                0x000000008033b050                gFrameBuffers
                0x000000008033b05c                zBufferPtr
                0x000000008033b060                D_80339CF0
                0x000000008033b064                D_80339CF4
                0x000000008033b068                gGfxSPTask
                0x000000008033b06c                gDisplayListHead
                0x000000008033b070                gGfxPoolEnd
                0x000000008033b074                gGfxPool
                0x000000008033b078                gControllerBits
                0x000000008033b079                gEepromProbe
                0x000000008033b080                D_80339D10
                0x000000008033b090                gDemo
                0x000000008033b0a0                filler80339D30
 build/us/src/game/sound_init.o(.bss*)
 .bss           0x000000008033b130       0x40 build/us/src/game/sound_init.o
                0x000000008033b130                D_80339DC0
                0x000000008033b140                gSoundMesgQueue
                0x000000008033b158                gSoundMesgBuf
                0x000000008033b160                gSoundVblankHandler
 build/us/src/game/level_update.o(.bss*)
 .bss           0x000000008033b170      0x100 build/us/src/game/level_update.o
                0x000000008033b170                gMarioStates
                0x000000008033b238                sCurrPlayMode
                0x000000008033b23a                D_80339ECA
                0x000000008033b23c                sTransitionTimer
                0x000000008033b240                sTransitionUpdate
                0x000000008033b244                unused3
                0x000000008033b248                sCurrWarpType
                0x000000008033b249                sDestLevelNum
                0x000000008033b24a                sDestAreaIndex
                0x000000008033b24b                sDestWarpNodeId
                0x000000008033b24c                sWarpArg
                0x000000008033b250                D_80339EE0
                0x000000008033b252                sDelayedWarpOp
                0x000000008033b254                sDelayedWarpTimer
                0x000000008033b256                sSourceWarpNodeId
                0x000000008033b258                sDelayedWarpArg
                0x000000008033b25c                unused4
                0x000000008033b25e                sTimerRunning
                0x000000008033b260                gDisplayedLives
                0x000000008033b262                gDisplayedCoins
                0x000000008033b264                gDisplayedStars
                0x000000008033b266                gDisplayedHealthWedges
                0x000000008033b268                gDisplayedKeys
                0x000000008033b26a                gHudDisplayFlags
                0x000000008033b26c                gTimerValueInFrames
                0x000000008033b26e                gSaveFileDoesNotExist
 build/us/src/game/interaction.o(.bss*)
 .bss           0x000000008033b270       0x10 build/us/src/game/interaction.o
                0x000000008033b270                sDelayInvincTimer
                0x000000008033b272                sInvulnerable
 build/us/src/game/mario.o(.bss*)
 .bss           0x000000008033b280       0x20 build/us/src/game/mario.o
                0x000000008033b280                D_80339F10
                0x000000008033b288                filler80339F1C
 build/us/src/game/mario_actions_cutscene.o(.bss*)
 .bss           0x000000008033b2a0       0x20 build/us/src/game/mario_actions_cutscene.o
                0x000000008033b2a0                sIntroWarpPipeObj
                0x000000008033b2a4                sEndPeachObj
                0x000000008033b2a8                sEndRightToadObj
                0x000000008033b2ac                sEndLeftToadObj
                0x000000008033b2b0                sEndJumboStarObj
                0x000000008033b2b4                sUnused
                0x000000008033b2b8                sEndPeachAnimation
                0x000000008033b2bc                sEndToadAnims
 build/us/src/game/mario_actions_moving.o(.bss*)
 .bss           0x000000008033b2c0       0x80 build/us/src/game/mario_actions_moving.o
                0x000000008033b2c0                D_80339F50
 build/us/src/game/mario_actions_submerged.o(.bss*)
 .bss           0x000000008033b340       0x10 build/us/src/game/mario_actions_submerged.o
                0x000000008033b340                D_80339FD0
                0x000000008033b342                D_80339FD2
                0x000000008033b344                D_80339FD4
 build/us/src/game/mario_misc.o(.bss*)
 .bss           0x000000008033b350       0xb0 build/us/src/game/mario_misc.o
                0x000000008033b350                D_80339FE0
                0x000000008033b3b0                D_8033A040
 build/us/src/game/memory.o(.bss*)
 .bss           0x000000008033b400       0xa0 build/us/src/game/memory.o
                0x000000008033b400                sSegmentTable
                0x000000008033b480                sPoolFreeSpace
                0x000000008033b484                sPoolStart
                0x000000008033b488                sPoolEnd
                0x000000008033b48c                sPoolListHeadL
                0x000000008033b490                sPoolListHeadR
                0x000000008033b494                D_8033A124
 build/us/src/game/save_file.o(.bss*)
 .bss           0x000000008033b4a0       0x10 build/us/src/game/save_file.o
                0x000000008033b4a0                gWarpCheckpointActNum
                0x000000008033b4a1                gWarpCheckpointCourseNum
                0x000000008033b4a2                gWarpCheckpointLevelID
                0x000000008033b4a3                gWarpCheckpointAreaNum
                0x000000008033b4a4                gWarpCheckpointWarpNode
                0x000000008033b4a5                gMainMenuDataModified
                0x000000008033b4a6                gSaveFileModified
 build/us/src/game/area.o(.bss*)
 .bss           0x000000008033b4b0      0x630 build/us/src/game/area.o
                0x000000008033b4b0                gPlayerSpawnInfos
                0x000000008033b4d0                D_8033A160
                0x000000008033b8d0                gAreaData
                0x000000008033bab0                gWarpTransition
                0x000000008033bac6                gCurrCourseNum
                0x000000008033bac8                gCurrActNum
                0x000000008033baca                gCurrAreaIndex
                0x000000008033bacc                gSavedCourseNum
                0x000000008033bace                D_8033A75E
                0x000000008033bad0                D_8033A760
 build/us/src/game/rendering_graph_node.o(.bss*)
 .bss           0x000000008033bae0      0x8b0 build/us/src/game/rendering_graph_node.o
                0x000000008033bae0                D_8033A770
                0x000000008033bae8                D_8033A778
                0x000000008033c2e8                D_8033AF78
                0x000000008033c368                D_8033AFF8
                0x000000008033c369                D_8033AFF9
                0x000000008033c36a                D_8033AFFA
                0x000000008033c36c                D_8033AFFC
                0x000000008033c370                D_8033B000
                0x000000008033c374                D_8033B004
                0x000000008033c378                D_8033B008
                0x000000008033c379                D_8033B009
                0x000000008033c37a                D_8033B00A
                0x000000008033c37c                D_8033B00C
                0x000000008033c380                D_8033B010
                0x000000008033c384                D_8033B014
                0x000000008033c388                D_8033B018
 build/us/src/game/profiler.o(.bss*)
 .bss           0x000000008033c390      0x190 build/us/src/game/profiler.o
                0x000000008033c390                gProfilerFrameData
 build/us/src/game/camera.o(.bss*)
 .bss           0x000000008033c520      0x6c0 build/us/src/game/camera.o
                0x000000008033c520                gPlayerStatusForCamera
                0x000000008033c568                D_8033B1F8
                0x000000008033c578                D_8033B208
                0x000000008033c588                D_8033B218
                0x000000008033c594                D_8033B224
                0x000000008033c596                D_8033B226
                0x000000008033c598                gFramesPaused
                0x000000008033c5a0                D_8033B230
                0x000000008033c5c0                D_8033B250
                0x000000008033c5e8                sGeometryForMario
                0x000000008033c61c                unused_8033B2AC
                0x000000008033c61e                D_8033B2AE
                0x000000008033c620                D_8033B2B0
                0x000000008033c622                unused_8033B2B2
                0x000000008033c624                unused_8033B2B4
                0x000000008033c628                D_8033B2B8
                0x000000008033c668                D_8033B2F8
                0x000000008033c66c                D_8033B2FC
                0x000000008033c670                D_8033B300
                0x000000008033c674                D_8033B304
                0x000000008033c676                D_8033B306
                0x000000008033c678                D_8033B308
                0x000000008033c67c                unused_8033B30C
                0x000000008033c680                unused_8033B310
                0x000000008033c684                gCameraModeFlags
                0x000000008033c686                unused_8033B316
                0x000000008033c688                sCameraSideCFlags
                0x000000008033c68a                unused_8033B31A
                0x000000008033c68c                gCameraFlags1
                0x000000008033c68e                gCButtonsPressed
                0x000000008033c690                D_8033B320
                0x000000008033c698                gCameraStatus
                0x000000008033c74c                sCameraCutsceneRollOffset
                0x000000008033c750                sLastFrameAction
                0x000000008033c754                unused_8033B3E4
                0x000000008033c756                unused_8033B3E6
                0x000000008033c758                unused_8033B3E8
                0x000000008033c75a                D_8033B3EA
                0x000000008033c75c                D_8033B3EC
                0x000000008033c75e                D_8033B3EE
                0x000000008033c760                D_8033B3F0
                0x000000008033c764                D_8033B3F4
                0x000000008033c768                D_8033B3F8
                0x000000008033c76a                D_8033B3FA
                0x000000008033c76c                D_8033B3FC
                0x000000008033c770                D_8033B400
                0x000000008033c772                D_8033B402
                0x000000008033c774                D_8033B404
                0x000000008033c776                D_8033B406
                0x000000008033c778                gBowserLevelYawOffset
                0x000000008033c77c                D_8033B40C
                0x000000008033c780                D_8033B410
                0x000000008033c788                D_8033B418
                0x000000008033c7d0                D_8033B460
                0x000000008033c7dc                D_8033B46C
                0x000000008033c7e0                D_8033B470
                0x000000008033c7e8                D_8033B478
                0x000000008033c808                D_8033B498
                0x000000008033c828                D_8033B4B8
                0x000000008033c848                gCameraMovementFlags
                0x000000008033c84a                gCameraFlags2
                0x000000008033c850                D_8033B4E0
                0x000000008033c950                D_8033B5E0
                0x000000008033ca50                D_8033B6E0
                0x000000008033ca54                D_8033B6E4
                0x000000008033ca58                D_8033B6E8
                0x000000008033ca5a                D_8033B6EA
                0x000000008033ca5c                gCutsceneTimer
                0x000000008033ca60                D_8033B6F0
                0x000000008033cbc8                D_8033B858
                0x000000008033cbcc                D_8033B85C
                0x000000008033cbd0                gCurrLevelCamera
 build/us/src/game/object_list_processor.o(.bss*)
 .bss           0x000000008033cbe0    0x245a0 build/us/src/game/object_list_processor.o
                0x000000008033cbe0                gObjectListArray
                0x000000008033d260                gDebugInfoFlags
                0x000000008033d264                gNumFindFloorMisses
                0x000000008033d268                unused_8033BEF8
                0x000000008033d26c                gUnknownWallCount
                0x000000008033d270                gObjectCounter
                0x000000008033d274                gNumFindFloorCalls
                0x000000008033d276                gNumFindCeilCalls
                0x000000008033d278                gNumFindWallCalls
                0x000000008033d280                gDebugInfo
                0x000000008033d380                gDebugInfoOverwrite
                0x000000008033d480                gTimeStopState
                0x000000008033d488                gObjectPool
                0x0000000080360e88                gMacroObjectDefaultParent
                0x00000000803610e8                gObjectLists
                0x00000000803610f0                gFreeObjectList
                0x0000000080361158                gMarioObject
                0x000000008036115c                gLuigiObject
                0x0000000080361160                gCurrentObject
                0x0000000080361164                gBehCommand
                0x0000000080361168                gPrevFrameObjectCount
                0x000000008036116c                gSurfaceNodesAllocated
                0x0000000080361170                gSurfacesAllocated
                0x0000000080361174                gNumStaticSurfaceNodes
                0x0000000080361178                gNumStaticSurfaces
                0x000000008036117c                gObjectMemoryPool
 build/us/src/game/room.o(.bss*)
 .bss           0x0000000080361180       0xf0 build/us/src/game/room.o
                0x0000000080361180                gCheckingSurfaceCollisionsForCamera
                0x0000000080361182                gFindFloorIncludeSurface0012
                0x0000000080361184                gWaterRegions
                0x0000000080361188                gWaterLevels
                0x00000000803611d8                gDoorAdjacentRooms
                0x0000000080361250                gMarioCurrentRoom
                0x0000000080361252                D_8035FEE2
                0x0000000080361254                D_8035FEE4
                0x0000000080361256                gTHIWaterDrained
                0x0000000080361258                gTTCSpeedSetting
                0x000000008036125a                gMarioShotFromCannon
                0x000000008036125c                gCCMEnteredSlide
                0x000000008036125e                gNumRoomedObjectsInMarioRoom
                0x0000000080361260                gNumRoomedObjectsNotInMarioRoom
                0x0000000080361262                gWDWWaterLevelChanging
                0x0000000080361264                gMarioOnMerryGoRound
 build/us/src/game/object_helpers.o(.bss*)
 .bss           0x0000000080361270       0x10 build/us/src/game/object_helpers.o
                0x0000000080361270                sGrabReleaseState
 build/us/src/game/behavior_actions.o(.bss*)
 .bss           0x0000000080361280       0x10 build/us/src/game/behavior_actions.o
                0x0000000080361280                D_8035FF10
 build/us/src/game/debug.o(.bss*)
 .bss           0x0000000080361290       0x20 build/us/src/game/debug.o
                0x0000000080361290                gDebugPrintState1
                0x00000000803612a0                gDebugPrintState2
 build/us/src/game/shadow.o(.bss*)
 .bss           0x00000000803612b0       0x10 build/us/src/game/shadow.o
                0x00000000803612b0                sMarioOnFlyingCarpet
                0x00000000803612b2                sSurfaceTypeBelowShadow
                0x00000000803612b4                gShadowAboveWaterOrLava
                0x00000000803612b5                gMarioOnIceOrCarpet
 build/us/src/game/skybox.o(.bss*)
 .bss           0x00000000803612c0       0x20 build/us/src/game/skybox.o
                0x00000000803612c0                D_8035FF50
 build/us/src/game/moving_texture.o(.bss*)
 .bss           0x00000000803612e0       0x10 build/us/src/game/moving_texture.o
                0x00000000803612e0                D_8035FF70
 build/us/src/game/geo_misc.o(.bss*)
 .bss           0x00000000803612f0       0x10 build/us/src/game/geo_misc.o
                0x00000000803612f0                gFlyingCarpetState
 build/us/src/game/paintings.o(.bss*)
 .bss           0x0000000080361300       0x20 build/us/src/game/paintings.o
                0x0000000080361300                D_8035FF90
                0x0000000080361304                D_8035FF94
                0x0000000080361308                D_8035FF98
                0x000000008036130c                D_8035FF9C
                0x0000000080361310                D_8035FFA0
                0x0000000080361314                D_8035FFA4
                0x0000000080361318                D_8035FFA8
                0x000000008036131c                D_8035FFAC
 build/us/src/game/print.o(.bss*)
 .bss           0x0000000080361320       0xd0 build/us/src/game/print.o
                0x0000000080361320                sTextLabels
 build/us/src/game/ingame_menu.o(.bss*)
 .bss           0x00000000803613f0       0x10 build/us/src/game/ingame_menu.o
                0x00000000803613f0                D_80360080
                0x00000000803613f2                gLastDialogLineNum
                0x00000000803613f4                D_80360084
                0x00000000803613f8                D_80360088
                0x00000000803613fa                gCutsceneMsgXOffset
                0x00000000803613fc                gCutsceneMsgYOffset
                0x00000000803613fe                D_8036008E
 build/us/src/game/envfx_snow.o(.bss*)
 .bss           0x0000000080361400       0x20 build/us/src/game/envfx_snow.o
                0x0000000080361400                gEnvFxBuffer
                0x0000000080361408                gSnowCylinderLastPos
                0x0000000080361414                gSnowParticleCount
                0x0000000080361416                gSnowParticleMaxCount
 build/us/src/game/envfx_bubbles.o(.bss*)
 .bss           0x0000000080361420       0x20 build/us/src/game/envfx_bubbles.o
                0x0000000080361420                gEnvFxBubbleConfig
                0x0000000080361434                sGfxCursor
                0x0000000080361438                sBubbleParticleCount
                0x000000008036143c                sBubbleParticleMaxCount
 build/us/src/game/macro_special_objects.o(.bss*)
 build/us/src/game/hud.o(.bss*)
 .bss           0x0000000080361440       0x10 build/us/src/game/hud.o
                0x0000000080361440                D_803600D0
 build/us/src/game/obj_behaviors.o(.bss*)
 .bss           0x0000000080361450       0x10 build/us/src/game/obj_behaviors.o
                0x0000000080361450                D_803600E0
 build/us/src/game/obj_behaviors_2.o(.bss*)
 .bss           0x0000000080361460       0x30 build/us/src/game/obj_behaviors_2.o
                0x0000000080361460                sNumActiveFirePiranhaPlants
                0x0000000080361464                sNumKilledFirePiranhaPlants
                0x0000000080361468                sObjSavedPosX
                0x000000008036146c                sObjSavedPosY
                0x0000000080361470                sObjSavedPosZ
                0x0000000080361474                sMontyMoleHoleList
                0x0000000080361478                sMontyMoleKillStreak
                0x000000008036147c                sMontyMoleLastKilledPosX
                0x0000000080361480                sMontyMoleLastKilledPosY
                0x0000000080361484                sMontyMoleLastKilledPosZ
                0x0000000080361488                sMasterTreadmill
 build/us/src/audio/interface_2.o(.bss*)
 .bss           0x0000000080361490     0x3710 build/us/src/audio/interface_2.o
                0x0000000080361490                D_80360120
                0x0000000080361498                D_80360128
                0x0000000080361c98                D_80360928
                0x0000000080361f98                D_80360C28
                0x0000000080361fa8                D_80360C38
                0x0000000080361fb8                D_80360C48
                0x0000000080364b78                D_80363808
                0x0000000080364b82                D_80363812
                0x0000000080364b83                D_80363813
                0x0000000080364b88                D_80363818
 build/us/libultra.a:osSetEventMesg.o(.bss*)
 .bss           0x0000000080364ba0       0x80 build/us/libultra.a(osSetEventMesg.o)
                0x0000000080364ba0                D_80363830
 build/us/libultra.a:osSpTaskLoadGo.o(.bss*)
 .bss           0x0000000080364c20       0x40 build/us/libultra.a(osSpTaskLoadGo.o)
                0x0000000080364c20                D_803638B0
 build/us/libultra.a:osCreateViManager.o(.bss*)
 .bss           0x0000000080364c60     0x1210 build/us/libultra.a(osCreateViManager.o)
                0x0000000080364c60                viMgrThread
                0x0000000080364e10                viMgrStack
                0x0000000080365e10                __osViMesgQueue
                0x0000000080365e28                viMgrMesgBuff
                0x0000000080365e40                viEventViMesg
                0x0000000080365e58                viEventCounterMesg
 build/us/libultra.a:osCreatePiManager.o(.bss*)
 .bss           0x0000000080365e70     0x11d0 build/us/libultra.a(osCreatePiManager.o)
                0x0000000080365e70                piMgrThread
                0x0000000080366020                piMgrStack
                0x0000000080367020                __osPiMesgQueue
                0x0000000080367038                piMgrMesgBuff
 build/us/libultra.a:osInitialize.o(.bss*)
 .bss           0x0000000080367040       0x10 build/us/libultra.a(osInitialize.o)
                0x0000000080367040                D_80365CD0
 build/us/libultra.a:osContStartReadData.o(.bss*)
 .bss           0x0000000080367050       0x40 build/us/libultra.a(osContStartReadData.o)
                0x0000000080367050                D_80365CE0
                0x000000008036708c                D_80365D1C
 build/us/libultra.a:osContInit.o(.bss*)
 .bss           0x0000000080367090       0x50 build/us/libultra.a(osContInit.o)
                0x0000000080367090                D_80365D20
                0x0000000080367091                _osCont_numControllers
                0x0000000080367098                D_80365D28
                0x00000000803670b8                _osContMesgQueue
                0x00000000803670d0                _osContMesgBuff
 build/us/libultra.a:guRotateF.o(.bss*)
 .bss           0x00000000803670e0       0x10 build/us/libultra.a(guRotateF.o)
 build/us/libultra.a:osTimer.o(.bss*)
 .bss           0x00000000803670f0       0x40 build/us/libultra.a(osTimer.o)
                0x00000000803670f0                D_80365D80
                0x0000000080367110                _osCurrentTime
                0x0000000080367118                D_80365DA8
                0x000000008036711c                D_80365DAC
                0x0000000080367120                D_80365DB0
 build/us/libultra.a:_Printf.o(.bss*)
 build/us/libultra.a:__osPiCreateAccessQueue.o(.bss*)
 .bss           0x0000000080367130       0x20 build/us/libultra.a(__osPiCreateAccessQueue.o)
                0x0000000080367130                osPiMesgBuff
                0x0000000080367138                gOsPiMessageQueue
 build/us/libultra.a:__osSiCreateAccessQueue.o(.bss*)
 .bss           0x0000000080367150       0x20 build/us/libultra.a(__osSiCreateAccessQueue.o)
                0x0000000080367150                osSiMesgBuff
                0x0000000080367158                gOsSiMessageQueue
 build/us/libultra.a:osEepromWrite.o(.bss*)
 .bss           0x0000000080367170       0x40 build/us/libultra.a(osEepromWrite.o)
                0x0000000080367170                D_80365E00
                0x00000000803671ac                D_80365E3C
 build/us/libultra.a:kdebugserver.o(.bss*)
 .bss           0x00000000803671b0      0x2b0 build/us/libultra.a(kdebugserver.o)
                0x00000000803671b0                D_80365E40
                0x00000000803672b0                gInterruptedThread
                0x0000000080367460                _mainSegmentNoloadEnd = (ADDR (.main.noload) + SIZEOF (.main.noload))
                0x0000000000000001                ASSERT ((. <= 0x80378800), Error: main segment extended into engine.)
                0x0000000080378800                _engineSegmentStart = ADDR (.engine)
                0x00000000007cc6c0                _engineSegmentRomStart = __romPos

.engine         0x0000000080378800    0x13490 load address 0x00000000000f5580
 build/us/src/engine/math_util.o(.text)
 .text          0x0000000080378800     0x2a20 build/us/src/engine/math_util.o
                0x0000000080378800                vec3f_copy
                0x0000000080378840                vec3f_set
                0x000000008037888c                vec3f_add
                0x00000000803788e4                vec3f_sum
                0x000000008037893c                vec3s_copy
                0x000000008037897c                vec3s_set
                0x00000000803789c8                vec3s_add
                0x0000000080378a20                vec3s_sum
                0x0000000080378a78                vec3s_sub
                0x0000000080378ad0                vec3s_to_vec3f
                0x0000000080378b34                vec3f_to_vec3s
                0x0000000080378c50                find_vector_perpendicular_to_plane
                0x0000000080378d38                vec3f_cross
                0x0000000080378dc0                vec3f_normalize
                0x0000000080378e68                mtxf_copy
                0x0000000080378eb4                mtxf_identity
                0x0000000080378f24                mtxf_translate
                0x0000000080378f84                func_80378F84
                0x0000000080379440                mtxf_rotate_zxy_and_translate
                0x00000000803795f0                mtxf_rotate_xyz_and_translate
                0x0000000080379798                func_80379798
                0x0000000080379918                mtxf_from_up_direction
                0x0000000080379aa4                func_80379AA4
                0x0000000080379f60                mtxf_mul
                0x000000008037a29c                mtxf_scale_vec3f
                0x000000008037a348                mtxf_mul_vec3s
                0x000000008037a434                mtxf_to_mtx
                0x000000008037a4b8                mtxf_rotate_xy
                0x000000008037a550                func_8037A550
                0x000000008037a69c                vec3f_get_dist_and_angle
                0x000000008037a788                vec3f_set_dist_and_angle
                0x000000008037a860                approach_s32
                0x000000008037a8b4                approach_f32
                0x000000008037a924                atan2_lookup
                0x000000008037a9a8                atan2s
                0x000000008037ab88                atan2f
                0x000000008037abec                func_8037ABEC
                0x000000008037afb8                func_8037AFB8
                0x000000008037afe8                func_8037AFE8
 build/us/src/engine/graph_node.o(.text)
 .text          0x000000008037b220     0x1b40 build/us/src/engine/graph_node.o
                0x000000008037b220                init_scene_graph_node_links
                0x000000008037b24c                init_graph_node_screen_area
                0x000000008037b30c                init_graph_node_002
                0x000000008037b380                init_graph_node_cam_frustum
                0x000000008037b448                init_graph_node_start
                0x000000008037b4ac                init_graph_node_toggle_z_buffer
                0x000000008037b530                init_graph_node_render_range
                0x000000008037b5b4                init_graph_node_switch_case
                0x000000008037b670                init_graph_node_114
                0x000000008037b744                init_graph_node_translation_rotation_optional_display_list
                0x000000008037b7f8                init_graph_node_016
                0x000000008037b89c                init_graph_node_017
                0x000000008037b940                init_graph_node_scale_optional_display_list
                0x000000008037b9e0                init_graph_node_object
                0x000000008037bad4                init_graph_node_02F
                0x000000008037bb48                init_graph_node_display_list_translated
                0x000000008037bbec                init_graph_node_billboard_optional_display_list
                0x000000008037bc90                init_graph_node_display_list
                0x000000008037bd24                init_graph_node_shadow
                0x000000008037bdb4                init_graph_node_029
                0x000000008037be28                init_graph_node_12A
                0x000000008037becc                init_graph_node_background
                0x000000008037bf84                init_graph_node_12E
                0x000000008037c044                func_8037C044
                0x000000008037c0bc                func_8037C0BC
                0x000000008037c138                func_8037C138
                0x000000008037c1e4                func_8037C1E4
                0x000000008037c360                func_8037C360
                0x000000008037c3d0                func_8037C3D0
                0x000000008037c448                func_8037C448
                0x000000008037c51c                func_8037C51C
                0x000000008037c658                func_8037C658
                0x000000008037c708                func_8037C708
                0x000000008037c7d8                func_8037C7D8
                0x000000008037c844                func_8037C844
                0x000000008037c9e8                Unknown8037C9E8
                0x000000008037cb10                Unknown8037CB10
                0x000000008037cb60                read_vec3s_to_vec3f
                0x000000008037cbc0                read_vec3s
                0x000000008037cbfc                read_vec3s_angle
                0x000000008037cc74                register_scene_graph_node
 build/us/src/engine/geo_layout.o(.text)
 .text          0x000000008037cd60     0x1440 build/us/src/engine/geo_layout.o
                0x000000008037cd60                geo_layout_cmd_branch_and_link
                0x000000008037ce24                geo_layout_cmd_end
                0x000000008037cee8                geo_layout_cmd_branch
                0x000000008037cf70                geo_layout_cmd_return
                0x000000008037cfc0                geo_layout_cmd_open_node
                0x000000008037d018                geo_layout_cmd_close_node
                0x000000008037d050                geo_layout_cmd_06
                0x000000008037d0d0                geo_layout_cmd_update_node_flags
                0x000000008037d1d0                geo_layout_cmd_node_screen_area
                0x000000008037d328                geo_layout_cmd_09
                0x000000008037d3a4                geo_layout_cmd_node_cam_frustum
                0x000000008037d48c                geo_layout_cmd_node_start
                0x000000008037d4dc                geo_layout_cmd_nop3
                0x000000008037d500                geo_layout_cmd_node_toggle_z_buffer
                0x000000008037d55c                geo_layout_cmd_node_render_range
                0x000000008037d5d4                geo_layout_cmd_node_switch_case
                0x000000008037d640                geo_layout_cmd_0F
                0x000000008037d6f0                geo_layout_cmd_node_translation_rotation_optional_display_list
                0x000000008037d8d4                geo_layout_cmd_node_translation_node_optional_display_list
                0x000000008037d998                geo_layout_cmd_node_rotation_node_optional_display_list
                0x000000008037da5c                geo_layout_cmd_node_scale
                0x000000008037db50                geo_layout_cmd_nop2
                0x000000008037db74                geo_layout_cmd_node_display_list_translated
                0x000000008037dc10                geo_layout_cmd_node_billboard_optional_display_list
                0x000000008037dcd4                geo_layout_cmd_node_display_list
                0x000000008037dd4c                geo_layout_cmd_node_shadow
                0x000000008037dddc                geo_layout_cmd_node_render_obj
                0x000000008037de34                geo_layout_cmd_node_poly_addr
                0x000000008037de94                geo_layout_cmd_node_background
                0x000000008037def8                geo_layout_cmd_nop
                0x000000008037df1c                geo_layout_cmd_1B
                0x000000008037dfd4                geo_layout_cmd_1C
                0x000000008037e058                geo_layout_cmd_20
                0x000000008037e0b4                process_geo_layout
 build/us/src/engine/level_script.o(.text)
 .text          0x000000008037e1a0     0x24f0 build/us/src/engine/level_script.o
                0x000000008037e1a0                eval_script_op
                0x000000008037e2c4                level_cmd_load_and_execute
                0x000000008037e388                level_cmd_exit_and_execute
                0x000000008037e404                level_cmd_exit
                0x000000008037e47c                level_cmd_sleep
                0x000000008037e4fc                level_cmd_sleep2
                0x000000008037e580                level_cmd_jump
                0x000000008037e5b8                level_cmd_jump_and_link
                0x000000008037e620                level_cmd_return
                0x000000008037e650                level_cmd_jump_and_link_push_arg
                0x000000008037e6d4                level_cmd_jump_repeat
                0x000000008037e780                level_cmd_loop_begin
                0x000000008037e7f8                level_cmd_loop_until
                0x000000008037e878                level_cmd_jump_if
                0x000000008037e8e8                level_cmd_jump_and_link_if
                0x000000008037e988                level_cmd_skip_if
                0x000000008037ea18                level_cmd_skip
                0x000000008037ea70                level_cmd_skippable_nop
                0x000000008037ea98                level_cmd_call
                0x000000008037eb04                level_cmd_call_loop
                0x000000008037eb98                level_cmd_set_register
                0x000000008037ebd4                level_cmd_push_pool_state
                0x000000008037ec14                level_cmd_pop_pool_state
                0x000000008037ec54                level_cmd_load_to_fixed_address
                0x000000008037eca4                level_cmd_load_segment
                0x000000008037ecf8                level_cmd_load_compressed_segment
                0x000000008037ed48                level_cmd_19
                0x000000008037edf8                level_cmd_1A
                0x000000008037ee48                level_cmd_init_level
                0x000000008037eea8                level_cmd_clear_level
                0x000000008037ef00                level_cmd_alloc_level_pool
                0x000000008037ef70                level_cmd_free_level_pool
                0x000000008037f010                level_cmd_begin_area
                0x000000008037f130                level_cmd_end_area
                0x000000008037f164                level_cmd_21
                0x000000008037f214                level_cmd_22
                0x000000008037f2a4                level_cmd_23
                0x000000008037f36c                level_cmd_init_mario
                0x000000008037f45c                level_cmd_place_object
                0x000000008037f67c                level_cmd_create_warp_node
                0x000000008037f790                level_cmd_create_instant_warp
                0x000000008037f920                level_cmd_set_terrain_type
                0x000000008037f994                level_cmd_create_painting_warp_node
                0x000000008037fb18                level_cmd_3A
                0x000000008037fc38                level_cmd_create_whirlpool
                0x000000008037fde4                level_cmd_set_blackout
                0x000000008037fe2c                level_cmd_set_gamma
                0x000000008037fe94                level_cmd_set_terrain_data
                0x000000008037ff14                level_cmd_set_rooms
                0x000000008037ff94                level_cmd_39
                0x0000000080380014                level_cmd_load_area
                0x000000008038007c                level_cmd_2A
                0x00000000803800bc                level_cmd_set_mario_start_pos
                0x0000000080380160                level_cmd_2C
                0x00000000803801a0                level_cmd_2D
                0x00000000803801e0                level_cmd_set_transition
                0x000000008038024c                level_cmd_nop
                0x0000000080380274                level_cmd_30
                0x0000000080380300                level_cmd_set_music
                0x000000008038039c                level_cmd_set_menu_music
                0x00000000803803ec                level_cmd_38
                0x0000000080380434                level_cmd_get_or_set_var
                0x00000000803805c8                level_script_execute
 build/us/src/engine/surface_collision.o(.text)
 .text          0x0000000080380690     0x1e00 build/us/src/engine/surface_collision.o
                0x0000000080380690                find_wall_collisions_from_list
                0x0000000080380de8                resolve_wall_collisions
                0x0000000080380e8c                find_wall_collisions
                0x0000000080381038                find_ceil_from_list
                0x0000000080381264                find_ceil
                0x0000000080381470                unused_find_floor_height
                0x00000000803814b8                find_floor_height_and_data
                0x000000008038156c                find_floor_from_list
                0x0000000080381794                find_floor_height
                0x00000000803817e0                find_dynamic_floor
                0x0000000080381900                find_floor
                0x0000000080381ba0                find_water_level
                0x0000000080381d3c                func_80381D3C
                0x0000000080381ec8                surface_list_length
                0x0000000080381f08                debug_surface_list_info
                0x0000000080382294                unused_resolve_floor_or_ceil_collisions
 build/us/src/engine/surface_load.o(.text)
 .text          0x0000000080382490     0x16e0 build/us/src/engine/surface_load.o
                0x0000000080382490                alloc_surface_node
                0x00000000803824f8                alloc_surface
                0x0000000080382590                clear_spatial_partition
                0x00000000803825d0                clear_static_surfaces
                0x00000000803825fc                add_surface_to_cell
                0x000000008038283c                min3
                0x000000008038289c                max3
                0x00000000803828fc                lower_cell_index
                0x0000000080382990                upper_cell_index
                0x0000000080382a2c                add_surface
                0x0000000080382b6c                unused_80382B6C
                0x0000000080382b7c                read_surface_data
                0x0000000080382f84                surface_has_force
                0x0000000080382fec                get_surface_flags
                0x0000000080383068                load_static_surfaces
                0x00000000803831d0                read_vertex_data
                0x0000000080383228                load_water_regions
                0x0000000080383340                alloc_surface_pools
                0x00000000803833b8                load_area_terrain
                0x00000000803835a4                clear_dynamic_surfaces
                0x0000000080383604                unused_80383604
                0x0000000080383614                transform_object_vertices
                0x0000000080383828                load_object_surfaces
                0x00000000803839cc                load_object_collision_model
 build/us/src/engine/behavior_script.o(.text)
 .text          0x0000000080383b70     0x2420 build/us/src/engine/behavior_script.o
                0x0000000080383b70                func_80383B70
                0x0000000080383bb0                RandomU16
                0x0000000080383cb4                RandomFloat
                0x0000000080383d1c                RandomSign
                0x0000000080383d68                func_80383D68
                0x0000000080383dbc                cur_object_stack_push
                0x0000000080383df8                cur_object_stack_pop
                0x0000000080383e44                Unknown80383E44
                0x0000000080383e5c                beh_cmd_unhide
                0x0000000080383ea0                beh_cmd_graph_clear
                0x0000000080383ee4                beh_cmd_billboard
                0x0000000080383f24                beh_cmd_graph_node
                0x0000000080383f94                beh_cmd_obj_load_chill
                0x000000008038401c                beh_cmd_obj_spawn
                0x00000000803840b4                beh_cmd_obj_load_chill_param
                0x0000000080384164                beh_cmd_deactivate
                0x0000000080384188                beh_cmd_break
                0x00000000803841a0                beh_cmd_break2
                0x00000000803841b8                beh_cmd_call
                0x0000000080384224                beh_cmd_return
                0x000000008038425c                beh_cmd_delay
                0x00000000803842e4                beh_cmd_delay_var
                0x000000008038438c                beh_cmd_goto
                0x00000000803843e0                Behavior26
                0x0000000080384450                beh_cmd_begin_repeat
                0x00000000803844c0                beh_cmd_end_repeat
                0x0000000080384554                beh_cmd_end_repeat_nobreak
                0x00000000803845e8                beh_cmd_begin_loop
                0x0000000080384634                beh_cmd_end_loop
                0x0000000080384678                beh_cmd_callnative
                0x00000000803846d0                beh_cmd_obj_set_float
                0x000000008038475c                beh_cmd_obj_set_int
                0x00000000803847d4                Behavior36
                0x0000000080384854                beh_cmd_obj_set_float_rand
                0x0000000080384928                beh_cmd_obj_set_int_rand
                0x00000000803849f8                beh_cmd_obj_set_int_rand_rshift
                0x0000000080384ab4                beh_cmd_obj_add_float_rand
                0x0000000080384b90                beh_cmd_obj_add_int_rand_rshift
                0x0000000080384c5c                beh_cmd_obj_add_float
                0x0000000080384cf0                beh_cmd_obj_add_int
                0x0000000080384d70                beh_cmd_obj_or_int
                0x0000000080384e04                beh_cmd_obj_bit_clear_int
                0x0000000080384e9c                beh_cmd_obj_set_int32
                0x0000000080384f08                beh_cmd_obj_animate
                0x0000000080384f8c                beh_cmd_obj_drop_floor
                0x000000008038503c                Behavior18
                0x0000000080385084                Behavior1A
                0x00000000803850cc                Behavior19
                0x0000000080385114                beh_cmd_obj_sum_float
                0x00000000803851d0                beh_cmd_obj_sum_int
                0x000000008038528c                beh_cmd_set_hitbox
                0x000000008038531c                beh_cmd_obj_set_float2
                0x00000000803853ac                beh_cmd_collision_sphere
                0x000000008038546c                Behavior24
                0x00000000803854cc                beh_cmd_begin
                0x000000008038556c                Unknown8038556C
                0x00000000803856a0                beh_cmd_collision_data
                0x0000000080385700                beh_cmd_obj_set_pos
                0x000000008038575c                beh_cmd_interact_type
                0x00000000803857a0                Behavior31
                0x00000000803857e4                beh_cmd_scale
                0x000000008038586c                beh_cmd_obj_set_gravity
                0x0000000080385a60                beh_cmd_obj_bit_clear_int32
                0x0000000080385af0                beh_cmd_spawn_addr
                0x0000000080385b4c                beh_cmd_text_anim_rate
                0x0000000080385bf0                stub_80385BF0
                0x0000000080385c00                cur_object_exec_behavior
 build/us/src/engine/graph_node.o(.data*)
 .data          0x0000000080385f90       0x70 build/us/src/engine/graph_node.o
                0x0000000080385f90                identityMtx
                0x0000000080385fb0                zeroMtx
                0x0000000080385fd0                D_80385FD0
                0x0000000080385fdc                D_80385FDC
                0x0000000080385fe4                D_80385FE4
                0x0000000080385ff0                unused80385FF0
 build/us/src/engine/math_util.o(.data*)
 build/us/data/trig_tables.o(.data*)
 .data          0x0000000080386000     0x5810 build/us/data/trig_tables.o
                0x0000000080386000                gSineTable
                0x0000000080387000                gCosineTable
                0x000000008038b000                D_8038B000
 build/us/src/engine/geo_layout.o(.data*)
 .data          0x000000008038b810       0x90 build/us/src/engine/geo_layout.o
                0x000000008038b810                GeoLayoutJumpTable
                0x000000008038b894                unused_8038B894
 build/us/src/engine/level_script.o(.data*)
 .data          0x000000008038b8a0      0x110 build/us/src/engine/level_script.o
                0x000000008038b8a0                sLevelPool
                0x000000008038b8a4                sDelayFrames
                0x000000008038b8a8                sDelayFrames2
                0x000000008038b8ac                sCurrAreaIndex
                0x000000008038b8b0                sStackTop
                0x000000008038b8b4                sStackBase
                0x000000008038b8b8                LevelScriptJumpTable
 build/us/src/engine/behavior_script.o(.data*)
 .data          0x000000008038b9b0       0xe0 build/us/src/engine/behavior_script.o
                0x000000008038b9b0                BehaviorJumpTable
 build/us/src/engine/math_util.o(.rodata*)
 .rodata        0x000000008038ba90       0x60 build/us/src/engine/math_util.o
 build/us/src/engine/level_script.o(.rodata*)
 .rodata        0x000000008038baf0       0x50 build/us/src/engine/level_script.o
 build/us/src/engine/surface_collision.o(.rodata*)
 .rodata        0x000000008038bb40       0x70 build/us/src/engine/surface_collision.o
 build/us/src/engine/surface_load.o(.rodata*)
 .rodata        0x000000008038bbb0       0xe0 build/us/src/engine/surface_load.o
                0x000000008038bc90                _engineSegmentEnd = (ADDR (.engine) + SIZEOF (.engine))
                0x00000000007dfb50                _engineSegmentRomEnd = (__romPos + SIZEOF (.engine))
                [0x00000000007cc6c0]                __romPos = (__romPos + SIZEOF (.engine))
                0x000000008038bc90                _engineSegmentNoloadStart = ADDR (.engine.noload)

.engine.noload  0x000000008038bc90     0x3260 load address 0x0000000000108a10
 build/us/src/engine/math_util.o(.bss*)
 .bss           0x000000008038bc90       0x10 build/us/src/engine/math_util.o
                0x000000008038bc90                D_8038BC90
                0x000000008038bc94                D_8038BC94
                0x000000008038bc98                D_8038BC98
 build/us/src/engine/geo_layout.o(.bss*)
 .bss           0x000000008038bca0      0x100 build/us/src/engine/geo_layout.o
                0x000000008038bca0                gGraphNodePool
                0x000000008038bca4                gCurRootGraphNode
                0x000000008038bca8                D_8038BCA8
                0x000000008038bcac                D_8038BCAC
                0x000000008038bcb0                D_8038BCB0
                0x000000008038bcb8                gGeoLayoutStack
                0x000000008038bcf8                gCurGraphNodeList
                0x000000008038bd78                gCurGraphNodeIndex
                0x000000008038bd7a                gGeoLayoutStackIndex
                0x000000008038bd7c                D_8038BD7C
                0x000000008038bd7e                D_8038BD7E
                0x000000008038bd80                gGeoLayoutCommand
                0x000000008038bd88                D_8038BD88
 build/us/src/engine/level_script.o(.bss*)
 .bss           0x000000008038bda0       0x90 build/us/src/engine/level_script.o
                0x000000008038bda0                sStack
                0x000000008038be20                sScriptStatus
                0x000000008038be24                sRegister
                0x000000008038be28                sCurrentCmd
 build/us/src/engine/surface_collision.o(.bss*)
 .bss           0x000000008038be30       0x60 build/us/src/engine/surface_collision.o
                0x000000008038be30                D_8038BE30
                0x000000008038be50                unused8038BE50
 build/us/src/engine/surface_load.o(.bss*)
 .bss           0x000000008038be90     0x3050 build/us/src/engine/surface_load.o
                0x000000008038be90                D_8038BE90
                0x000000008038be98                gStaticSurfacePartition
                0x000000008038d698                gDynamicSurfacePartition
                0x000000008038ee98                sSurfaceNodePool
                0x000000008038ee9c                sSurfacePool
                0x000000008038eea0                sSurfacePoolSize
                0x000000008038eea8                unused8038EEA8
 build/us/src/engine/behavior_script.o(.bss*)
 .bss           0x000000008038eee0       0x10 build/us/src/engine/behavior_script.o
                0x000000008038eee0                gRandomSeed16
                0x000000008038eef0                _engineSegmentNoloadEnd = (ADDR (.engine.noload) + SIZEOF (.engine.noload))
                0x0000000000000001                ASSERT ((. <= 0x8038f800), Error: engine segment extended into framebuffers.)
                0x000000008038f800                . = 0x8038f800
                0x000000008038f800                _framebuffersSegmentNoloadStart = ADDR (.framebuffers.noload)

.framebuffers.noload
                0x000000008038f800    0x70800 load address 0x000000000010c580
 build/us/data/framebuffers.o(.bss*)
 .bss           0x000000008038f800    0x70800 build/us/data/framebuffers.o
                0x000000008038f800                gFrameBuffer0
                0x00000000803b5000                gFrameBuffer1
                0x00000000803da800                gFrameBuffer2
                0x0000000080400000                _framebuffersSegmentNoloadEnd = (ADDR (.framebuffers.noload) + SIZEOF (.framebuffers.noload))
                0x0000000080400000                __expansionRamStart = 0x80400000
                0x0000000000000001                ASSERT ((. <= __expansionRamStart), Error: RDRAM expanded into Expansion RAM, despite Expansion RAM not being defined.)
                0x0000000010000000                _entrySegmentStart = ADDR (.entry)
                0x00000000007cc6c0                _entrySegmentRomStart = __romPos

.entry          0x0000000010000000       0x30 load address 0x0000000000108a10
 build/us/levels/entry.o(.level)
 .level         0x0000000010000000       0x30 build/us/levels/entry.o
                0x0000000010000000                level_script_entry
                0x0000000010000030                _entrySegmentEnd = (ADDR (.entry) + SIZEOF (.entry))
                0x00000000007cc6f0                _entrySegmentRomEnd = (__romPos + SIZEOF (.entry))
                [0x00000000007cc6c0]                __romPos = (__romPos + SIZEOF (.entry))
                0x0000000002000000                _segment2_mio0SegmentStart = ADDR (.segment2_mio0)
                0x00000000007cc6c0                _segment2_mio0SegmentRomStart = __romPos

.segment2_mio0  0x0000000002000000     0xbd10 load address 0x0000000000108a40
 build/us/mio0/segment2.mio0.o(.data)
 .data          0x0000000002000000     0xbd10 build/us/mio0/segment2.mio0.o
                0x000000000200bd10                . = ALIGN (0x10)
                0x000000000200bd10                _segment2_mio0SegmentEnd = (ADDR (.segment2_mio0) + SIZEOF (.segment2_mio0))
                0x00000000007d83d0                _segment2_mio0SegmentRomEnd = (__romPos + SIZEOF (.segment2_mio0))
                [0x00000000007cc6c0]                __romPos = (__romPos + SIZEOF (.segment2_mio0))
                0x0000000004000000                _group0_mio0SegmentStart = ADDR (.group0_mio0)
                0x00000000007cc6c0                _group0_mio0SegmentRomStart = __romPos

.group0_mio0    0x0000000004000000    0x13260 load address 0x0000000000114750
 build/us/mio0/group0.mio0.o(.data)
 .data          0x0000000004000000    0x13260 build/us/mio0/group0.mio0.o
                0x0000000004013260                . = ALIGN (0x10)
                0x0000000004013260                _group0_mio0SegmentEnd = (ADDR (.group0_mio0) + SIZEOF (.group0_mio0))
                0x00000000007df920                _group0_mio0SegmentRomEnd = (__romPos + SIZEOF (.group0_mio0))
                [0x00000000007cc6c0]                __romPos = (__romPos + SIZEOF (.group0_mio0))
                0x0000000017000000                _group0_geoSegmentStart = ADDR (.group0_geo)
                0x00000000007cc6c0                _group0_geoSegmentRomStart = __romPos

.group0_geo     0x0000000017000000     0x2e30 load address 0x00000000001279b0
 build/us/actors/group0_geo.o(.geo)
 .geo           0x0000000017000000     0x2e30 build/us/actors/group0_geo.o
                0x0000000017000000                bubble_geo
                0x000000001700001c                purple_marble_geo
                0x0000000017000038                smoke_geo
                0x0000000017000084                burn_smoke_geo
                0x000000001700009c                spot_on_ground_geo
                0x00000000170000e0                mario_TODO_geo_0000E0
                0x0000000017000124                water_waves2_geo
                0x0000000017000168                water_waves_geo
                0x00000000170001bc                sparkles_geo
                0x0000000017000230                water_splash_geo
                0x0000000017000284                sparkles_animation_geo
                0x00000000170002e0                mario_geo_face_and_wings
                0x000000001700041c                mario_geo_left_hand
                0x0000000017000494                mario_geo_right_hand
                0x000000001700053c                mario_geo_body
                0x00000000170006f8                mario_geo_medium_poly_left_hand
                0x0000000017000770                mario_geo_medium_poly_right_hand
                0x0000000017000818                mario_geo_medium_poly_body
                0x00000000170009d4                mario_geo_low_poly_face_and_wings
                0x0000000017000b10                mario_geo_low_poly_left_hand
                0x0000000017000b88                mario_geo_low_poly_right_hand
                0x0000000017000c30                mario_geo_low_poly_body
                0x0000000017000dec                mario_vanish_geo_face_and_wings
                0x0000000017000f28                mario_vanish_geo_left_hand
                0x0000000017000fa0                mario_vanish_geo_right_hand
                0x0000000017001048                mario_vanish_geo_body
                0x0000000017001204                mario_vanish_geo_medium_poly_left_hand
                0x000000001700127c                mario_vanish_geo_medium_poly_right_hand
                0x0000000017001324                mario_vanish_geo_medium_poly_body
                0x00000000170014e0                mario_vanish_geo_low_poly_face_and_wings
                0x000000001700161c                mario_vanish_geo_low_poly_left_hand
                0x0000000017001694                mario_vanish_geo_low_poly_right_hand
                0x000000001700173c                mario_vanish_geo_low_poly_body
                0x00000000170018f8                mario_metal_geo_face_and_wings
                0x00000000170019a4                mario_metal_geo_left_hand
                0x0000000017001a1c                mario_metal_geo_right_hand
                0x0000000017001ac4                mario_metal_geo_body
                0x0000000017001c80                mario_metal_geo_medium_poly_left_hand
                0x0000000017001cf8                mario_metal_geo_medium_poly_right_hand
                0x0000000017001da0                mario_metal_geo_medium_poly_body
                0x0000000017001f5c                mario_metal_geo_low_poly_face_and_wings
                0x0000000017002008                mario_metal_geo_low_poly_left_hand
                0x0000000017002080                mario_metal_geo_low_poly_right_hand
                0x0000000017002128                mario_metal_geo_low_poly_body
                0x00000000170022e4                mario_metal_vanish_geo_face_and_wings
                0x0000000017002390                mario_metal_vanish_geo_left_hand
                0x0000000017002408                mario_metal_vanish_geo_right_hand
                0x00000000170024b0                mario_metal_vanish_geo_body
                0x000000001700266c                mario_metal_vanish_geo_medium_poly_left_hand
                0x00000000170026e4                mario_metal_vanish_geo_medium_poly_right_hand
                0x000000001700278c                mario_metal_vanish_geo_medium_poly_body
                0x0000000017002958                mario_metal_vanish_geo_low_poly_face_and_wings
                0x0000000017002a04                mario_metal_vanish_geo_low_poly_left_hand
                0x0000000017002a7c                mario_metal_vanish_geo_low_poly_right_hand
                0x0000000017002b24                mario_metal_vanish_geo_low_poly_body
                0x0000000017002ce0                mario_geo_load_body
                0x0000000017002d14                mario_geo_load_medium_poly_body
                0x0000000017002d48                mario_geo_load_low_poly_body
                0x0000000017002d7c                mario_geo_render_body
                0x0000000017002dd4                mario_geo
                0x0000000017002e30                . = ALIGN (0x10)
                0x0000000017002e30                _group0_geoSegmentEnd = (ADDR (.group0_geo) + SIZEOF (.group0_geo))
                0x00000000007cf4f0                _group0_geoSegmentRomEnd = (__romPos + SIZEOF (.group0_geo))
                [0x00000000007cc6c0]                __romPos = (__romPos + SIZEOF (.group0_geo))
                0x0000000005000000                _group1_mio0SegmentStart = ADDR (.group1_mio0)
                0x00000000007cc6c0                _group1_mio0SegmentRomStart = __romPos

.group1_mio0    0x0000000005000000     0x8070 load address 0x000000000012a7e0
 build/us/mio0/group1.mio0.o(.data)
 .data          0x0000000005000000     0x8070 build/us/mio0/group1.mio0.o
                0x0000000005008070                . = ALIGN (0x10)
                0x0000000005008070                _group1_mio0SegmentEnd = (ADDR (.group1_mio0) + SIZEOF (.group1_mio0))
                0x00000000007d4730                _group1_mio0SegmentRomEnd = (__romPos + SIZEOF (.group1_mio0))
                [0x00000000007cc6c0]                __romPos = (__romPos + SIZEOF (.group1_mio0))
                0x000000000c000000                _group1_geoSegmentStart = ADDR (.group1_geo)
                0x00000000007cc6c0                _group1_geoSegmentRomStart = __romPos

.group1_geo     0x000000000c000000      0x410 load address 0x0000000000132850
 build/us/actors/group1_geo.o(.geo)
 .geo           0x000000000c000000      0x410 build/us/actors/group1_geo.o
                0x000000000c000000                yellow_sphere_geo
                0x000000000c000018                hoot_geo
                0x000000000c0001e4                yoshi_egg_geo
                0x000000000c000248                thwomp_geo
                0x000000000c000264                bullet_bill_geo
                0x000000000c00028c                heave_ho_geo
                0x000000000c000410                . = ALIGN (0x10)
                0x000000000c000410                _group1_geoSegmentEnd = (ADDR (.group1_geo) + SIZEOF (.group1_geo))
                0x00000000007ccad0                _group1_geoSegmentRomEnd = (__romPos + SIZEOF (.group1_geo))
                [0x00000000007cc6c0]                __romPos = (__romPos + SIZEOF (.group1_geo))
                0x0000000005000000                _group2_mio0SegmentStart = ADDR (.group2_mio0)
                0x00000000007cc6c0                _group2_mio0SegmentRomStart = __romPos

.group2_mio0    0x0000000005000000     0x1e10 load address 0x0000000000132c60
 build/us/mio0/group2.mio0.o(.data)
 .data          0x0000000005000000     0x1e10 build/us/mio0/group2.mio0.o
                0x0000000005001e10                . = ALIGN (0x10)
                0x0000000005001e10                _group2_mio0SegmentEnd = (ADDR (.group2_mio0) + SIZEOF (.group2_mio0))
                0x00000000007ce4d0                _group2_mio0SegmentRomEnd = (__romPos + SIZEOF (.group2_mio0))
                [0x00000000007cc6c0]                __romPos = (__romPos + SIZEOF (.group2_mio0))
                0x000000000c000000                _group2_geoSegmentStart = ADDR (.group2_geo)
                0x00000000007cc6c0                _group2_geoSegmentRomStart = __romPos

.group2_geo     0x000000000c000000      0x2b0 load address 0x0000000000134a70
 build/us/actors/group2_geo.o(.geo)
 .geo           0x000000000c000000      0x2b0 build/us/actors/group2_geo.o
                0x000000000c000000                bully_geo
                0x000000000c000120                bully_boss_geo
                0x000000000c000240                blargg_geo
                0x000000000c0002b0                . = ALIGN (0x10)
                0x000000000c0002b0                _group2_geoSegmentEnd = (ADDR (.group2_geo) + SIZEOF (.group2_geo))
                0x00000000007cc970                _group2_geoSegmentRomEnd = (__romPos + SIZEOF (.group2_geo))
                [0x00000000007cc6c0]                __romPos = (__romPos + SIZEOF (.group2_geo))
                0x0000000005000000                _group3_mio0SegmentStart = ADDR (.group3_mio0)
                0x00000000007cc6c0                _group3_mio0SegmentRomStart = __romPos

.group3_mio0    0x0000000005000000     0x68b0 load address 0x0000000000134d20
 build/us/mio0/group3.mio0.o(.data)
 .data          0x0000000005000000     0x68b0 build/us/mio0/group3.mio0.o
                0x00000000050068b0                . = ALIGN (0x10)
                0x00000000050068b0                _group3_mio0SegmentEnd = (ADDR (.group3_mio0) + SIZEOF (.group3_mio0))
                0x00000000007d2f70                _group3_mio0SegmentRomEnd = (__romPos + SIZEOF (.group3_mio0))
                [0x00000000007cc6c0]                __romPos = (__romPos + SIZEOF (.group3_mio0))
                0x000000000c000000                _group3_geoSegmentStart = ADDR (.group3_geo)
                0x00000000007cc6c0                _group3_geoSegmentRomStart = __romPos

.group3_geo     0x000000000c000000      0x340 load address 0x000000000013b5d0
 build/us/actors/group3_geo.o(.geo)
 .geo           0x000000000c000000      0x340 build/us/actors/group3_geo.o
                0x000000000c000000                king_bobomb_geo
                0x000000000c000308                water_bomb_geo
                0x000000000c000328                water_bomb_shadow_geo
                0x000000000c000340                . = ALIGN (0x10)
                0x000000000c000340                _group3_geoSegmentEnd = (ADDR (.group3_geo) + SIZEOF (.group3_geo))
                0x00000000007cca00                _group3_geoSegmentRomEnd = (__romPos + SIZEOF (.group3_geo))
                [0x00000000007cc6c0]                __romPos = (__romPos + SIZEOF (.group3_geo))
                0x0000000005000000                _group4_mio0SegmentStart = ADDR (.group4_mio0)
                0x00000000007cc6c0                _group4_mio0SegmentRomStart = __romPos

.group4_mio0    0x0000000005000000     0xa300 load address 0x000000000013b910
 build/us/mio0/group4.mio0.o(.data)
 .data          0x0000000005000000     0xa300 build/us/mio0/group4.mio0.o
                0x000000000500a300                . = ALIGN (0x10)
                0x000000000500a300                _group4_mio0SegmentEnd = (ADDR (.group4_mio0) + SIZEOF (.group4_mio0))
                0x00000000007d69c0                _group4_mio0SegmentRomEnd = (__romPos + SIZEOF (.group4_mio0))
                [0x00000000007cc6c0]                __romPos = (__romPos + SIZEOF (.group4_mio0))
                0x000000000c000000                _group4_geoSegmentStart = ADDR (.group4_geo)
                0x00000000007cc6c0                _group4_geoSegmentRomStart = __romPos

.group4_geo     0x000000000c000000      0x280 load address 0x0000000000145c10
 build/us/actors/group4_geo.o(.geo)
 .geo           0x000000000c000000      0x280 build/us/actors/group4_geo.o
                0x000000000c000000                clam_shell_geo
                0x000000000c000068                sushi_geo
                0x000000000c00010c                unagi_geo
                0x000000000c000280                . = ALIGN (0x10)
                0x000000000c000280                _group4_geoSegmentEnd = (ADDR (.group4_geo) + SIZEOF (.group4_geo))
                0x00000000007cc940                _group4_geoSegmentRomEnd = (__romPos + SIZEOF (.group4_geo))
                [0x00000000007cc6c0]                __romPos = (__romPos + SIZEOF (.group4_geo))
                0x0000000005000000                _group5_mio0SegmentStart = ADDR (.group5_mio0)
                0x00000000007cc6c0                _group5_mio0SegmentRomStart = __romPos

.group5_mio0    0x0000000005000000     0xbce0 load address 0x0000000000145e90
 build/us/mio0/group5.mio0.o(.data)
 .data          0x0000000005000000     0xbce0 build/us/mio0/group5.mio0.o
                0x000000000500bce0                . = ALIGN (0x10)
                0x000000000500bce0                _group5_mio0SegmentEnd = (ADDR (.group5_mio0) + SIZEOF (.group5_mio0))
                0x00000000007d83a0                _group5_mio0SegmentRomEnd = (__romPos + SIZEOF (.group5_mio0))
                [0x00000000007cc6c0]                __romPos = (__romPos + SIZEOF (.group5_mio0))
                0x000000000c000000                _group5_geoSegmentStart = ADDR (.group5_geo)
                0x00000000007cc6c0                _group5_geoSegmentRomStart = __romPos

.group5_geo     0x000000000c000000      0x660 load address 0x0000000000151b70
 build/us/actors/group5_geo.o(.geo)
 .geo           0x000000000c000000      0x660 build/us/actors/group5_geo.o
                0x000000000c000000                klepto_geo
                0x000000000c0002ac                eyerok_geo_0002AC
                0x000000000c0005a8                eyerok_geo
                0x000000000c0005e4                eyerok2_geo
                0x000000000c000610                pokey_head_geo
                0x000000000c000644                pokey_body_part_geo
                0x000000000c000660                . = ALIGN (0x10)
                0x000000000c000660                _group5_geoSegmentEnd = (ADDR (.group5_geo) + SIZEOF (.group5_geo))
                0x00000000007ccd20                _group5_geoSegmentRomEnd = (__romPos + SIZEOF (.group5_geo))
                [0x00000000007cc6c0]                __romPos = (__romPos + SIZEOF (.group5_geo))
                0x0000000005000000                _group6_mio0SegmentStart = ADDR (.group6_mio0)
                0x00000000007cc6c0                _group6_mio0SegmentRomStart = __romPos

.group6_mio0    0x0000000005000000     0xe110 load address 0x00000000001521d0
 build/us/mio0/group6.mio0.o(.data)
 .data          0x0000000005000000     0xe110 build/us/mio0/group6.mio0.o
                0x000000000500e110                . = ALIGN (0x10)
                0x000000000500e110                _group6_mio0SegmentEnd = (ADDR (.group6_mio0) + SIZEOF (.group6_mio0))
                0x00000000007da7d0                _group6_mio0SegmentRomEnd = (__romPos + SIZEOF (.group6_mio0))
                [0x00000000007cc6c0]                __romPos = (__romPos + SIZEOF (.group6_mio0))
                0x000000000c000000                _group6_geoSegmentStart = ADDR (.group6_geo)
                0x00000000007cc6c0                _group6_geoSegmentRomStart = __romPos

.group6_geo     0x000000000c000000      0x390 load address 0x00000000001602e0
 build/us/actors/group6_geo.o(.geo)
 .geo           0x000000000c000000      0x384 build/us/actors/group6_geo.o
                0x000000000c000000                monty_mole_geo
                0x000000000c000110                ukiki_geo
                0x000000000c00036c                fwoosh_geo
                0x000000000c000390                . = ALIGN (0x10)
 *fill*         0x000000000c000384        0xc 
                0x000000000c000390                _group6_geoSegmentEnd = (ADDR (.group6_geo) + SIZEOF (.group6_geo))
                0x00000000007cca50                _group6_geoSegmentRomEnd = (__romPos + SIZEOF (.group6_geo))
                [0x00000000007cc6c0]                __romPos = (__romPos + SIZEOF (.group6_geo))
                0x0000000005000000                _group7_mio0SegmentStart = ADDR (.group7_mio0)
                0x00000000007cc6c0                _group7_mio0SegmentRomStart = __romPos

.group7_mio0    0x0000000005000000     0x5070 load address 0x0000000000160670
 build/us/mio0/group7.mio0.o(.data)
 .data          0x0000000005000000     0x5070 build/us/mio0/group7.mio0.o
                0x0000000005005070                . = ALIGN (0x10)
                0x0000000005005070                _group7_mio0SegmentEnd = (ADDR (.group7_mio0) + SIZEOF (.group7_mio0))
                0x00000000007d1730                _group7_mio0SegmentRomEnd = (__romPos + SIZEOF (.group7_mio0))
                [0x00000000007cc6c0]                __romPos = (__romPos + SIZEOF (.group7_mio0))
                0x000000000c000000                _group7_geoSegmentStart = ADDR (.group7_geo)
                0x00000000007cc6c0                _group7_geoSegmentRomStart = __romPos

.group7_geo     0x000000000c000000      0x370 load address 0x00000000001656e0
 build/us/actors/group7_geo.o(.geo)
 .geo           0x000000000c000000      0x364 build/us/actors/group7_geo.o
                0x000000000c000000                spindrift_geo
                0x000000000c000104                penguin_geo
                0x000000000c00021c                mr_blizzard_hidden_geo
                0x000000000c000348                mr_blizzard_geo
                0x000000000c000370                . = ALIGN (0x10)
 *fill*         0x000000000c000364        0xc 
                0x000000000c000370                _group7_geoSegmentEnd = (ADDR (.group7_geo) + SIZEOF (.group7_geo))
                0x00000000007cca30                _group7_geoSegmentRomEnd = (__romPos + SIZEOF (.group7_geo))
                [0x00000000007cc6c0]                __romPos = (__romPos + SIZEOF (.group7_geo))
                0x0000000005000000                _group8_mio0SegmentStart = ADDR (.group8_mio0)
                0x00000000007cc6c0                _group8_mio0SegmentRomStart = __romPos

.group8_mio0    0x0000000005000000     0x1180 load address 0x0000000000165a50
 build/us/mio0/group8.mio0.o(.data)
 .data          0x0000000005000000     0x1180 build/us/mio0/group8.mio0.o
                0x0000000005001180                . = ALIGN (0x10)
                0x0000000005001180                _group8_mio0SegmentEnd = (ADDR (.group8_mio0) + SIZEOF (.group8_mio0))
                0x00000000007cd840                _group8_mio0SegmentRomEnd = (__romPos + SIZEOF (.group8_mio0))
                [0x00000000007cc6c0]                __romPos = (__romPos + SIZEOF (.group8_mio0))
                0x000000000c000000                _group8_geoSegmentStart = ADDR (.group8_geo)
                0x00000000007cc6c0                _group8_geoSegmentRomStart = __romPos

.group8_geo     0x000000000c000000       0x90 load address 0x0000000000166bd0
 build/us/actors/group8_geo.o(.geo)
 .geo           0x000000000c000000       0x90 build/us/actors/group8_geo.o
                0x000000000c000000                springboard_checkerboard1_geo
                0x000000000c000018                springboard_spring_geo
                0x000000000c000030                springboard_checkerboard2_geo
                0x000000000c000048                cap_switch_geo
                0x000000000c000090                . = ALIGN (0x10)
                0x000000000c000090                _group8_geoSegmentEnd = (ADDR (.group8_geo) + SIZEOF (.group8_geo))
                0x00000000007cc750                _group8_geoSegmentRomEnd = (__romPos + SIZEOF (.group8_geo))
                [0x00000000007cc6c0]                __romPos = (__romPos + SIZEOF (.group8_geo))
                0x0000000005000000                _group9_mio0SegmentStart = ADDR (.group9_mio0)
                0x00000000007cc6c0                _group9_mio0SegmentRomStart = __romPos

.group9_mio0    0x0000000005000000     0x6960 load address 0x0000000000166c60
 build/us/mio0/group9.mio0.o(.data)
 .data          0x0000000005000000     0x6960 build/us/mio0/group9.mio0.o
                0x0000000005006960                . = ALIGN (0x10)
                0x0000000005006960                _group9_mio0SegmentEnd = (ADDR (.group9_mio0) + SIZEOF (.group9_mio0))
                0x00000000007d3020                _group9_mio0SegmentRomEnd = (__romPos + SIZEOF (.group9_mio0))
                [0x00000000007cc6c0]                __romPos = (__romPos + SIZEOF (.group9_mio0))
                0x000000000c000000                _group9_geoSegmentStart = ADDR (.group9_geo)
                0x00000000007cc6c0                _group9_geoSegmentRomStart = __romPos

.group9_geo     0x000000000c000000      0x2b0 load address 0x000000000016d5c0
 build/us/actors/group9_geo.o(.geo)
 .geo           0x000000000c000000      0x2ac build/us/actors/group9_geo.o
                0x000000000c000000                bookend_part_geo
                0x000000000c0000c0                bookend_geo
                0x000000000c0000d8                haunted_chair_geo
                0x000000000c000188                small_key_geo
                0x000000000c0001b4                mad_piano_geo
                0x000000000c000224                boo_geo
                0x000000000c000274                haunted_cage_geo
                0x000000000c0002b0                . = ALIGN (0x10)
 *fill*         0x000000000c0002ac        0x4 
                0x000000000c0002b0                _group9_geoSegmentEnd = (ADDR (.group9_geo) + SIZEOF (.group9_geo))
                0x00000000007cc970                _group9_geoSegmentRomEnd = (__romPos + SIZEOF (.group9_geo))
                [0x00000000007cc6c0]                __romPos = (__romPos + SIZEOF (.group9_geo))
                0x0000000005000000                _group10_mio0SegmentStart = ADDR (.group10_mio0)
                0x00000000007cc6c0                _group10_mio0SegmentRomStart = __romPos

.group10_mio0   0x0000000005000000    0x12cd0 load address 0x000000000016d870
 build/us/mio0/group10.mio0.o(.data)
 .data          0x0000000005000000    0x12cd0 build/us/mio0/group10.mio0.o
                0x0000000005012cd0                . = ALIGN (0x10)
                0x0000000005012cd0                _group10_mio0SegmentEnd = (ADDR (.group10_mio0) + SIZEOF (.group10_mio0))
                0x00000000007df390                _group10_mio0SegmentRomEnd = (__romPos + SIZEOF (.group10_mio0))
                [0x00000000007cc6c0]                __romPos = (__romPos + SIZEOF (.group10_mio0))
                0x000000000c000000                _group10_geoSegmentStart = ADDR (.group10_geo)
                0x00000000007cc6c0                _group10_geoSegmentRomStart = __romPos

.group10_geo    0x000000000c000000      0x670 load address 0x0000000000180540
 build/us/actors/group10_geo.o(.geo)
 .geo           0x000000000c000000      0x668 build/us/actors/group10_geo.o
                0x000000000c000000                birds_geo
                0x000000000c000098                peach_geo_000098
                0x000000000c000254                peach_geo_000254
                0x000000000c000410                peach_geo
                0x000000000c000468                yoshi_geo
                0x000000000c000670                . = ALIGN (0x10)
 *fill*         0x000000000c000668        0x8 
                0x000000000c000670                _group10_geoSegmentEnd = (ADDR (.group10_geo) + SIZEOF (.group10_geo))
                0x00000000007ccd30                _group10_geoSegmentRomEnd = (__romPos + SIZEOF (.group10_geo))
                [0x00000000007cc6c0]                __romPos = (__romPos + SIZEOF (.group10_geo))
                0x0000000005000000                _group11_mio0SegmentStart = ADDR (.group11_mio0)
                0x00000000007cc6c0                _group11_mio0SegmentRomStart = __romPos

.group11_mio0   0x0000000005000000     0x73f0 load address 0x0000000000180bb0
 build/us/mio0/group11.mio0.o(.data)
 .data          0x0000000005000000     0x73f0 build/us/mio0/group11.mio0.o
                0x00000000050073f0                . = ALIGN (0x10)
                0x00000000050073f0                _group11_mio0SegmentEnd = (ADDR (.group11_mio0) + SIZEOF (.group11_mio0))
                0x00000000007d3ab0                _group11_mio0SegmentRomEnd = (__romPos + SIZEOF (.group11_mio0))
                [0x00000000007cc6c0]                __romPos = (__romPos + SIZEOF (.group11_mio0))
                0x000000000c000000                _group11_geoSegmentStart = ADDR (.group11_geo)
                0x00000000007cc6c0                _group11_geoSegmentRomStart = __romPos

.group11_geo    0x000000000c000000      0x4a0 load address 0x0000000000187fa0
 build/us/actors/group11_geo.o(.geo)
 .geo           0x000000000c000000      0x4a0 build/us/actors/group11_geo.o
                0x000000000c000000                bubba_geo
                0x000000000c000030                wiggler_geo
                0x000000000c0001bc                enemy_lakitu_geo
                0x000000000c000290                spiny_ball_geo
                0x000000000c000328                spiny_geo
                0x000000000c0004a0                . = ALIGN (0x10)
                0x000000000c0004a0                _group11_geoSegmentEnd = (ADDR (.group11_geo) + SIZEOF (.group11_geo))
                0x00000000007ccb60                _group11_geoSegmentRomEnd = (__romPos + SIZEOF (.group11_geo))
                [0x00000000007cc6c0]                __romPos = (__romPos + SIZEOF (.group11_geo))
                0x0000000006000000                _group12_mio0SegmentStart = ADDR (.group12_mio0)
                0x00000000007cc6c0                _group12_mio0SegmentRomStart = __romPos

.group12_mio0   0x0000000006000000    0x30c30 load address 0x0000000000188440
 build/us/mio0/group12.mio0.o(.data)
 .data          0x0000000006000000    0x30c30 build/us/mio0/group12.mio0.o
                0x0000000006030c30                . = ALIGN (0x10)
                0x0000000006030c30                _group12_mio0SegmentEnd = (ADDR (.group12_mio0) + SIZEOF (.group12_mio0))
                0x00000000007fd2f0                _group12_mio0SegmentRomEnd = (__romPos + SIZEOF (.group12_mio0))
                [0x00000000007cc6c0]                __romPos = (__romPos + SIZEOF (.group12_mio0))
                0x000000000d000000                _group12_geoSegmentStart = ADDR (.group12_geo)
                0x00000000007cc6c0                _group12_geoSegmentRomStart = __romPos

.group12_geo    0x000000000d000000      0xc50 load address 0x00000000001b9070
 build/us/actors/group12_geo.o(.geo)
 .geo           0x000000000d000000      0xc4c build/us/actors/group12_geo.o
                0x000000000d000000                bowser_flames_geo
                0x000000000d000090                invisible_bowser_accessory_geo
                0x000000000d0000b0                bowser_1_yellow_sphere_geo
                0x000000000d0000d8                bowser_geo_0000D8
                0x000000000d000424                bowser_geo_000424
                0x000000000d000770                bowser_geo_000770
                0x000000000d000ab8                bowser_shadow_geo
                0x000000000d000ac4                bowser_geo
                0x000000000d000b40                bowser2_geo
                0x000000000d000bbc                bowser_bomb_geo
                0x000000000d000bfc                bowser_impact_smoke_geo
                0x000000000d000c50                . = ALIGN (0x10)
 *fill*         0x000000000d000c4c        0x4 
                0x000000000d000c50                _group12_geoSegmentEnd = (ADDR (.group12_geo) + SIZEOF (.group12_geo))
                0x00000000007cd310                _group12_geoSegmentRomEnd = (__romPos + SIZEOF (.group12_geo))
                [0x00000000007cc6c0]                __romPos = (__romPos + SIZEOF (.group12_geo))
                0x0000000006000000                _group13_mio0SegmentStart = ADDR (.group13_mio0)
                0x00000000007cc6c0                _group13_mio0SegmentRomStart = __romPos

.group13_mio0   0x0000000006000000     0xa0f0 load address 0x00000000001b9cc0
 build/us/mio0/group13.mio0.o(.data)
 .data          0x0000000006000000     0xa0f0 build/us/mio0/group13.mio0.o
                0x000000000600a0f0                . = ALIGN (0x10)
                0x000000000600a0f0                _group13_mio0SegmentEnd = (ADDR (.group13_mio0) + SIZEOF (.group13_mio0))
                0x00000000007d67b0                _group13_mio0SegmentRomEnd = (__romPos + SIZEOF (.group13_mio0))
                [0x00000000007cc6c0]                __romPos = (__romPos + SIZEOF (.group13_mio0))
                0x000000000d000000                _group13_geoSegmentStart = ADDR (.group13_geo)
                0x00000000007cc6c0                _group13_geoSegmentRomStart = __romPos

.group13_geo    0x000000000d000000      0x480 load address 0x00000000001c3db0
 build/us/actors/group13_geo.o(.geo)
 .geo           0x000000000d000000      0x480 build/us/actors/group13_geo.o
                0x000000000d000000                skeeter_geo
                0x000000000d000284                seaweed_geo
                0x000000000d0002f4                water_mine_geo
                0x000000000d000324                cyan_fish_geo
                0x000000000d00038c                bub_geo
                0x000000000d000414                water_ring_geo
                0x000000000d000450                treasure_chest_base_geo
                0x000000000d000468                treasure_chest_lid_geo
                0x000000000d000480                . = ALIGN (0x10)
                0x000000000d000480                _group13_geoSegmentEnd = (ADDR (.group13_geo) + SIZEOF (.group13_geo))
                0x00000000007ccb40                _group13_geoSegmentRomEnd = (__romPos + SIZEOF (.group13_geo))
                [0x00000000007cc6c0]                __romPos = (__romPos + SIZEOF (.group13_geo))
                0x0000000006000000                _group14_mio0SegmentStart = ADDR (.group14_mio0)
                0x00000000007cc6c0                _group14_mio0SegmentRomStart = __romPos

.group14_mio0   0x0000000006000000    0x13a60 load address 0x00000000001c4230
 build/us/mio0/group14.mio0.o(.data)
 .data          0x0000000006000000    0x13a60 build/us/mio0/group14.mio0.o
                0x0000000006013a60                . = ALIGN (0x10)
                0x0000000006013a60                _group14_mio0SegmentEnd = (ADDR (.group14_mio0) + SIZEOF (.group14_mio0))
                0x00000000007e0120                _group14_mio0SegmentRomEnd = (__romPos + SIZEOF (.group14_mio0))
                [0x00000000007cc6c0]                __romPos = (__romPos + SIZEOF (.group14_mio0))
                0x000000000d000000                _group14_geoSegmentStart = ADDR (.group14_geo)
                0x00000000007cc6c0                _group14_geoSegmentRomStart = __romPos

.group14_geo    0x000000000d000000      0x680 load address 0x00000000001d7c90
 build/us/actors/group14_geo.o(.geo)
 .geo           0x000000000d000000      0x678 build/us/actors/group14_geo.o
                0x000000000d000000                koopa_flag_geo
                0x000000000d0000b8                wooden_post_geo
                0x000000000d0000d0                koopa_without_shell_geo
                0x000000000d000214                koopa_with_shell_geo
                0x000000000d000358                piranha_plant_geo
                0x000000000d000480                whomp_geo
                0x000000000d0005d0                metallic_ball_geo
                0x000000000d0005ec                chain_chomp
                0x000000000d000680                . = ALIGN (0x10)
 *fill*         0x000000000d000678        0x8 
                0x000000000d000680                _group14_geoSegmentEnd = (ADDR (.group14_geo) + SIZEOF (.group14_geo))
                0x00000000007ccd40                _group14_geoSegmentRomEnd = (__romPos + SIZEOF (.group14_geo))
                [0x00000000007cc6c0]                __romPos = (__romPos + SIZEOF (.group14_geo))
                0x0000000006000000                _group15_mio0SegmentStart = ADDR (.group15_mio0)
                0x00000000007cc6c0                _group15_mio0SegmentRomStart = __romPos

.group15_mio0   0x0000000006000000     0xc8e0 load address 0x00000000001d8310
 build/us/mio0/group15.mio0.o(.data)
 .data          0x0000000006000000     0xc8e0 build/us/mio0/group15.mio0.o
                0x000000000600c8e0                . = ALIGN (0x10)
                0x000000000600c8e0                _group15_mio0SegmentEnd = (ADDR (.group15_mio0) + SIZEOF (.group15_mio0))
                0x00000000007d8fa0                _group15_mio0SegmentRomEnd = (__romPos + SIZEOF (.group15_mio0))
                [0x00000000007cc6c0]                __romPos = (__romPos + SIZEOF (.group15_mio0))
                0x000000000d000000                _group15_geoSegmentStart = ADDR (.group15_geo)
                0x00000000007cc6c0                _group15_geoSegmentRomStart = __romPos

.group15_geo    0x000000000d000000      0x600 load address 0x00000000001e4bf0
 build/us/actors/group15_geo.o(.geo)
 .geo           0x000000000d000000      0x600 build/us/actors/group15_geo.o
                0x000000000d000000                lakitu_geo
                0x000000000d000114                toad_geo_000114
                0x000000000d00027c                toad_geo_00027C
                0x000000000d0003e4                toad_geo
                0x000000000d000448                mips_geo
                0x000000000d0005b0                boo_castle_geo
                0x000000000d000600                . = ALIGN (0x10)
                0x000000000d000600                _group15_geoSegmentEnd = (ADDR (.group15_geo) + SIZEOF (.group15_geo))
                0x00000000007cccc0                _group15_geoSegmentRomEnd = (__romPos + SIZEOF (.group15_geo))
                [0x00000000007cc6c0]                __romPos = (__romPos + SIZEOF (.group15_geo))
                0x0000000006000000                _group16_mio0SegmentStart = ADDR (.group16_mio0)
                0x00000000007cc6c0                _group16_mio0SegmentRomStart = __romPos

.group16_mio0   0x0000000006000000     0x2ba0 load address 0x00000000001e51f0
 build/us/mio0/group16.mio0.o(.data)
 .data          0x0000000006000000     0x2ba0 build/us/mio0/group16.mio0.o
                0x0000000006002ba0                . = ALIGN (0x10)
                0x0000000006002ba0                _group16_mio0SegmentEnd = (ADDR (.group16_mio0) + SIZEOF (.group16_mio0))
                0x00000000007cf260                _group16_mio0SegmentRomEnd = (__romPos + SIZEOF (.group16_mio0))
                [0x00000000007cc6c0]                __romPos = (__romPos + SIZEOF (.group16_mio0))
                0x000000000d000000                _group16_geoSegmentStart = ADDR (.group16_geo)
                0x00000000007cc6c0                _group16_geoSegmentRomStart = __romPos

.group16_geo    0x000000000d000000      0x150 load address 0x00000000001e7d90
 build/us/actors/group16_geo.o(.geo)
 .geo           0x000000000d000000      0x148 build/us/actors/group16_geo.o
                0x000000000d000000                moneybag_geo_000000
                0x000000000d000078                moneybag_geo_000078
                0x000000000d0000f0                moneybag_geo
                0x000000000d000150                . = ALIGN (0x10)
 *fill*         0x000000000d000148        0x8 
                0x000000000d000150                _group16_geoSegmentEnd = (ADDR (.group16_geo) + SIZEOF (.group16_geo))
                0x00000000007cc810                _group16_geoSegmentRomEnd = (__romPos + SIZEOF (.group16_geo))
                [0x00000000007cc6c0]                __romPos = (__romPos + SIZEOF (.group16_geo))
                0x0000000006000000                _group17_mio0SegmentStart = ADDR (.group17_mio0)
                0x00000000007cc6c0                _group17_mio0SegmentRomStart = __romPos

.group17_mio0   0x0000000006000000     0x9c50 load address 0x00000000001e7ee0
 build/us/mio0/group17.mio0.o(.data)
 .data          0x0000000006000000     0x9c50 build/us/mio0/group17.mio0.o
                0x0000000006009c50                . = ALIGN (0x10)
                0x0000000006009c50                _group17_mio0SegmentEnd = (ADDR (.group17_mio0) + SIZEOF (.group17_mio0))
                0x00000000007d6310                _group17_mio0SegmentRomEnd = (__romPos + SIZEOF (.group17_mio0))
                [0x00000000007cc6c0]                __romPos = (__romPos + SIZEOF (.group17_mio0))
                0x000000000d000000                _group17_geoSegmentStart = ADDR (.group17_geo)
                0x00000000007cc6c0                _group17_geoSegmentRomStart = __romPos

.group17_geo    0x000000000d000000      0x6d0 load address 0x00000000001f1b30
 build/us/actors/group17_geo.o(.geo)
 .geo           0x000000000d000000      0x6d0 build/us/actors/group17_geo.o
                0x000000000d000000                mr_i_geo
                0x000000000d00001c                mr_i_iris_geo
                0x000000000d0000dc                swoop_geo
                0x000000000d0001a0                snufit_geo
                0x000000000d000230                dorrie_geo
                0x000000000d000394                scuttlebug_geo
                0x000000000d0006d0                . = ALIGN (0x10)
                0x000000000d0006d0                _group17_geoSegmentEnd = (ADDR (.group17_geo) + SIZEOF (.group17_geo))
                0x00000000007ccd90                _group17_geoSegmentRomEnd = (__romPos + SIZEOF (.group17_geo))
                [0x00000000007cc6c0]                __romPos = (__romPos + SIZEOF (.group17_geo))
                0x0000000008000000                _common0_mio0SegmentStart = ADDR (.common0_mio0)
                0x00000000007cc6c0                _common0_mio0SegmentRomStart = __romPos

.common0_mio0   0x0000000008000000     0xe6d0 load address 0x00000000001f2200
 build/us/mio0/common0.mio0.o(.data)
 .data          0x0000000008000000     0xe6d0 build/us/mio0/common0.mio0.o
                0x000000000800e6d0                . = ALIGN (0x10)
                0x000000000800e6d0                _common0_mio0SegmentEnd = (ADDR (.common0_mio0) + SIZEOF (.common0_mio0))
                0x00000000007dad90                _common0_mio0SegmentRomEnd = (__romPos + SIZEOF (.common0_mio0))
                [0x00000000007cc6c0]                __romPos = (__romPos + SIZEOF (.common0_mio0))
                0x000000000f000000                _common0_geoSegmentStart = ADDR (.common0_geo)
                0x00000000007cc6c0                _common0_geoSegmentRomStart = __romPos

.common0_geo    0x000000000f000000      0xb40 load address 0x00000000002008d0
 build/us/actors/common0_geo.o(.geo)
 .geo           0x000000000f000000      0xb38 build/us/actors/common0_geo.o
                0x000000000f000000                blue_coin_switch_geo
                0x000000000f000028                amp_geo
                0x000000000f0001a8                cannon_base_geo
                0x000000000f0001c0                cannon_barrel_geo
                0x000000000f0001d8                chuckya_geo
                0x000000000f0004cc                purple_switch_geo
                0x000000000f0004e4                checkerboard_platform_geo
                0x000000000f0004fc                heart_geo
                0x000000000f000518                flyguy_geo
                0x000000000f0005d0                breakable_box_geo
                0x000000000f000610                breakable_box_small_geo
                0x000000000f000640                bowling_ball_geo
                0x000000000f00066c                bowling_ball2_geo
                0x000000000f000694                exclamation_box_geo
                0x000000000f0006e4                goomba_geo
                0x000000000f0007b8                black_bobomb_geo
                0x000000000f0008f4                bobomb_buddy_geo
                0x000000000f000a30                metal_box_geo
                0x000000000f000a58                exclamation_box_outline_geo
                0x000000000f000ab0                koopa_shell_geo
                0x000000000f000adc                koopa_shell2_geo
                0x000000000f000b08                koopa_shell3_geo
                0x000000000f000b40                . = ALIGN (0x10)
 *fill*         0x000000000f000b38        0x8 
                0x000000000f000b40                _common0_geoSegmentEnd = (ADDR (.common0_geo) + SIZEOF (.common0_geo))
                0x00000000007cd200                _common0_geoSegmentRomEnd = (__romPos + SIZEOF (.common0_geo))
                [0x00000000007cc6c0]                __romPos = (__romPos + SIZEOF (.common0_geo))
                0x0000000003000000                _common1_mio0SegmentStart = ADDR (.common1_mio0)
                0x00000000007cc6c0                _common1_mio0SegmentRomStart = __romPos

.common1_mio0   0x0000000003000000    0x17990 load address 0x0000000000201410
 build/us/mio0/common1.mio0.o(.data)
 .data          0x0000000003000000    0x17990 build/us/mio0/common1.mio0.o
                0x0000000003017990                . = ALIGN (0x10)
                0x0000000003017990                _common1_mio0SegmentEnd = (ADDR (.common1_mio0) + SIZEOF (.common1_mio0))
                0x00000000007e4050                _common1_mio0SegmentRomEnd = (__romPos + SIZEOF (.common1_mio0))
                [0x00000000007cc6c0]                __romPos = (__romPos + SIZEOF (.common1_mio0))
                0x0000000016000000                _common1_geoSegmentStart = ADDR (.common1_geo)
                0x00000000007cc6c0                _common1_geoSegmentRomStart = __romPos

.common1_geo    0x0000000016000000     0x1060 load address 0x0000000000218da0
 build/us/actors/common1_geo.o(.geo)
 .geo           0x0000000016000000     0x1060 build/us/actors/common1_geo.o
                0x0000000016000000                mist_geo
                0x0000000016000020                white_puff_geo
                0x0000000016000040                explosion_geo
                0x00000000160000a8                butterfly_geo
                0x000000001600013c                yellow_coin_geo
                0x00000000160001a0                yellow_coin_no_shadow_geo
                0x0000000016000200                blue_coin_geo
                0x0000000016000264                blue_coin_no_shadow_geo
                0x00000000160002c4                red_coin_geo
                0x0000000016000328                red_coin_no_shadow_geo
                0x0000000016000388                warp_pipe_geo
                0x00000000160003a8                castle_door_geo
                0x000000001600043c                cabin_door_geo
                0x00000000160004d0                wooden_door_geo
                0x0000000016000564                wooden_door2_geo
                0x00000000160005f8                metal_door_geo
                0x000000001600068c                hazy_maze_door_geo
                0x0000000016000720                haunted_door_geo
                0x00000000160007b4                castle_door_0_star_geo
                0x0000000016000868                castle_door_1_star_geo
                0x000000001600091c                castle_door_3_stars_geo
                0x00000000160009d0                key_door_geo
                0x0000000016000a84                bowser_key2_geo
                0x0000000016000ab0                bowser_key_geo
                0x0000000016000b10                red_flame_shadow_geo
                0x0000000016000b2c                red_flame_geo
                0x0000000016000b8c                blue_flame_geo
                0x0000000016000bec                fish2_geo
                0x0000000016000c44                fish_geo
                0x0000000016000c8c                leaves_geo
                0x0000000016000ca4                marios_cap_geo
                0x0000000016000cf0                marios_metal_cap_geo
                0x0000000016000d3c                marios_wing_cap_geo
                0x0000000016000da8                marios_winged_metal_cap_geo
                0x0000000016000e14                number_geo
                0x0000000016000e84                mushroom_1up_geo
                0x0000000016000ea0                star_geo
                0x0000000016000ed4                dirt_animation_geo
                0x0000000016000f24                cartoon_star_geo
                0x0000000016000f6c                transparent_star_geo
                0x0000000016000f98                snowman_snow_ball_geo
                0x0000000016000fb4                wooden_signpost_geo
                0x0000000016000fe8                bubbly_tree_geo
                0x0000000016001000                spiky_tree_geo
                0x0000000016001018                snow_tree_geo
                0x0000000016001030                spiky_tree1_geo
                0x0000000016001048                palm_tree_geo
                0x0000000016001060                . = ALIGN (0x10)
                0x0000000016001060                _common1_geoSegmentEnd = (ADDR (.common1_geo) + SIZEOF (.common1_geo))
                0x00000000007cd720                _common1_geoSegmentRomEnd = (__romPos + SIZEOF (.common1_geo))
                [0x00000000007cc6c0]                __romPos = (__romPos + SIZEOF (.common1_geo))
                0x0000000013000000                _behaviorSegmentStart = ADDR (.behavior)
                0x00000000007cc6c0                _behaviorSegmentRomStart = __romPos

.behavior       0x0000000013000000     0x56c0 load address 0x0000000000219e00
 build/us/data/behavior_data.o(.behavior)
 .behavior      0x0000000013000000     0x56c0 build/us/data/behavior_data.o
                0x0000000013000000                behavior_data
                0x0000000013000000                bhvStarDoor
                0x0000000013000054                bhvMrI
                0x000000001300008c                bhvMrIBody
                0x00000000130000ac                bhvMrIParticle
                0x00000000130000f8                bhvGiantPiranhaParticle
                0x0000000013000118                bhvGiantPole
                0x0000000013000144                bhvPoleGrabbing
                0x0000000013000174                bhvThiHugeIslandTop
                0x0000000013000194                bhvThiTinyIslandTop
                0x00000000130001ac                bhvCapSwitchBase
                0x00000000130001cc                bhvCapSwitch
                0x00000000130001f4                bhvKingBobomb
                0x0000000013000254                bhvBobombAnchorMario
                0x0000000013000278                bhvBetaChest
                0x000000001300029c                bhvBetaChestUpper
                0x00000000130002b8                bhvBubbleMario
                0x00000000130002e4                bhvBubbleMaybe
                0x0000000013000338                bhvSmallWaterWave
                0x0000000013000398                bhvSmallWaterWave398
                0x00000000130003bc                bhvWaterAirBubble
                0x0000000013000400                bhvSmallParticle
                0x0000000013000428                bhvWaterWaves
                0x0000000013000444                bhvSmallParticleSnow
                0x000000001300046c                bhvSmallParticleBubbles
                0x0000000013000494                bhvFishGroup
                0x00000000130004a8                bhvCannon
                0x00000000130004e4                bhvCannonBarrel
                0x0000000013000500                bhvCannonBaseUnused
                0x0000000013000528                bhvChuckya
                0x0000000013000584                bhvChuckyaAnchorMario
                0x00000000130005a8                bhvUnused05A8
                0x00000000130005b4                bhvRotatingPlatform
                0x00000000130005d8                bhvTower
                0x0000000013000600                bhvBulletBillCannon
                0x0000000013000624                bhvWfBreakableWallRight
                0x0000000013000638                bhvWfBreakableWallLeft
                0x000000001300066c                bhvKickableBoard
                0x00000000130006a4                bhvTowerDoor
                0x00000000130006d8                bhvRotatingCounterClockwise
                0x00000000130006e0                bhvWfRotatingWoodenPlatform
                0x0000000013000708                bhvKoopaShellUnderwater
                0x0000000013000720                bhvExitPodiumWarp
                0x000000001300075c                bhvFadingWarp
                0x0000000013000780                bhvWarp
                0x00000000130007a0                bhvWarpPipe
                0x00000000130007dc                bhvWhitePuffExplosion
                0x00000000130007f8                bhvSpawnedStar
                0x000000001300080c                bhvUnused080C
                0x0000000013000830                bhvMrIBlueCoin
                0x0000000013000888                bhvCoinInsideBoo
                0x00000000130008d0                bhvCoinFormationSpawn
                0x00000000130008ec                bhvCoinFormation
                0x000000001300090c                bhvOneCoin
                0x000000001300091c                bhvYellowCoin
                0x0000000013000940                bhvTemporaryYellowCoin
                0x0000000013000964                bhvThreeCoinsSpawn
                0x0000000013000984                bhvTenCoinsSpawn
                0x00000000130009a4                bhvSingleCoinGetsSpawned
                0x00000000130009e0                bhvCoinSparkles
                0x0000000013000a14                bhvGoldenCoinSparkles
                0x0000000013000a34                bhvWallTinyStarParticle
                0x0000000013000a54                bhvWallTinyStarParticleSpawn
                0x0000000013000a78                bhvPoundTinyStarParticle
                0x0000000013000a98                bhvPoundTinyStarParticleSpawn
                0x0000000013000abc                bhvPunchTinyTriangle
                0x0000000013000ad8                bhvPunchTinyTriangleSpawn
                0x0000000013000afc                bhvDoorWarp
                0x0000000013000b0c                bhvDoor
                0x0000000013000b58                bhvGrindel
                0x0000000013000b8c                bhvThwomp2
                0x0000000013000bc8                bhvThwomp
                0x0000000013000c04                bhvTumblingBridgePlatform
                0x0000000013000c28                bhvWfTumblingBridge
                0x0000000013000c44                bhvBbhTumblingBridge
                0x0000000013000c64                bhvLllTumblingBridge
                0x0000000013000c84                bhvFlame
                0x0000000013000cc8                bhvAnotherElavator
                0x0000000013000cfc                bhvRrElevatorPlatform
                0x0000000013000d30                bhvHmcElevatorPlatform
                0x0000000013000d6c                bhvWaterMist
                0x0000000013000d98                bhvWaterMistSpawn
                0x0000000013000db4                bhvBreakBoxTriangle
                0x0000000013000dd8                bhvWaterMist2
                0x0000000013000dfc                bhvUnused0DFC
                0x0000000013000e24                bhvPoundWhitePuffs
                0x0000000013000e3c                bhvGroundSand
                0x0000000013000e40                bhvUnused0E40
                0x0000000013000e58                bhvGroundSnow
                0x0000000013000e70                bhvWind
                0x0000000013000e88                bhvEndToad
                0x0000000013000eac                bhvEndPeach
                0x0000000013000ed0                bhvPiranhaParticlesSpawn
                0x0000000013000f08                bhvUkiki
                0x0000000013000f14                bhvUnused0F14
                0x0000000013000f2c                bhvLittleCage2
                0x0000000013000f48                bhvLittleCage
                0x0000000013000f9c                bhvBitfsSinkingPlatforms
                0x0000000013000fc8                bhvBitfsSinkingCagePlatform
                0x0000000013001000                bhvDddMovingPole
                0x0000000013001030                bhvBitfsTiltingSquarePlatform
                0x0000000013001064                bhvSquishablePlatform
                0x0000000013001098                bhvCutOutObject
                0x00000000130010a8                bhvBetaMovingFlamesSpawn
                0x00000000130010b8                bhvBetaMovingFlames
                0x00000000130010d8                bhvRrRotatingBridgePlatform
                0x0000000013001108                bhvFlamethrower
                0x0000000013001124                bhvFlamethrowerFlame
                0x0000000013001168                bhvBouncingFireball
                0x0000000013001184                bhvBouncingFireballFlame
                0x00000000130011d0                bhvBowserShockWave
                0x00000000130011ec                bhvFlameMario
                0x0000000013001214                bhvBlackSmokeMario
                0x0000000013001254                bhvBlackSmokeBowser
                0x000000001300127c                bhvBlackSmokeUpward
                0x0000000013001298                bhvBetaFishSplashSpawner
                0x00000000130012b4                bhvSpindrift
                0x00000000130012f4                bhvTowerPlatformGroup
                0x0000000013001318                bhvWfSlidingTowerPlatform
                0x0000000013001340                bhvWfElevatorTowerPlatform
                0x0000000013001368                bhvWfSolidTowerPlatform
                0x0000000013001390                bhvSnowLeafParticleSpawn
                0x00000000130013a8                bhvTreeSnow
                0x00000000130013c4                bhvTreeLeaf
                0x00000000130013dc                bhvAnotherTiltingPlatform
                0x0000000013001408                bhvSquarishPathMoving
                0x000000001300142c                bhvPiranhaPlantBubble
                0x0000000013001448                bhvPiranhaPlantWakingBubbles
                0x0000000013001468                bhvFloorSwitchAnimatesObject
                0x0000000013001478                bhvFloorSwitchGrills
                0x0000000013001484                bhvFloorSwitchHardcodedModel
                0x00000000130014ac                bhvFloorSwitchHiddenObjects
                0x00000000130014bc                bhvHiddenObject
                0x00000000130014e0                bhvBreakableBox
                0x0000000013001518                bhvPushableMetalBox
                0x0000000013001548                bhvHeaveHo
                0x00000000130015a4                bhvHeaveHoThrowMario
                0x00000000130015c0                bhvCcmTouchedStarSpawn
                0x00000000130015e4                bhvPoundExplodes
                0x0000000013001608                bhvBetaTrampoline
                0x0000000013001634                bhvBetaTrampolineSpawn
                0x0000000013001650                bhvJumpingBox
                0x000000001300167c                bhvBooCage
                0x00000000130016ac                bhvStub
                0x00000000130016b8                bhvIgloo
                0x00000000130016e4                bhvBowserKey2
                0x0000000013001714                bhvGrandStar
                0x0000000013001744                bhvBetaBooKeyInside
                0x0000000013001778                bhvBetaBooKeyOutside
                0x000000001300179c                bhvBulletBill
                0x00000000130017f4                bhvWhitePuffSmoke
                0x0000000013001820                bhvUnused1820
                0x0000000013001828                bhvBowserTailAnchor
                0x0000000013001850                bhvBowser
                0x00000000130018cc                bhvBowserBodyAnchor
                0x0000000013001904                bhvBowserFlameSpawn
                0x0000000013001920                bhvTiltingBowserLavaPlatform
                0x0000000013001958                bhvFallingBowserPlatform
                0x0000000013001984                bhvBlueBowserFlame
                0x00000000130019c8                bhvFlameFloatingLanding
                0x0000000013001a0c                bhvBlueFlamesGroup
                0x0000000013001a30                bhvFlameBouncing
                0x0000000013001a74                bhvFlameMovingForwardGrowing
                0x0000000013001aa4                bhvFlameBowser
                0x0000000013001ae8                bhvFlameLargeBurningOut
                0x0000000013001b2c                bhvBlueFish
                0x0000000013001b54                bhvTankFishGroups
                0x0000000013001b70                bhvCheckerboardElevatorGroup
                0x0000000013001b88                bhvCheckerboardPlatformSub
                0x0000000013001bb4                bhvDoorKey1
                0x0000000013001bd4                bhvDoorKey2
                0x0000000013001bf4                bhvInvisibleObjectsUnderBridge
                0x0000000013001c04                bhvWaterLevelPillar
                0x0000000013001c34                bhvDddWarp
                0x0000000013001c58                bhvMoatGrills
                0x0000000013001c7c                bhvClockMinuteHand
                0x0000000013001c8c                bhvClockHourHand
                0x0000000013001cb0                bhvUkikiOpenCage
                0x0000000013001d0c                bhvStub1D0C
                0x0000000013001d14                bhvLllRotatingHexagonalPlatform
                0x0000000013001d40                bhvLllSinkingRockBlock
                0x0000000013001d70                bhvStub1D70
                0x0000000013001d78                bhvLllMovingOctagonalMeshPlatform
                0x0000000013001da4                bhvSnowBall
                0x0000000013001da8                bhvLllRotatingBlockWithFireBars
                0x0000000013001dcc                bhvLllRotatingHexFlame
                0x0000000013001e04                bhvLllWoodPiece
                0x0000000013001e30                bhvLllFloatingWoodBridge
                0x0000000013001e4c                bhvVolcanoFlames
                0x0000000013001e6c                bhvLllRotatingHexagonalRing
                0x0000000013001e94                bhvLllSinkingRectangularPlatform
                0x0000000013001ec4                bhvLllSinkingSquarePlatforms
                0x0000000013001ef8                bhvLllTiltingSquarePlatform
                0x0000000013001f30                bhvUnused1F30
                0x0000000013001f3c                bhvKoopaShell
                0x0000000013001f68                bhvKoopaShellFlame
                0x0000000013001f90                bhvToxBox
                0x0000000013001fbc                bhvPiranhaPlant2
                0x0000000013002018                bhvLllHexagonalMesh
                0x0000000013002038                bhvLllBowserPuzzlePiece
                0x0000000013002068                bhvLllBowserPuzzle
                0x0000000013002088                bhvTuxiesMother
                0x00000000130020d8                bhvPenguinBaby
                0x00000000130020e0                bhvUnused20E0
                0x00000000130020e8                bhvSmallPenguin
                0x000000001300213c                bhvFish2
                0x000000001300214c                bhvFish3
                0x000000001300215c                bhvLargeFishGroup
                0x0000000013002160                bhvFishCommon
                0x0000000013002178                bhvFishGroup2
                0x0000000013002194                bhvWdwExpressElevator
                0x00000000130021c0                bhvWdwExpressElevatorPlatform
                0x00000000130021e4                bhvChirpChirp
                0x00000000130021f4                bhvChirpChirpUnused
                0x000000001300220c                bhvBub
                0x0000000013002250                bhvExclamationBox
                0x000000001300227c                bhvRotatingExclamationMark
                0x000000001300229c                bhvSoundSpawner
                0x00000000130022b8                bhvRockSolid
                0x00000000130022d8                bhvBowserSubDoor
                0x0000000013002308                bhvBowsersSub
                0x0000000013002338                bhvSushiShark
                0x0000000013002388                bhvSushiSharkCollisionChild
                0x00000000130023a4                bhvJrbSlidingBox
                0x00000000130023d0                bhvShipPart3
                0x00000000130023ec                bhvInSunkenShip3
                0x000000001300241c                bhvSunkenShipPart
                0x000000001300243c                bhvUnused243C
                0x000000001300244c                bhvSunkenShipPart2
                0x000000001300246c                bhvInSunkenShip
                0x0000000013002480                bhvInSunkenShip2
                0x00000000130024ac                bhvMarioDustGenerator
                0x00000000130024dc                bhvWhitePuff1
                0x0000000013002500                bhvWhitePuff2
                0x0000000013002528                bhvWhitePuffSmoke2
                0x0000000013002558                bhvPurpleSwitchHiddenBoxes
                0x0000000013002568                bhvBlueCoinSwitch
                0x0000000013002588                bhvHiddenBlueCoin
                0x00000000130025c0                bhvOpenableCageDoor
                0x00000000130025e0                bhvOpenableGrill
                0x00000000130025f8                bhvWaterLevelDiamond
                0x0000000013002620                bhvInitializeChangingWaterLevel
                0x0000000013002634                bhvTornadoSandParticle
                0x0000000013002650                bhvTornado
                0x0000000013002684                bhvSpawnBigBoo
                0x000000001300269c                bhvAnimatedTexture
                0x00000000130026d4                bhvBooInCastle
                0x0000000013002710                bhvBooWithCage
                0x0000000013002768                bhvPatrollingBoo
                0x000000001300277c                bhvSpawnedBoo
                0x0000000013002790                bhvBooGivingStar
                0x00000000130027d0                bhvBooGroup
                0x00000000130027e4                bhvBoo3
                0x00000000130027f4                bhvSpawnedBoo2
                0x0000000013002804                bhvBoo2
                0x000000001300286c                bhvHiddenStaircaseStep
                0x0000000013002898                bhvBooBossSpawnedBridge
                0x00000000130028cc                bhvBbhTiltFloorPlatforms
                0x00000000130028fc                bhvTumblingBookshelf
                0x000000001300292c                bhvMeshElevator
                0x0000000013002968                bhvRotatingMerryGoRound
                0x0000000013002998                bhvPlaysMusicTrackWhenTouched
                0x00000000130029b0                bhvInsideCannon
                0x00000000130029b4                bhvBetaFollowingCirclingObj
                0x00000000130029e4                bhvStaticCheckeredPlatform
                0x0000000013002a10                bhvUnused2A10
                0x0000000013002a20                bhvUnusedFakeStar
                0x0000000013002a48                bhvStaticObject
                0x0000000013002a54                bhvUnused2A54
                0x0000000013002a5c                bhvCastleFloorTrap
                0x0000000013002a7c                bhvFloorTrapInCastle
                0x0000000013002aa4                bhvTree
                0x0000000013002ad0                bhvPowerupSparkles1
                0x0000000013002af0                bhvPowerupSparkles2
                0x0000000013002b08                bhvSpecialTripleJumpSparkles
                0x0000000013002b14                bhvSomeGfx
                0x0000000013002b5c                bhvScuttlebug
                0x0000000013002ba0                bhvScuttlebugSpawn
                0x0000000013002bb8                bhvWhompKingBoss
                0x0000000013002bcc                bhvSmallWhomp
                0x0000000013002c14                bhvWaterSplash
                0x0000000013002c60                bhvWaterDrops
                0x0000000013002c7c                bhvWaterSurfaceWhiteWave
                0x0000000013002cb0                bhvObjectBubbleRipples
                0x0000000013002ce0                bhvSurfaceWaves
                0x0000000013002d28                bhvWaterSurfaceWhiteWave2
                0x0000000013002d50                bhvWavesGenerator
                0x0000000013002d7c                bhvSurfaceWaveShrinking
                0x0000000013002db0                bhvWaterType
                0x0000000013002dc0                bhvWaveTrailOnSurface
                0x0000000013002e04                bhvTinyWhiteWindParticle
                0x0000000013002e20                bhvWindParticle
                0x0000000013002e3c                bhvSnowmanWindBlowing
                0x0000000013002e58                bhvWalkingPenguin
                0x0000000013002ea8                bhvYellowBall
                0x0000000013002ec0                bhvMario
                0x0000000013002ef8                bhvToadMessage
                0x0000000013002f40                bhvUnlockDoorStar
                0x0000000013002f60                bhvWarps60
                0x0000000013002f64                bhvWarps64
                0x0000000013002f68                bhvWarps68
                0x0000000013002f6c                bhvWarps6C
                0x0000000013002f70                bhvWarps70
                0x0000000013002f74                bhvWarps74
                0x0000000013002f78                bhvWarps78
                0x0000000013002f7c                bhvWarps7C
                0x0000000013002f80                bhvWarps80
                0x0000000013002f84                bhvWarps84
                0x0000000013002f88                bhvWarps88
                0x0000000013002f8c                bhvWarps8C
                0x0000000013002f90                bhvWarps90
                0x0000000013002f94                bhvWarps94
                0x0000000013002fa0                bhvRandomAnimatedTexture
                0x0000000013002fc0                bhvYellowBackgroundInMenu
                0x0000000013002fe4                bhvMenuButton
                0x0000000013003008                bhvMenuButtonManager
                0x000000001300302c                bhvStarInActSelector
                0x0000000013003048                bhvActSelector
                0x0000000013003068                bhvMovingYellowCoin
                0x00000000130030a4                bhvMovingBlueCoin
                0x00000000130030d4                bhvBlueCoinSliding
                0x0000000013003104                bhvBlueCoinJumping
                0x0000000013003134                bhvSeaweed
                0x0000000013003158                bhvSeaweedBundle
                0x0000000013003174                bhvBobomb
                0x00000000130031ac                bhvBobombFuseSmoke
                0x00000000130031dc                bhvBobombBuddy
                0x0000000013003228                bhvBobombBuddyOpensCannon
                0x0000000013003274                bhvCannonClosed
                0x00000000130032a8                bhvWhirlpool
                0x00000000130032c8                bhvJetStream
                0x00000000130032e0                bhvMessagePanel
                0x0000000013003324                bhvSignOnWall
                0x0000000013003354                bhvAmpHoming
                0x0000000013003388                bhvAmpCircling
                0x00000000130033bc                bhvButterfly
                0x00000000130033ec                bhvHoot
                0x0000000013003420                bhvBetaGreenShell
                0x0000000013003454                bhvCarrySomething1
                0x000000001300345c                bhvCarrySomething2
                0x0000000013003464                bhvCarrySomething3
                0x000000001300346c                bhvCarrySomething4
                0x0000000013003474                bhvCarrySomething5
                0x000000001300347c                bhvCarrySomething6
                0x0000000013003484                bhvObjectBubble
                0x00000000130034c4                bhvObjectWaterWave
                0x0000000013003510                bhvExplosion
                0x0000000013003558                bhvBobombBullyDeathSmoke
                0x0000000013003588                bhvSmoke
                0x00000000130035b0                bhvBobombExplosionBubble
                0x0000000013003600                bhvBobombExplosionBubble3600
                0x0000000013003614                bhvRespawner
                0x000000001300362c                bhvSmallBully
                0x0000000013003660                bhvBigBully
                0x0000000013003694                bhvBigBullyWithMinions
                0x00000000130036c8                bhvSmallChillBully
                0x0000000013003700                bhvBigChillBully
                0x0000000013003738                bhvJetStreamRingSpawner
                0x0000000013003750                bhvJetStreamWaterRing
                0x0000000013003798                bhvMantaRayWaterRing
                0x00000000130037e0                bhvMantaRayRingManager
                0x00000000130037ec                bhvBowserBomb
                0x000000001300381c                bhvBowserBombExplosion
                0x0000000013003840                bhvBowserBombSmoke
                0x0000000013003868                bhvCelebrationStar
                0x0000000013003888                bhvCelebrationStarSparkle
                0x00000000130038b0                bhvStarKeyCollectionPuffSpawner
                0x00000000130038d0                bhvLllDrawbridgeSpawner
                0x00000000130038e8                bhvLllDrawbridge
                0x0000000013003910                bhvSmallBomp
                0x0000000013003940                bhvLargeBomp
                0x0000000013003970                bhvWfSlidingPlatform
                0x00000000130039a0                bhvMoneybag
                0x00000000130039d4                bhvMoneybagHidden
                0x0000000013003a08                bhvPitBowlingBall
                0x0000000013003a30                bhvFreeBowlingBall
                0x0000000013003a58                bhvBowlingBall
                0x0000000013003a80                bhvTtmBowlingBallSpawner
                0x0000000013003aa4                bhvBobBowlingBallSpawner
                0x0000000013003ac8                bhvThiBowlingBallSpawner
                0x0000000013003ae0                bhvRrCruiserWing
                0x0000000013003b00                bhvSpindel
                0x0000000013003b30                bhvSslMovingPyramidWall
                0x0000000013003b60                bhvPyramidElevator
                0x0000000013003b98                bhvPyramidElevatorMetalBalls
                0x0000000013003bb4                bhvPyramidTop
                0x0000000013003bec                bhvPyramidTopExplosion
                0x0000000013003c0c                bhvCollisionBoxSubbehavior
                0x0000000013003c30                bhvWaterfallSoundLoop
                0x0000000013003c44                bhvVolcanoSoundLoop
                0x0000000013003c58                bhvCastleFlagWaving
                0x0000000013003c7c                bhvBirdsSoundLoop
                0x0000000013003c90                bhvAmbientSounds
                0x0000000013003ca4                bhvSandSoundLoop
                0x0000000013003cb8                bhvHiddenAt120Stars
                0x0000000013003ce4                bhvSnowmansBottom
                0x0000000013003d0c                bhvSnowmansHead
                0x0000000013003d34                bhvSnowmansBodyCheckpoint
                0x0000000013003d4c                bhvBigSnowmanWhole
                0x0000000013003d74                bhvBigBoulder
                0x0000000013003da0                bhvBigBoulderGenerator
                0x0000000013003db8                bhvWingCap
                0x0000000013003dd8                bhvMetalCap
                0x0000000013003df8                bhvNormalCap
                0x0000000013003e1c                bhvVanishCap
                0x0000000013003e3c                bhvStar
                0x0000000013003e64                bhvStarSpawnCoordinates
                0x0000000013003e8c                bhvHiddenRedCoinStar
                0x0000000013003eac                bhvRedCoin
                0x0000000013003ee4                bhvBowserCourseRedCoinStar
                0x0000000013003efc                bhvHiddenStar
                0x0000000013003f1c                bhvHiddenStarTrigger
                0x0000000013003f40                bhvTtmRollingLog
                0x0000000013003f78                bhvLllVolcanoFallingTrap
                0x0000000013003fa4                bhvLllRollingLog
                0x0000000013003fdc                bhv1upWalking
                0x0000000013004010                bhv1upRunningAway
                0x0000000013004044                bhv1upSliding
                0x000000001300407c                bhv1Up
                0x00000000130040b4                bhv1upJumpOnApproach
                0x00000000130040ec                bhvHidden1up
                0x0000000013004124                bhvHidden1upTrigger
                0x0000000013004148                bhvHidden1upInPole
                0x0000000013004180                bhvHidden1upInPoleTrigger
                0x00000000130041a4                bhvHidden1upInPoleSpawner
                0x00000000130041bc                bhvControllablePlatform
                0x00000000130041f0                bhvControllablePlatformSub
                0x0000000013004218                bhvBreakableBoxSmall
                0x0000000013004244                bhvSlidingSnowMound
                0x0000000013004270                bhvSnowMoundSpawn
                0x0000000013004284                bhvWdwSquareFloatingPlatform
                0x00000000130042b4                bhvWdwRectangularFloatingPlatform
                0x00000000130042e4                bhvJrbFloatingPlatform
                0x0000000013004314                bhvArrowLift
                0x0000000013004348                bhvOrangeNumber
                0x0000000013004370                bhvMantaRay
                0x00000000130043a0                bhvFallingPillar
                0x00000000130043c4                bhvSomeSubojbjectOfFallingPillar
                0x00000000130043e0                bhvPillarBase
                0x0000000013004400                bhvJrbFloatingBox
                0x000000001300442c                bhvOscillatingPendulum
                0x000000001300444c                bhvTreasureChestsShip
                0x0000000013004470                bhvTreasureChestsJrb
                0x0000000013004494                bhvTreasureChests
                0x00000000130044b8                bhvTreasureChestBottom
                0x00000000130044e0                bhvTreasureChestTop
                0x00000000130044fc                bhvMips
                0x0000000013004538                bhvYoshi
                0x0000000013004580                bhvKoopa
                0x00000000130045d0                bhvKoopaRaceEndpoint
                0x00000000130045f8                bhvKoopaFlag
                0x0000000013004634                bhvPokey
                0x0000000013004668                bhvPokeyBodyPart
                0x0000000013004698                bhvSwoop
                0x00000000130046dc                bhvFlyGuy
                0x000000001300472c                bhvGoomba
                0x0000000013004770                bhvGoombaTripletSpawner
                0x000000001300478c                bhvChainChomp
                0x00000000130047e4                bhvChainChompChainPart
                0x000000001300481c                bhvWoodenPost
                0x0000000013004868                bhvChainChompGate
                0x0000000013004898                bhvWiggler
                0x00000000130048e0                bhvWigglerBodyPart
                0x0000000013004918                bhvEnemyLakitu
                0x0000000013004954                bhvCameraLakitu
                0x0000000013004988                bhvCloud
                0x00000000130049ac                bhvCloudPart
                0x00000000130049c8                bhvSpiny
                0x0000000013004a00                bhvMontyMole
                0x0000000013004a58                bhvMontyMoleHole
                0x0000000013004a78                bhvMontyMoleRock
                0x0000000013004ab0                bhvPlatformOnTrack
                0x0000000013004af4                bhvTrackBall
                0x0000000013004b1c                bhvSeesawPlatform
                0x0000000013004b44                bhvFerrisWheelAxle
                0x0000000013004b6c                bhvFerrisWheelPlatform
                0x0000000013004b8c                bhvWaterBombSpawner
                0x0000000013004ba8                bhvWaterBomb
                0x0000000013004bd4                bhvWaterBombShadow
                0x0000000013004bf0                bhvTTCRotatingSolid
                0x0000000013004c24                bhvTTCPendulum
                0x0000000013004c5c                bhvTTCTreadmill
                0x0000000013004c94                bhvTTCMovingBar
                0x0000000013004ccc                bhvTTCCog
                0x0000000013004cf8                bhvTTCPitBlock
                0x0000000013004d28                bhvTTCElevator
                0x0000000013004d64                bhvTTC2DRotator
                0x0000000013004d90                bhvTTCSpinner
                0x0000000013004dbc                bhvMrBlizzard
                0x0000000013004e08                bhvMrBlizzardSnowball
                0x0000000013004e4c                bhvSlidingPlatform2
                0x0000000013004e78                bhvOctagonalPlatformRotating
                0x0000000013004ea0                bhvAnimatesOnFloorSwitchPress
                0x0000000013004ecc                bhvActivatedBackAndForthPlatform
                0x0000000013004ef8                bhvRecoveryHeart
                0x0000000013004f10                bhvWaterBombCannon
                0x0000000013004f28                bhvCannonBarrelBubbles
                0x0000000013004f40                bhvUnagi
                0x0000000013004f78                bhvUnagiSubobject
                0x0000000013004f90                bhvDorrie
                0x0000000013004fd4                bhvHauntedChair
                0x0000000013005024                bhvMadPiano
                0x000000001300506c                bhvFlyingBookend
                0x00000000130050b4                bhvBookendSpawn
                0x00000000130050d4                bhvBookshelfThing
                0x00000000130050f4                bhvBookSwitch
                0x0000000013005120                bhvFirePiranhaPlant
                0x0000000013005158                bhvSmallPiranhaFlame
                0x000000001300518c                bhvFireSpitter
                0x00000000130051ac                bhvFlyguyFlame
                0x00000000130051e0                bhvSnufit
                0x000000001300521c                bhvSnufitBalls
                0x000000001300525c                bhvHorizontalGrindel
                0x00000000130052b4                bhvEyerokBoss
                0x00000000130052d0                bhvEyerokHand
                0x0000000013005310                bhvKlepto
                0x0000000013005354                bBird
                0x0000000013005380                bhvRacingPenguin
                0x00000000130053c4                bhvPenguinRaceFinishLine
                0x00000000130053dc                bhvPenguinRaceShortcutCheck
                0x00000000130053f4                bhvHauntedRoomCheck
                0x0000000013005414                bhvHauntedRoomCheckSubobject
                0x0000000013005440                bhvClamShell
                0x0000000013005468                bhvSkeeter
                0x00000000130054a0                bhvSkeeterWave
                0x00000000130054b8                bhvSwingPlatform
                0x00000000130054ec                bhvDonutPlatformSpawner
                0x0000000013005504                bhvDonutPlatform
                0x0000000013005528                bhvDDDPole
                0x000000001300556c                bhvRedCoinStarMarker
                0x0000000013005598                bhvTripletButterfly
                0x00000000130055dc                bhvBubba
                0x0000000013005610                bhvBeginningLakitu
                0x0000000013005638                bhvBeginningPeach
                0x000000001300565c                bhvEndBirds1
                0x0000000013005680                bhvEndBirds2
                0x00000000130056a4                bhvIntroScene
                0x00000000130056c0                behavior_data_end
                0x00000000130056c0                _behaviorSegmentEnd = (ADDR (.behavior) + SIZEOF (.behavior))
                0x00000000007d1d80                _behaviorSegmentRomEnd = (__romPos + SIZEOF (.behavior))
                [0x00000000007cc6c0]                __romPos = (__romPos + SIZEOF (.behavior))
                0x000000008016f000                _goddardSegmentStart = ADDR (.goddard)
                0x00000000007cc6c0                _goddardSegmentRomStart = __romPos

.goddard        0x000000008016f000    0x4a9e0 load address 0x000000000021f4c0
 build/us/src/game/level_select_menu.o(.text)
 .text          0x000000008016f000      0x670 build/us/src/game/level_select_menu.o
                0x000000008016f000                run_press_start_demo_timer
                0x000000008016f128                level_select_input_loop
                0x000000008016f3cc                func_8016F3CC
                0x000000008016f4b0                func_8016F444
                0x000000008016f564                func_8016F4BC
                0x000000008016f5b0                LevelProc_8016F508
 build/us/src/game/intro_geo.o(.text)
 .text          0x000000008016f670      0xc10 build/us/src/game/intro_geo.o
                0x000000008016f670                geo18_title_screen
                0x000000008016f984                geo18_fade_transition
                0x000000008016fbb0                intro_backdrop_one_image
                0x000000008016fe70                geo18_intro_backdrop
                0x000000008016fffc                geo18_game_over_tile
 build/us/src/game/file_select.o(.text)
 .text          0x0000000080170280     0x6660 build/us/src/game/file_select.o
                0x0000000080170280                beh_yellow_background_menu_init
                0x00000000801702b8                beh_yellow_background_menu_loop
                0x00000000801702e8                button_clicked_test
                0x0000000080170488                bhvMenuButton_growing_from_main_menu
                0x00000000801705dc                bhvMenuButton_shrinking_to_main_menu
                0x0000000080170710                bhvMenuButton_growing_from_submenu
                0x0000000080170838                bhvMenuButton_shrinking_to_submenu
                0x000000008017096c                bhvMenuButton_zoom_in_out
                0x0000000080170a4c                bhvMenuButton_zoom_in
                0x0000000080170a9c                bhvMenuButton_zoom_out
                0x0000000080170aec                bhvMenuButton_init
                0x0000000080170b1c                bhvMenuButton_loop
                0x0000000080170cb4                score_menu_file_exiting
                0x0000000080170d60                score_menu_create_buttons
                0x0000000080171168                score_menu_check_clicked_buttons
                0x000000008017137c                copy_menu_create_buttons
                0x0000000080171784                CopyMenuCopyFile
                0x0000000080171a2c                copy_menu_check_clicked_buttons
                0x0000000080171c0c                erase_menu_create_buttons
                0x0000000080172014                erase_menu_erase_file
                0x00000000801721ac                erase_menu_check_clicked_buttons
                0x000000008017236c                sound_mode_menu_create_buttons
                0x00000000801724b8                sound_mode_menu_check_clicked_buttons
                0x000000008017261c                main_menu_file_selected
                0x0000000080172644                return_to_main_menu
                0x0000000080172818                score_menu_init_from_submenu
                0x00000000801729e0                copy_menu_init_from_submenu
                0x0000000080172ba8                erase_menu_init_from_submenu
                0x0000000080172d70                bhvMenuButtonManager_init
                0x00000000801731a8                main_menu_check_clicked_buttons
                0x0000000080173430                bhvMenuButtonManager_loop
                0x0000000080173780                handle_button_presses
                0x0000000080173900                handle_controller_input
                0x0000000080173ae0                draw_cursor
                0x0000000080173c6c                menu_print_title_text
                0x0000000080173d64                menu_print_generic_text
                0x0000000080173e54                update_text_fade_out
                0x0000000080173ee4                display_file_star_count
                0x0000000080173fd4                draw_main_menu
                0x0000000080174324                score_menu_display_message
                0x00000000801743ac                draw_score_menu
                0x00000000801746f8                copy_menu_display_message
                0x0000000080174804                copy_menu_update_message
                0x00000000801749b0                draw_copy_menu
                0x0000000080174ca8                erase_menu_yes_no_prompt
                0x0000000080175238                erase_menu_display_message
                0x0000000080175404                erase_menu_update_message
                0x00000000801755a8                draw_erase_menu
                0x00000000801758a0                draw_sound_mode_menu
                0x0000000080175b14                score_file_print_castle_secret_stars
                0x0000000080175b90                score_file_print_course_coin_score
                0x0000000080175d2c                score_file_print_course_star_score
                0x0000000080175dfc                draw_file_scores
                0x00000000801764e0                draw_current_menu
                0x0000000080176688                Geo18_80176688
                0x00000000801766dc                LevelProc_801766DC
                0x00000000801768a0                LevelProc_801768A0
 build/us/src/game/star_select.o(.text)
 .text          0x00000000801768e0      0xe30 build/us/src/game/star_select.o
                0x00000000801768e0                BehStarActSelectorLoop
                0x0000000080176a74                Show100CoinStar
                0x0000000080176b20                BehActSelectorInit
                0x0000000080176df0                BehActSelectorLoop
                0x0000000080176fc4                ShowCourseNumber
                0x0000000080177144                ShowActSelectorMenu
                0x0000000080177518                Geo18_80177518
                0x0000000080177560                LevelProc_80177560
                0x0000000080177610                LevelProc_80177610
 build/us/src/goddard/gd_main.o(.text)
 .text          0x0000000080177710      0x110 build/us/src/goddard/gd_main.o
                0x0000000080177710                __main__
 build/us/src/goddard/gd_memory.o(.text)
 .text          0x0000000080177820      0x9c0 build/us/src/goddard/gd_memory.o
                0x0000000080177820                empty_mem_block
                0x0000000080177924                into_free_memblock
                0x00000000801779dc                make_mem_block
                0x0000000080177bb8                gd_free_mem
                0x0000000080177c58                gd_request_mem
                0x0000000080177e7c                gd_add_mem_to_heap
                0x0000000080177f0c                init_mem_block_lists
                0x0000000080177f34                print_list_stats
                0x00000000801780b0                mem_stats
 build/us/src/goddard/mhead_sfx.o(.text)
 .text          0x00000000801781e0       0xa0 build/us/src/goddard/mhead_sfx.o
                0x00000000801781e0                gd_reset_sfx
                0x0000000080178200                gd_new_sfx_to_play
                0x000000008017822c                gd_sfx_played
                0x0000000080178254                gd_play_sfx
 build/us/src/goddard/draw_objects.o(.text)
 .text          0x0000000080178280     0x3b70 build/us/src/goddard/draw_objects.o
                0x0000000080178280                setup_lights
                0x000000008017831c                Unknown801781DC
                0x00000000801785dc                draw_shape
                0x000000008017894c                draw_shape_2d
                0x0000000080178a40                draw_light
                0x0000000080178c5c                draw_material
                0x0000000080178d90                create_mtl_gddl_if_empty
                0x0000000080178dec                check_face_bad_vtx
                0x0000000080178ed8                gd_get_colour
                0x000000008017900c                Unknown80178ECC
                0x0000000080179120                draw_face
                0x0000000080179368                draw_rect_fill
                0x00000000801793cc                draw_rect_stroke
                0x0000000080179430                Unknown801792F0
                0x0000000080179490                draw_label
                0x0000000080179768                draw_net
                0x00000000801798ac                draw_gadget
                0x00000000801799ac                draw_camera
                0x0000000080179c0c                Unknown80179ACC
                0x0000000080179ca4                func_80179B64
                0x0000000080179cdc                func_80179B9C
                0x0000000080179e08                check_grabable_click
                0x000000008017a010                drawscene
                0x000000008017a344                nop_obj_draw
                0x000000008017a358                draw_shape_faces
                0x000000008017a44c                draw_particle
                0x000000008017a690                draw_bone
                0x000000008017a7e4                draw_joint
                0x000000008017a900                draw_group
                0x000000008017a958                draw_plane
                0x000000008017a9e0                apply_obj_draw_fn
                0x000000008017aa5c                register_light
                0x000000008017aaf0                Proc8017A980
                0x000000008017aed8                update_shaders
                0x000000008017afc8                create_shape_mtl_gddls
                0x000000008017b01c                unref_8017AEDC
                0x000000008017b088                create_shape_gddl
                0x000000008017b168                create_gddl_for_shapes
                0x000000008017b1a4                map_face_materials
                0x000000008017b258                calc_vtx_normal
                0x000000008017b3dc                find_thisface_verts
                0x000000008017b538                map_vertices
                0x000000008017b608                unpick_obj
                0x000000008017b654                find_closest_pickable_obj
                0x000000008017b730                set_view_update_camera
                0x000000008017b764                update_view
                0x000000008017bdd4                unref_8017BC94
 build/us/src/goddard/mario_head_1.o(.text)
 .text          0x000000008017bdf0     0x5930 build/us/src/goddard/mario_head_1.o
                0x000000008017bdf0                func_8017BCB0
                0x000000008017be60                func_8017BD20
                0x000000008017bfa0                func_8017BE60
                0x000000008017c010                func_8017BED0
                0x000000008017c034                get_obj_name_str
                0x000000008017c300                make_object
                0x000000008017c810                make_zone
                0x000000008017c8e0                Unknown8017C7A0
                0x000000008017c940                make_link_to_obj
                0x000000008017ca00                make_vtx_link
                0x000000008017cac4                make_valptrs
                0x000000008017cb4c                reset_plane
                0x000000008017cf7c                make_plane
                0x000000008017d010                make_camera
                0x000000008017d22c                make_material
                0x000000008017d2d4                make_light
                0x000000008017d3e8                make_view
                0x000000008017d67c                make_animator
                0x000000008017d6f4                make_weight
                0x000000008017d76c                make_group_of_type
                0x000000008017d838                sprint_obj_id
                0x000000008017da04                make_group
                0x000000008017dc14                addto_group
                0x000000008017dd00                addto_groupfirst
                0x000000008017ddfc                group_contains_obj
                0x000000008017de80                show_details
                0x000000008017e328                Unknown8017E1E8
                0x000000008017e34c                func_8017E20C
                0x000000008017e370                gd_loadtexture
                0x000000008017e3f8                func_8017E2B8
                0x000000008017e430                UnknownRecursive8017E2F0
                0x000000008017e520                apply_to_obj_types_in_group
                0x000000008017e6c4                func_8017E584
                0x000000008017e978                func_8017E838
                0x000000008017eb2c                func_8017E9EC
                0x000000008017ebd4                Unknown8017EA94
                0x000000008017ec64                Unknown8017EB24
                0x000000008017ee40                Unknown8017ED00
                0x000000008017ef0c                Unknown8017EDCC
                0x000000008017ef9c                gd_plane_point_within
                0x000000008017f194                func_8017F054
                0x000000008017f350                UnknownRecursive8017F210
                0x000000008017f50c                Unknown8017F3CC
                0x000000008017f544                func_8017F404
                0x000000008017f564                func_8017F424
                0x000000008017f704                move_animator
                0x0000000080180764                drag_picked_object
                0x0000000080180a64                move_animators
                0x0000000080180ab4                find_and_drag_picked_object
                0x0000000080180af0                move_camera
                0x0000000080181114                move_cameras_in_grp
                0x000000008018114c                Unknown8018100C
                0x00000000801814b8                move_lights_in_grp
                0x00000000801814f0                move_group_members
                0x000000008018159c                proc_view_movement
                0x0000000080181634                reset_nets_and_gadgets
                0x0000000080181678                null_obj_lists
 build/us/src/goddard/mario_head_2.o(.text)
 .text          0x0000000080181720      0x620 build/us/src/goddard/mario_head_2.o
                0x0000000080181720                Unknown801815E0
                0x00000000801818a0                func_80181760
                0x000000008018197c                move_skin
                0x00000000801819d4                func_80181894
                0x0000000080181b10                Unknown801819D0
                0x0000000080181c20                reset_weight
                0x0000000080181cc8                Unknown80181B88
 build/us/src/goddard/mario_head_3.o(.text)
 .text          0x0000000080181d40     0x1d10 build/us/src/goddard/mario_head_3.o
                0x0000000080181d40                func_80181C00
                0x0000000080181e54                Unknown80181D14
                0x0000000080181ff0                func_80181EB0
                0x00000000801821c8                func_80182088
                0x00000000801824e0                func_801823A0
                0x0000000080182630                make_particle
                0x000000008018273c                func_801825FC
                0x00000000801828b8                func_80182778
                0x0000000080182b48                func_80182A08
                0x0000000080182dc4                move_particle
                0x00000000801836b0                move_particles_in_grp
                0x0000000080183708                Unknown801835C8
                0x00000000801839b0                Unknown80183870
                0x00000000801839c4                Unknown80183884
                0x00000000801839d8                Unknown80183898
                0x00000000801839f4                Unknown801838B4
                0x0000000080183a10                func_801838D0
 build/us/src/goddard/dynlist_proc.o(.text)
 .text          0x0000000080183a50     0x7de0 build/us/src/goddard/dynlist_proc.o
                0x0000000080183a50                push_dynobj_stash
                0x0000000080183a80                pop_dynobj_stash
                0x0000000080183ab0                reset_dynlist
                0x0000000080183b20                proc_dynlist
                0x000000008018435c                d_copystr_to_idbuf
                0x0000000080184400                d_catstr_to_idbuf
                0x00000000801844a8                cpy_idbuf_to_backbuf
                0x00000000801844dc                cpy_backbuf_to_idbuf
                0x0000000080184510                get_dynobj_info
                0x0000000080184630                reset_dynamic_objs
                0x000000008018468c                d_add_net_with_subgroup
                0x0000000080184740                d_end_net_subgroup
                0x00000000801847ac                d_attach_joint_to_net
                0x0000000080184828                d_make_netfromshapeid
                0x00000000801848a0                d_make_netfromshape_ptrptr
                0x00000000801848e8                add_to_dynobj_list
                0x0000000080184b84                print_int_dynid
                0x0000000080184bf8                d_makeobj
                0x0000000080184efc                d_attach
                0x0000000080184fc4                d_attach_to
                0x000000008018536c                d_attachto_dynid
                0x0000000080185410                copy_bytes
                0x000000008018545c                alloc_animdata
                0x0000000080185a18                chk_shapegen
                0x00000000801861b0                d_set_nodegroup
                0x0000000080186350                d_set_matgroup
                0x0000000080186440                d_set_texture_st
                0x00000000801864dc                d_use_texture
                0x0000000080186588                d_set_skinshape
                0x000000008018666c                d_map_materials
                0x00000000801866f8                d_map_vertices
                0x0000000080186784                d_set_planegroup
                0x00000000801868a4                d_set_shapeptrptr
                0x0000000080186a60                d_set_shapeptr
                0x0000000080186bfc                d_use_obj
                0x0000000080186c84                set_cur_dynobj
                0x0000000080186cac                d_start_group
                0x0000000080186cdc                d_end_group
                0x0000000080186de0                d_addto_group
                0x0000000080186e5c                dynid_is_int
                0x0000000080186e74                d_set_init_pos
                0x000000008018710c                d_set_velocity
                0x0000000080187244                d_get_velocity
                0x000000008018739c                d_set_torque
                0x0000000080187480                d_get_init_pos
                0x0000000080187608                d_get_init_rot
                0x0000000080187794                d_set_rel_pos
                0x0000000080187ab0                d_addto_rel_pos
                0x0000000080187c80                d_get_rel_pos
                0x0000000080187e78                d_get_att_objgroup
                0x0000000080187f54                d_get_att_to_obj
                0x0000000080188030                d_get_scale
                0x00000000801881b8                d_set_att_offset
                0x000000008018837c                d_set_att_to_offset
                0x00000000801884d0                d_get_att_offset
                0x0000000080188624                d_get_att_flags
                0x0000000080188738                d_set_world_pos
                0x00000000801889a8                d_set_normal
                0x0000000080188ab0                d_get_world_pos_ptr
                0x0000000080188b7c                d_get_world_pos
                0x00000000801891f4                d_make_vertex
                0x0000000080189240                d_set_scale
                0x000000008018945c                d_set_rotation
                0x0000000080189584                d_center_of_gravity
                0x0000000080189660                d_set_shape_offset
                0x000000008018973c                d_add_valptr
                0x00000000801898d8                d_add_valproc
                0x0000000080189990                d_link_with_ptr
                0x0000000080189cd8                d_link_with
                0x0000000080189da8                d_set_flags
                0x0000000080189fb4                d_clear_flags
                0x000000008018a12c                d_set_parm_f
                0x000000008018a358                d_set_parm_ptr
                0x000000008018a530                d_set_obj_draw_flag
                0x000000008018a590                d_set_type
                0x000000008018a700                d_set_id
                0x000000008018a828                d_set_colour_num
                0x000000008018a9ec                d_set_material
                0x000000008018aa9c                d_friction
                0x000000008018ab78                d_set_spring
                0x000000008018ac24                d_set_ambient
                0x000000008018ad00                d_set_diffuse
                0x000000008018ae30                d_set_control_type
                0x000000008018aedc                d_get_plane
                0x000000008018afb0                d_get_matrix
                0x000000008018b0fc                d_set_matrix
                0x000000008018b210                d_set_rot_mtx
                0x000000008018b2e8                d_get_rot_mtx_ptr
                0x000000008018b3a4                d_set_idn_mtx
                0x000000008018b4d4                d_get_matrix_ptr
                0x000000008018b5e8                d_get_idn_mtx_ptr
                0x000000008018b6bc                d_calc_world_dist_btwn
                0x000000008018b758                d_set_skin_weight
 build/us/src/goddard/old_obj_fn.o(.text)
 .text          0x000000008018b830      0xac0 build/us/src/goddard/old_obj_fn.o
                0x000000008018b830                get_objvalue
                0x000000008018b8e8                Unknown8018B7A8
                0x000000008018b97c                Proc8018B83C
                0x000000008018b9d8                cat_grp_name_to_buf
                0x000000008018ba40                Unknown8018B900
                0x000000008018bb00                make_label
                0x000000008018bbc0                make_gadget
                0x000000008018bc9c                set_objvalue
                0x000000008018bd54                set_static_gdgt_value
                0x000000008018bdf8                func_8018BCB8
                0x000000008018be40                adjust_gadget
                0x000000008018c0f4                reset_gadget
                0x000000008018c2b0                reset_gadgets_in_grp
 build/us/src/goddard/profiler_utils.o(.text)
 .text          0x000000008018c2f0     0x2370 build/us/src/goddard/profiler_utils.o
                0x000000008018c2f0                new_memtracker
                0x000000008018c3a4                get_memtracker
                0x000000008018c44c                start_memtracker
                0x000000008018c550                print_most_recent_memtracker
                0x000000008018c598                stop_memtracker
                0x000000008018c704                remove_all_memtrackers
                0x000000008018c790                get_memtracker_by_id
                0x000000008018c7b4                print_all_memtrackers
                0x000000008018c86c                print_all_timers
                0x000000008018c920                deactivate_timing
                0x000000008018c938                activate_timing
                0x000000008018c954                remove_all_timers
                0x000000008018ca88                new_timer
                0x000000008018cb34                get_timer
                0x000000008018cbf4                get_timer_checked
                0x000000008018cc54                get_timernum
                0x000000008018ccc0                split_timer_ptr
                0x000000008018cd9c                split_all_timers
                0x000000008018ce0c                start_all_timers
                0x000000008018cea0                start_timer
                0x000000008018cf70                restart_timer
                0x000000008018d02c                split_timer
                0x000000008018d088                stop_timer
                0x000000008018d160                get_scaled_timer_total
                0x000000008018d1a8                get_timer_total
                0x000000008018d1f8                fatal_print
                0x000000008018d228                print_stack_trace
                0x000000008018d298                fatal_printf
                0x000000008018d560                add_to_stacktrace
                0x000000008018d5f0                imout
                0x000000008018d6a0                func_8018D560
                0x000000008018d7e8                gd_atoi
                0x000000008018d948                gd_lazy_atof
                0x000000008018d988                sprint_num_as_hex
                0x000000008018d9e8                sprint_num
                0x000000008018dae4                int_sci_notation
                0x000000008018db38                sprint_val_withspecifiers
                0x000000008018ddd8                gd_strcpy
                0x000000008018de1c                ascii_to_uppercase
                0x000000008018de9c                gd_strdup
                0x000000008018df18                gd_strlen
                0x000000008018df6c                gd_strcat
                0x000000008018dff0                gd_str_not_equal
                0x000000008018e098                gd_str_contains
                0x000000008018e128                gd_feof
                0x000000008018e14c                gd_set_feof
                0x000000008018e16c                gd_fopen
                0x000000008018e37c                gd_fread
                0x000000008018e4a8                gd_fclose
                0x000000008018e4c4                gd_get_file_size
                0x000000008018e4e0                is_newline
                0x000000008018e518                gd_fread_line
 build/us/src/goddard/joint_fns.o(.text)
 .text          0x000000008018e660     0x39f0 build/us/src/goddard/joint_fns.o
                0x000000008018e660                Proc8018E520
                0x000000008018ed28                Proc8018EBE8
                0x000000008018ef9c                Unknown8018EE5C
                0x000000008018f0b8                set_joint_vecs
                0x000000008018f188                make_joint
                0x000000008018f388                make_joint_withshape
                0x000000008018f468                func_8018F328
                0x000000008018f60c                Unknown8018F4CC
                0x000000008018f660                func_8018F520
                0x000000008018f9dc                func_8018F89C
                0x000000008018fba8                Unknown8018FA68
                0x000000008018fc08                set_skin_weight
                0x000000008018fc98                func_8018FB58
                0x000000008018fde4                add_joint2bone
                0x000000008018fedc                make_bone
                0x0000000080190054                Unknown8018FF14
                0x0000000080190068                Unknown8018FF28
                0x00000000801900c8                Unknown8018FF88
                0x0000000080190128                func_8018FFE8
                0x00000000801902a8                func_80190168
                0x0000000080190528                func_801903E8
                0x00000000801906b4                func_80190574
                0x0000000080190af4                func_801909B4
                0x0000000080190b60                Unknown80190A20
                0x0000000080190c94                func_80190B54
                0x0000000080190fa8                Unknown80190E68
                0x000000008019107c                func_80190F3C
                0x00000000801912e8                Unknown801911A8
                0x0000000080191360                Unknown80191220
                0x0000000080191500                Unknown801913C0
                0x0000000080191530                Unknown801913F0
                0x0000000080191638                Unknown801914F8
                0x000000008019164c                Unknown8019150C
                0x0000000080191744                func_80191604
                0x0000000080191964                Unknown80191824
                0x0000000080191a34                Unknown801918F4
                0x0000000080191b5c                Unknown80191A1C
                0x0000000080191d38                Unknown80191BF8
                0x0000000080191ea0                Unknown80191D60
                0x0000000080191f94                Unknown80191E54
                0x0000000080191fc8                func_80191E88
                0x0000000080192028                reset_joint_counts
 build/us/src/goddard/skin_fns.o(.text)
 .text          0x0000000080192050     0x1c20 build/us/src/goddard/skin_fns.o
                0x0000000080192050                func_80191F10
                0x0000000080192204                reset_net
                0x00000000801923d4                Unknown80192294
                0x000000008019243c                Unknown801922FC
                0x00000000801924f4                make_net
                0x0000000080192668                func_80192528
                0x00000000801927e4                func_801926A4
                0x0000000080192c10                Unknown80192AD0
                0x0000000080192d9c                move_bonesnet
                0x0000000080192e0c                func_80192CCC
                0x00000000801930d8                convert_gd_verts_to_Vn
                0x0000000080193424                convert_gd_verts_to_Vtx
                0x000000008019353c                convert_net_verts
                0x0000000080193610                func_801934D0
                0x00000000801936dc                move_net
                0x0000000080193804                move_nets
                0x000000008019387c                Unknown8019373C
                0x0000000080193988                func_80193848
                0x00000000801939fc                gd_print_net
                0x0000000080193c50                reset_net_count
 build/us/src/goddard/matrix_fns.o(.text)
 .text          0x0000000080193c70     0x3750 build/us/src/goddard/matrix_fns.o
                0x0000000080193c70                gd_sqrt_f
                0x0000000080193ca8                func_80193B68
                0x000000008019429c                func_8019415C
                0x0000000080194360                func_80194220
                0x0000000080194424                func_801942E4
                0x0000000080194498                func_80194358
                0x0000000080194868                func_80194728
                0x00000000801948b0                limit_vec3f
                0x00000000801949c0                func_80194880
                0x0000000080194acc                Unknown8019498C
                0x0000000080194b94                absrot_mat4
                0x0000000080194cd8                magnitude_vec3f
                0x0000000080194d34                into_unit_vec3f
                0x0000000080194e54                cross_product_vec3f
                0x0000000080194ef8                dot_product_vec3f
                0x0000000080194f3c                Unknown80194DFC
                0x0000000080194fbc                inverse_mat4
                0x00000000801950d0                func_80194F90
                0x00000000801956b8                func_80195578
                0x0000000080195984                func_80195844
                0x0000000080195a4c                func_8019590C
                0x0000000080195a90                Unknown80195950
                0x0000000080195b20                Unknown801959E0
                0x0000000080195c44                Unknown80195B04
                0x0000000080195db8                func_80195C78
                0x0000000080195ed8                Unknown80195D98
                0x0000000080196114                func_80195FD4
                0x0000000080196334                func_801961F4
                0x00000000801963c0                set_identity_mat4
                0x00000000801964a0                cpy_mat4
                0x0000000080196570                func_80196430
                0x0000000080196680                func_80196540
                0x0000000080196754                multiply_mat4
                0x00000000801970cc                gd_print_vec
                0x00000000801970e8                gd_print_plane
                0x0000000080197104                gd_print_mtx
                0x00000000801971a8                Unknown80197068
                0x0000000080197230                Unknown801970F0
 build/us/src/goddard/half_6.o(.text)
 .text          0x00000000801973c0     0x3ca0 build/us/src/goddard/half_6.o
                0x00000000801973c0                func_80197280
                0x0000000080197400                calc_face_normal
                0x000000008019764c                gd_make_vertex
                0x0000000080197764                make_face_with_colour
                0x0000000080197810                make_face_with_material
                0x000000008019787c                Unknown8019773C
                0x0000000080197904                add_3_vtx_to_face
                0x000000008019797c                make_shape
                0x0000000080197b14                clear_buf_to_cr
                0x0000000080197b44                get_current_buf_char
                0x0000000080197b70                get_and_advance_buf
                0x0000000080197bd4                load_next_line_into_buf
                0x0000000080197c54                is_line_end
                0x0000000080197c8c                is_white_space
                0x0000000080197cc4                scan_to_next_non_whitespace
                0x0000000080197db0                is_next_buf_word
                0x0000000080197e90                getfloat
                0x0000000080198028                getint
                0x00000000801981a8                Unknown80198068
                0x00000000801981bc                func_8019807C
                0x0000000080198228                func_801980E8
                0x0000000080198294                Unknown80198154
                0x00000000801982c4                Unknown80198184
                0x0000000080198330                scale_obj_position
                0x00000000801983f8                translate_obj_position
                0x000000008019848c                scale_verts_in_shape
                0x0000000080198514                translate_verts_in_shape
                0x0000000080198584                Unknown80198444
                0x0000000080198664                Unknown80198524
                0x0000000080198728                Unknown801985E8
                0x0000000080198844                get_3DG1_shape
                0x0000000080198d40                get_OBJ_shape
                0x00000000801990d0                group_faces_in_mtl_grp
                0x00000000801991f4                find_or_add_new_mtl
                0x0000000080199330                read_ARK_shape
                0x00000000801997a0                get_shape_from_file
                0x00000000801998e8                make_grid_shape
                0x0000000080199f84                Unknown80199E44
                0x0000000080199fc8                Unknown80199E88
                0x000000008019a024                make_netfromshape
                0x000000008019a0e0                animate_mario_head_gameover
                0x000000008019a1a8                animate_mario_head_normal
                0x000000008019a4b8                load_mario_head
                0x000000008019abf8                load_shapes2
                0x000000008019acd8                Unknown8019AB98
                0x000000008019af04                Unknown8019ADC4
                0x000000008019b004                Unknown8019AEC4
 build/us/src/goddard/mario_head_6.o(.text)
 .text          0x000000008019b060     0xc7d0 build/us/src/goddard/mario_head_6.o
                0x000000008019b060                get_alloc_mem_amt
                0x000000008019b080                gd_get_ostime
                0x000000008019b0b0                get_time_scale
                0x000000008019b0d0                dump_disp_list
                0x000000008019b158                next_gfx
                0x000000008019b1e4                next_light
                0x000000008019b278                next_mtx
                0x000000008019b304                next_vtx
                0x000000008019b390                next_vp
                0x000000008019b41c                gd_sin_d
                0x000000008019b45c                gd_cos_d
                0x000000008019b49c                gd_sqrt_d
                0x000000008019b514                Unknown8019B3D4
                0x000000008019b53c                gd_printf
                0x000000008019bb0c                gd_exit
                0x000000008019bb44                gd_free
                0x000000008019bb90                gd_allocblock
                0x000000008019bc88                gd_malloc
                0x000000008019bd58                gd_malloc_perm
                0x000000008019bd90                gd_malloc_temp
                0x000000008019bdc8                Unknown8019BC88
                0x000000008019be14                Unknown8019BCD4
                0x000000008019be4c                func_8019BD0C
                0x000000008019bf08                branch_cur_dl_to_num
                0x000000008019bf80                Unknown8019BE40
                0x000000008019bfb0                setup_stars
                0x000000008019c240                setup_timers
                0x000000008019c3b0                Unknown8019C270
                0x000000008019c3c8                Unknown8019C288
                0x000000008019c418                gd_add_to_heap
                0x000000008019c450                gdm_init
                0x000000008019c4ec                gdm_setup
                0x000000008019c588                Unknown8019C448
                0x000000008019c59c                print_gdm_stats
                0x000000008019c5f0                make_view_withgrp
                0x000000008019c684                gdm_maketestdl
                0x000000008019c828                set_time_scale
                0x000000008019c840                Unknown8019C840
                0x000000008019c874                gd_vblank
                0x000000008019c930                gd_copy_p1_contpad
                0x000000008019c9c8                gd_sfx_to_play
                0x000000008019c9f8                gdm_gettestdl
                0x000000008019cd88                gdm_getpos
                0x000000008019ce3c                bound_on_active_view
                0x000000008019cf18                fatal_no_dl_mem
                0x000000008019cf44                alloc_displaylist
                0x000000008019d01c                cpy_remaining_gddl
                0x000000008019d110                create_child_gdl
                0x000000008019d168                new_gd_dl
                0x000000008019d3b8                gd_init_RSP
                0x000000008019d42c                gd_init_RDP
                0x000000008019d4a0                gd_draw_rect
                0x000000008019d848                gd_draw_border_rect
                0x000000008019e438                gd_set_fill
                0x000000008019e724                gd_set_view_zbuf
                0x000000008019e780                gd_set_view_framebuf
                0x000000008019e89c                reset_cur_dl_indices
                0x000000008019e93c                reset_dlnum_indices
                0x000000008019e9b4                stash_current_gddl
                0x000000008019e9d4                pop_gddl_stash
                0x000000008019e9f4                gd_startdisplist
                0x000000008019eb44                gd_enddisplist
                0x000000008019ebac                gd_end_dl
                0x000000008019ed0c                Unknown8019EBCC
                0x000000008019ed48                new_gddl_from
                0x000000008019edc8                Unknown8019EC88
                0x000000008019ee34                mat4_to_Mtx
                0x000000008019efac                add_mat4_to_dl
                0x000000008019f054                add_mat4_load_to_dl
                0x000000008019f100                Unknown8019EFC0
                0x000000008019f16c                push_idn_mtx_cur_gddl
                0x000000008019f1d8                pop_mtx_gddl
                0x000000008019f224                translate_mtx_gddl
                0x000000008019f2dc                translate_load_mtx_gddl
                0x000000008019f398                func_8019F258
                0x000000008019f404                func_8019F2C4
                0x000000008019f458                func_8019F318
                0x000000008019fb18                check_tri_display
                0x000000008019fba0                make_Vtx_if_new
                0x00000000801a0030                func_8019FEF0
                0x00000000801a0094                add_tri_to_dl
                0x00000000801a0178                func_801A0038
                0x00000000801a01b0                func_801A0070
                0x00000000801a032c                func_801A01EC
                0x00000000801a039c                func_801A025C
                0x00000000801a03f8                func_801A02B8
                0x00000000801a0464                func_801A0324
                0x00000000801a047c                set_light_num
                0x00000000801a0494                create_mtl_gddl
                0x00000000801a0588                branch_to_gddl
                0x00000000801a05b8                func_801A0478
                0x00000000801a09ac                func_801A086C
                0x00000000801a1728                set_Vtx_norm_buf_1
                0x00000000801a1804                set_Vtx_norm_buf_2
                0x00000000801a18f0                set_gd_mtx_parameters
                0x00000000801a194c                func_801A180C
                0x00000000801a1b40                func_801A1A00
                0x00000000801a1c70                Unknown801A1B30
                0x00000000801a1fb0                Unknown801A1E70
                0x00000000801a2450                gd_set_one_cycle
                0x00000000801a24a0                Unknown801A2360
                0x00000000801a24b4                func_801A2374
                0x00000000801a24c8                func_801A2388
                0x00000000801a2588                start_view_dl
                0x00000000801a2984                parse_p1_controller
                0x00000000801a338c                Unknown801A324C
                0x00000000801a3434                Unknown801A32F4
                0x00000000801a3464                func_801A3324
                0x00000000801a34b0                func_801A3370
                0x00000000801a3538                Unknown801A33F8
                0x00000000801a35bc                Unknown801A347C
                0x00000000801a3620                border_active_view
                0x00000000801a36b4                gd_shading
                0x00000000801a371c                gd_getproperty
                0x00000000801a3788                gd_setproperty
                0x00000000801a3c20                stub_801A3AE0
                0x00000000801a3c30                func_801A3AF0
                0x00000000801a3dcc                func_801A3C8C
                0x00000000801a3f9c                setup_view_buffers
                0x00000000801a4468                gd_init_controllers
                0x00000000801a451c                Proc801A43DC
                0x00000000801a4530                func_801A43F0
                0x00000000801a4550                Proc801A4410
                0x00000000801a4564                Proc801A4424
                0x00000000801a4578                func_801A4438
                0x00000000801a45e0                gd_gentexture
                0x00000000801a4724                Unknown801A45E4
                0x00000000801a48f8                Unknown801A47B8
                0x00000000801a4924                stub_801A47DC
                0x00000000801a4934                Unknown801A47F4
                0x00000000801a4948                func_801A4808
                0x00000000801a4988                func_801A4848
                0x00000000801a49f4                func_801A48B4
                0x00000000801a4a04                func_801A48C4
                0x00000000801a4a18                func_801A48D8
                0x00000000801a4a30                set_active_view
                0x00000000801a4a48                stub_801A4908
                0x00000000801a4a58                func_801A4918
                0x00000000801a4c44                Unknown801A4B04
                0x00000000801a4d4c                update_cursor
                0x00000000801a5098                Unknown801A4F58
                0x00000000801a5250                Proc801A5110
                0x00000000801a52a8                update_view_and_dl
                0x00000000801a534c                func_801A520C
                0x00000000801a5484                Unknown801A5344
                0x00000000801a5538                gd_init
                0x00000000801a5a50                Unknown801A5910
                0x00000000801a5ad8                func_801A5998
                0x00000000801a5aec                func_801A59AC
                0x00000000801a5b00                func_801A59C0
                0x00000000801a5b14                init_pick_buf
                0x00000000801a5b44                store_in_pickbuf
                0x00000000801a5b8c                get_cur_pickbuf_offset
                0x00000000801a5bc0                Unknown801A5A80
                0x00000000801a5bd4                Unknown801A5A94
                0x00000000801a5be8                stub_801A5AA8
                0x00000000801a5bf8                Unknown801A5AB8
                0x00000000801a5c20                Unknown801A5AE0
                0x00000000801a5c98                set_Vtx_tc_buf
                0x00000000801a5d28                func_801A5BE8
                0x00000000801a5d64                cvrt_val_to_kb
                0x00000000801a5dc0                Unknown801A5C80
                0x00000000801a5ed0                Unknown801A5D90
                0x00000000801a6138                Unknown801A5FF8
                0x00000000801a6430                gd_put_sprite
                0x00000000801a676c                gd_setup_cursor
                0x00000000801a6904                view_proc_print_timers
                0x00000000801a6954                make_timer_gadgets
                0x00000000801a6f70                Unknown801A6E30
                0x00000000801a6f84                Unknown801A6E44
                0x00000000801a6f98                gd_block_dma
                0x00000000801a7074                load_dynlist
                0x00000000801a72f8                stub_801A71B8
                0x00000000801a730c                func_801A71CC
                0x00000000801a7820                stub_801A76E0
 build/us/src/game/level_select_menu.o(.data*)
 .data          0x00000000801a7830      0x410 build/us/src/game/level_select_menu.o
                0x00000000801a7830                gLevelSelect_StageNamesText
                0x00000000801a7c30                gDemoCountdown
                0x00000000801a7c34                D_U_801A7C34
                0x00000000801a7c38                gameOverNotPlayed
 build/us/src/game/level_select_menu.o(.rodata*)
 .rodata        0x00000000801a7c40       0x30 build/us/src/game/level_select_menu.o
 build/us/src/game/intro_geo.o(.data*)
 .data          0x00000000801a7c70       0xa0 build/us/src/game/intro_geo.o
                0x00000000801a7c70                introBackgroundDlRows
                0x00000000801a7c80                introBackgroundOffsetX
                0x00000000801a7cb0                introBackgroundOffsetY
                0x00000000801a7ce0                introBackgroundTextureType
                0x00000000801a7ce8                introBackgroundIndexTable
                0x00000000801a7cf4                introBackgroundTables
                0x00000000801a7cf8                gameOverBackgroundTable
                0x00000000801a7d04                gameOverBackgroundFlipOrder
 build/us/src/game/file_select.o(.data*)
 .data          0x00000000801a7d10      0x230 build/us/src/game/file_select.o
                0x00000000801a7d10                sSelectedButtonID
                0x00000000801a7d14                sCurrentMenuLevel
                0x00000000801a7d18                sTextBaseAlpha
                0x00000000801a7d1c                sCursorPos
                0x00000000801a7d24                sCursorClickingTimer
                0x00000000801a7d28                sClickPos
                0x00000000801a7d2c                sSelectedFile
                0x00000000801a7d30                sFadeOutText
                0x00000000801a7d34                sStatusMessageId
                0x00000000801a7d38                sTextTransparency
                0x00000000801a7d3c                sMainMenuTimer
                0x00000000801a7d40                sSoundMode
                0x00000000801a7d44                D_801A7C04
                0x00000000801a7d48                sAllFilesExist
                0x00000000801a7d4c                D_801A7C0C
                0x00000000801a7d50                sScoreFileCoinScoreMode
                0x00000000801a7d54                textReturn
                0x00000000801a7d5c                textViewScore
                0x00000000801a7d68                textCopyFileButton
                0x00000000801a7d74                textEraseFileButton
                0x00000000801a7d80                textSoundModes
                0x00000000801a7d98                textMarioA
                0x00000000801a7da0                textMarioB
                0x00000000801a7da8                textMarioC
                0x00000000801a7db0                textMarioD
                0x00000000801a7db8                textNew
                0x00000000801a7dbc                starIcon
                0x00000000801a7dc0                xIcon
                0x00000000801a7dc4                textSelectFile
                0x00000000801a7dd0                textScore
                0x00000000801a7dd8                textCopy
                0x00000000801a7de0                textErase
                0x00000000801a7de8                textCheckFile
                0x00000000801a7df4                textNoSavedDataExists
                0x00000000801a7e0c                textCopyFile
                0x00000000801a7e18                textCopyItToWhere
                0x00000000801a7e2c                textNoSavedDataExists2
                0x00000000801a7e44                textCopyFinished
                0x00000000801a7e58                textSavedDataExists
                0x00000000801a7e6c                textNoFileToCopyFrom
                0x00000000801a7e7c                textYes
                0x00000000801a7e80                textNo
                0x00000000801a7ee8                textStarX
 build/us/src/game/file_select.o(.rodata*)
 .rodata        0x00000000801a7f40      0x260 build/us/src/game/file_select.o
 build/us/src/game/star_select.o(.data*)
 .data          0x00000000801a81a0       0x20 build/us/src/game/star_select.o
                0x00000000801a81a0                sSelectedAct
                0x00000000801a81a4                sSelectedStarIndex
                0x00000000801a81a8                sActSelectorMenuTimer
 build/us/src/game/star_select.o(.rodata*)
 .rodata        0x00000000801a81c0       0x20 build/us/src/game/star_select.o
 build/us/src/goddard/gd_main.o(.data*)
 .data          0x00000000801a81e0       0x20 build/us/src/goddard/gd_main.o
                0x00000000801a81e0                gGdMoveScene
                0x00000000801a81e4                sUnref801A8054
                0x00000000801a81e8                D_801A8058
                0x00000000801a81ec                gGdUseVtxNormal
                0x00000000801a81f0                sUnrefScnWidth
                0x00000000801a81f4                sUnrefScnHeight
 build/us/src/goddard/draw_objects.o(.data*)
 .data          0x00000000801a8200      0x150 build/us/src/goddard/draw_objects.o
                0x00000000801a8200                sClrWhite
                0x00000000801a820c                sClrRed
                0x00000000801a8218                sClrGreen
                0x00000000801a8224                sClrBlue
                0x00000000801a8230                sClrErrDarkBlue
                0x00000000801a823c                sClrPink
                0x00000000801a8248                sClrBlack
                0x00000000801a8254                sClrGrey
                0x00000000801a8260                sClrDarkGrey
                0x00000000801a826c                sClrYellow
                0x00000000801a8278                sLightColours
                0x00000000801a8284                sSelectedColour
                0x00000000801a8288                gViewUpdateCamera
                0x00000000801a828c                sUnref801A80FC
                0x00000000801a8290                sUnreadShapeFlag
                0x00000000801a8294                sColourPalette
                0x00000000801a82a8                sWhiteBlack
                0x00000000801a82b0                sUnref801A8120
                0x00000000801a82f0                sUnrefIden801A8160
                0x00000000801a8330                sLightDlCounter
                0x00000000801a8334                sUnref801A81A4
 build/us/src/goddard/mario_head_1.o(.data*)
 .data          0x00000000801a8350       0x10 build/us/src/goddard/mario_head_1.o
                0x00000000801a8350                D_801A81C0
                0x00000000801a8354                D_801A81C4
 build/us/src/goddard/mario_head_3.o(.data*)
 .data          0x00000000801a8360       0x80 build/us/src/goddard/mario_head_3.o
                0x00000000801a8360                sUnused801A81D0
                0x00000000801a8364                D_801A81D4
                0x00000000801a83c8                D_801A8238
 build/us/src/goddard/dynlist_proc.o(.data*)
 .data          0x00000000801a83e0       0x30 build/us/src/goddard/dynlist_proc.o
                0x00000000801a83e0                sGdDynObjList
                0x00000000801a83e4                sDynListCurObj
                0x00000000801a83e8                sGdNullPlaneF
                0x00000000801a8400                sGdDynObjIdIsInt
 build/us/src/goddard/profiler_utils.o(.data*)
 .data          0x00000000801a8410       0x50 build/us/src/goddard/profiler_utils.o
                0x00000000801a8410                sNumRoutinesInStack
                0x00000000801a8414                D_801A8284
                0x00000000801a8430                sNumActiveMemTrackers
                0x00000000801a8434                sPrimarySeed
                0x00000000801a8438                sSecondarySeed
                0x00000000801a843c                sHexNumerals
                0x00000000801a8450                sPadNumPrint
 build/us/src/goddard/joint_fns.o(.data*)
 .data          0x00000000801a8460       0x10 build/us/src/goddard/joint_fns.o
                0x00000000801a8460                D_801A82D0
                0x00000000801a8464                gGdTempBone
 build/us/src/goddard/half_6.o(.data*)
 .data          0x00000000801a8470      0x390 build/us/src/goddard/half_6.o
                0x00000000801a8470                gMarioFaceGrp
                0x00000000801a8474                D_801A82E4
                0x00000000801a8478                D_801A82E8
                0x00000000801a847c                gShapeSilSpark
                0x00000000801a8480                gShapeRedSpark
                0x00000000801a8484                gShapeRedStar
                0x00000000801a8488                gShapeSilverStar
                0x00000000801a848c                sUnref801A82FC
                0x00000000801a84bc                sUnref801A832C
                0x00000000801a84ec                sUnref801A835C
                0x00000000801a851c                sUnref801A838C
                0x00000000801a8534                D_801A83A4
                0x00000000801a8538                sUnref801A83A8
                0x00000000801a85b4                sSimpleDylist
                0x00000000801a8674                sDynlist801A84E4
                0x00000000801a86bc                sDynlist801A85B3
                0x00000000801a8734                sDynlist801A85A4
                0x00000000801a8794                sDynlist801A8604
                0x00000000801a87f8                D_801A8668
 build/us/src/goddard/mario_head_6.o(.data*)
 .data          0x00000000801a8800       0xc0 build/us/src/goddard/mario_head_6.o
                0x00000000801a8800                unref_801a8670
                0x00000000801a8804                D_801A8674
                0x00000000801a8808                unref_801a8678
                0x00000000801a880c                D_801A867C
                0x00000000801a8810                D_801A8680
                0x00000000801a8814                sTracked1FrameTime
                0x00000000801a8818                sDynamicsTime
                0x00000000801a881c                sDLGenTime
                0x00000000801a8820                sRCPTime
                0x00000000801a8824                sTimeScaleFactor
                0x00000000801a8828                sMemBlockPoolSize
                0x00000000801a882c                sMemBlockPoolUsed
                0x00000000801a8830                D_801A86A0
                0x00000000801a8834                D_801A86A4
                0x00000000801a8838                D_801A86A8
                0x00000000801a883c                D_801A86AC
                0x00000000801a8840                gGdFrameBuf
                0x00000000801a8844                unref_801a86B4
                0x00000000801a8848                sHandShape
                0x00000000801a884c                D_801A86BC
                0x00000000801a8850                D_801A86C0
                0x00000000801a8854                unref_801a86C4
                0x00000000801a8858                sMtxParameters
                0x00000000801a885c                D_801A86CC
                0x00000000801a8868                sActiveView
                0x00000000801a886c                sScreenView2
                0x00000000801a8870                D_801A86E0
                0x00000000801a8874                sHandView
                0x00000000801a8878                sMenuView
                0x00000000801a887c                sItemsInMenu
                0x00000000801a8880                D_801A86F0
                0x00000000801a8884                sNewZPresses
                0x00000000801a8888                unref_801a86F8
                0x00000000801a888c                sCurrentGdDl
                0x00000000801a8890                sGdDlCount
                0x00000000801a8894                sDynLists
                0x00000000801a88b8                strayDlEndCmd
 build/us/data/goddard_tex_dl.o(.rodata*)
 .rodata        0x00000000801a88c0     0xcbf8 build/us/data/goddard_tex_dl.o
                0x00000000801a88c0                textureHandOpen
                0x00000000801a90c8                textureHandClosed
                0x00000000801b1b48                redStarDlArray
                0x00000000801b1b88                silverStarDlArray
                0x00000000801b4e28                redSparkleDlArray
                0x00000000801b4e58                silverSparkleDlArray
                0x00000000801b5290                marioHeadDl801B5100
                0x00000000801b5300                marioHeadDl801B5170
                0x00000000801b5318                marioHeadDl801B5188
                0x00000000801b539c                D_801B520C
                0x00000000801b5418                dl_801B5288
                0x00000000801b5468                marioHeadDl801B52D8
 build/us/src/goddard/gd_main.o(.rodata*)
 *fill*         0x00000000801b54b8        0x8 
 .rodata        0x00000000801b54c0       0x40 build/us/src/goddard/gd_main.o
 build/us/src/goddard/gd_memory.o(.rodata*)
 .rodata        0x00000000801b5500      0x110 build/us/src/goddard/gd_memory.o
 build/us/src/goddard/draw_objects.o(.rodata*)
 .rodata        0x00000000801b5610      0x310 build/us/src/goddard/draw_objects.o
 build/us/src/goddard/mario_head_1.o(.rodata*)
 .rodata        0x00000000801b5920      0x5c0 build/us/src/goddard/mario_head_1.o
 build/us/src/goddard/mario_head_2.o(.rodata*)
 .rodata        0x00000000801b5ee0       0x60 build/us/src/goddard/mario_head_2.o
 build/us/src/goddard/mario_head_3.o(.rodata*)
 .rodata        0x00000000801b5f40       0xa0 build/us/src/goddard/mario_head_3.o
 build/us/src/goddard/dynlist_proc.o(.rodata*)
 .rodata        0x00000000801b5fe0     0x2150 build/us/src/goddard/dynlist_proc.o
 build/us/src/goddard/old_obj_fn.o(.rodata*)
 .rodata        0x00000000801b8130      0x1c0 build/us/src/goddard/old_obj_fn.o
 build/us/src/goddard/profiler_utils.o(.rodata*)
 .rodata        0x00000000801b82f0      0x2c0 build/us/src/goddard/profiler_utils.o
 build/us/src/goddard/joint_fns.o(.rodata*)
 .rodata        0x00000000801b85b0      0x180 build/us/src/goddard/joint_fns.o
 build/us/src/goddard/skin_fns.o(.rodata*)
 .rodata        0x00000000801b8730      0x240 build/us/src/goddard/skin_fns.o
 build/us/src/goddard/matrix_fns.o(.rodata*)
 .rodata        0x00000000801b8970       0xf0 build/us/src/goddard/matrix_fns.o
 build/us/src/goddard/half_6.o(.rodata*)
 .rodata        0x00000000801b8a60      0x3d0 build/us/src/goddard/half_6.o
 build/us/src/goddard/mario_head_6.o(.rodata*)
 .rodata        0x00000000801b8e30      0xbb0 build/us/src/goddard/mario_head_6.o
                0x00000000801b99e0                _goddardSegmentEnd = (ADDR (.goddard) + SIZEOF (.goddard))
                0x00000000008170a0                _goddardSegmentRomEnd = (__romPos + SIZEOF (.goddard))
                [0x00000000007cc6c0]                __romPos = (__romPos + SIZEOF (.goddard))
                0x00000000801b99e0                _goddardSegmentNoloadStart = ADDR (.goddard.noload)

.goddard.noload
                0x00000000801b99e0     0x5150 load address 0x0000000000269ea0
 build/us/src/game/intro_geo.o(.bss*)
 .bss           0x00000000801b99e0       0x10 build/us/src/game/intro_geo.o
                0x00000000801b99e0                gGameOverFrameCounter
                0x00000000801b99e4                gGameOverTableIndex
                0x00000000801b99e8                gTitleZoomCounter
                0x00000000801b99ec                gTitleFadeCounter
 build/us/src/game/file_select.o(.bss*)
 .bss           0x00000000801b99f0       0x90 build/us/src/game/file_select.o
                0x00000000801b99f0                sSoundTextX
                0x00000000801b99f8                sMainMenuButtons
                0x00000000801b9a78                sYesNoColor
 build/us/src/game/star_select.o(.bss*)
 .bss           0x00000000801b9a80       0x30 build/us/src/game/star_select.o
                0x00000000801b9a80                sStarSelectIcons
                0x00000000801b9aa0                sCurrentMission
                0x00000000801b9aa1                sObtainedStars
                0x00000000801b9aa2                sVisibleStars
                0x00000000801b9aa3                sDefaultSelectedAct
 build/us/src/goddard/gd_main.o(.bss*)
 .bss           0x00000000801b9ab0      0x1f0 build/us/src/goddard/gd_main.o
                0x00000000801b9ab0                gGdCtrl
                0x00000000801b9ba8                gGdCtrlPrev
 build/us/src/goddard/gd_memory.o(.bss*)
 .bss           0x00000000801b9ca0       0x10 build/us/src/goddard/gd_memory.o
                0x00000000801b9ca0                sFreeBlockListHead
                0x00000000801b9ca4                sUsedBlockListHead
                0x00000000801b9ca8                sEmptyBlockListHead
 build/us/src/goddard/mhead_sfx.o(.bss*)
 .bss           0x00000000801b9cb0       0x10 build/us/src/goddard/mhead_sfx.o
                0x00000000801b9cb0                sSfxToPlay
                0x00000000801b9cb4                sLastPlayedSfx
 build/us/src/goddard/draw_objects.o(.bss*)
 .bss           0x00000000801b9cc0      0x270 build/us/src/goddard/draw_objects.o
                0x00000000801b9cc0                gUnref_801B9B30
                0x00000000801b9d48                gGdLightGroup
                0x00000000801b9d50                sUnref_801B9BBC
                0x00000000801b9d90                sSceneProcessType
                0x00000000801b9d94                sUseSelectedColor
                0x00000000801b9d98                sPickBuffer
                0x00000000801b9e60                sPickDataTemp
                0x00000000801b9e64                sPickObjDistance
                0x00000000801b9e68                sPickedObject
                0x00000000801b9e70                sUpdateViewState
                0x00000000801b9e88                sPhongLight
                0x00000000801b9e90                sPhongLightPosition
                0x00000000801b9ea0                sLightPositionOffset
                0x00000000801b9eb0                sLightPositionCache
                0x00000000801b9f10                sNumActiveLights
                0x00000000801b9f18                sGrabCords
 build/us/src/goddard/mario_head_1.o(.bss*)
 .bss           0x00000000801b9f30      0x100 build/us/src/goddard/mario_head_1.o
                0x00000000801b9f30                D_801B9DA0
                0x00000000801b9f48                sCurrentMoveCamera
                0x00000000801b9f4c                sCurrentMoveView
                0x00000000801b9f50                gGdCounter
                0x00000000801b9f58                D_801B9DC8
                0x00000000801b9f98                D_801B9E08
                0x00000000801b9fa4                sCurrentMoveGrp
                0x00000000801b9fa8                D_801B9E18
                0x00000000801b9fb8                D_801B9E28
                0x00000000801b9fc4                D_801B9E34
                0x00000000801b9fc8                D_801B9E38
                0x00000000801b9fcc                D_801B9E3C
                0x00000000801b9fd0                D_801B9E40
                0x00000000801b9fd4                D_801B9E44
                0x00000000801b9fd8                D_801B9E48
                0x00000000801b9fdc                gGdCameraList
                0x00000000801b9fe0                D_801B9E50
                0x00000000801b9fe4                gGdGroupList
                0x00000000801b9fe8                gGdObjCount
                0x00000000801b9fec                gGdGroupCount
                0x00000000801b9ff0                gGdPlaneCount
                0x00000000801b9ff4                gGdCameraCount
                0x00000000801b9ff8                sGdViewInfo
                0x00000000801ba010                D_801B9E80
                0x00000000801ba014                gGdJointList
                0x00000000801ba018                gGdBoneList
                0x00000000801ba01c                gGdObjectList
                0x00000000801ba020                gGdViewsGroup
 build/us/src/goddard/mario_head_2.o(.bss*)
 .bss           0x00000000801ba030       0x50 build/us/src/goddard/mario_head_2.o
                0x00000000801ba030                sSkinNetCurWeight
                0x00000000801ba038                D_801B9EA8
                0x00000000801ba078                D_801B9EE8
 build/us/src/goddard/mario_head_3.o(.bss*)
 .bss           0x00000000801ba080       0x10 build/us/src/goddard/mario_head_3.o
                0x00000000801ba080                D_801B9EF0
 build/us/src/goddard/dynlist_proc.o(.bss*)
 .bss           0x00000000801ba090      0x170 build/us/src/goddard/dynlist_proc.o
                0x00000000801ba090                sIntDynIdBuffer
                0x00000000801ba098                sNullDynObjInfo
                0x00000000801ba0b0                sDynIdBuf
                0x00000000801ba0b8                sUnnamedObjCount
                0x00000000801ba0bc                sLoadedDynObjs
                0x00000000801ba0c0                sDynListCurInfo
                0x00000000801ba0c4                sParentNetInfo
                0x00000000801ba0c8                sStashedDynObjInfo
                0x00000000801ba0cc                sStashedDynObj
                0x00000000801ba0d0                sDynNetCount
                0x00000000801ba0d8                sDynNetIdBuf
                0x00000000801ba0f8                sBackBuf
 build/us/src/goddard/old_obj_fn.o(.bss*)
 .bss           0x00000000801ba200      0x120 build/us/src/goddard/old_obj_fn.o
                0x00000000801ba200                sMenuStrBuf
                0x00000000801ba300                sStaticVec
                0x00000000801ba310                unusedVec
                0x00000000801ba31c                sCurGadgetPtr
 build/us/src/goddard/profiler_utils.o(.bss*)
 .bss           0x00000000801ba320      0x7d0 build/us/src/goddard/profiler_utils.o
                0x00000000801ba320                gGdStreamBuffer
                0x00000000801ba328                sRoutineNames
                0x00000000801ba428                sTimingActive
                0x00000000801ba430                sTimers
                0x00000000801ba8b0                sMemTrackers
                0x00000000801baab0                sActiveMemTrackers
 build/us/src/goddard/joint_fns.o(.bss*)
 .bss           0x00000000801baaf0      0x190 build/us/src/goddard/joint_fns.o
                0x00000000801baaf0                sTargetWeightID
                0x00000000801baaf4                D_801BA964
                0x00000000801baaf8                D_801BA968
                0x00000000801bab04                sJointCount
                0x00000000801bab08                sJointNotF1Count
                0x00000000801bab0c                sBoneCount
                0x00000000801bab10                sJointArrLen
                0x00000000801bab18                sJointArr
                0x00000000801bab40                sJointArrVecs
                0x00000000801babb8                sJointArr2Len
                0x00000000801babc0                sJointArr2
                0x00000000801babe8                sJointArr2Vecs
                0x00000000801bac60                D_801BAAD0
                0x00000000801bac70                D_801BAAE0
 build/us/src/goddard/skin_fns.o(.bss*)
 .bss           0x00000000801bac80       0x10 build/us/src/goddard/skin_fns.o
                0x00000000801bac80                gGdSkinNet
                0x00000000801bac84                D_801BAAF4
                0x00000000801bac88                sNetCount
 build/us/src/goddard/half_6.o(.bss*)
 .bss           0x00000000801bac90      0x360 build/us/src/goddard/half_6.o
                0x00000000801bac90                sUnrefSpaceB00
                0x00000000801bacbc                sCubeShapeGroup
                0x00000000801bacc0                sUnrefSpaceB30
                0x00000000801baccc                sCubeShape
                0x00000000801bacd0                sUnrefSpaceB40
                0x00000000801bacd8                sGdLineBuf
                0x00000000801badd8                sGdLineBufCsr
                0x00000000801baddc                sGdShapeFile
                0x00000000801bade0                sGdShapeListHead
                0x00000000801bade4                sGdShapeCount
                0x00000000801bade8                sUnrefSpaceC58
                0x00000000801badf0                D_801BAC60
                0x00000000801badfc                sUnrefSpaceC6C
                0x00000000801bae00                sUnrefSpaceC70
                0x00000000801bae04                D_801BAC74
                0x00000000801bae08                D_801BAC78
                0x00000000801bae10                sUnrefSpaceC80
                0x00000000801bae2c                D_801BAC9C
                0x00000000801bae30                D_801BACA0
                0x00000000801bae38                sUnrefSpaceCA8
                0x00000000801bae48                sVertexScaleFactor
                0x00000000801bae58                sVertexTranslateOffset
                0x00000000801bae68                sUnrefSpaceCD8
                0x00000000801bae98                D_801BAD08
                0x00000000801baea0                sUnrefSpaceD10
                0x00000000801baec0                D_801BAD30
                0x00000000801baed0                sUnrefSpaceD40
 build/us/src/goddard/mario_head_6.o(.bss*)
 .bss           0x00000000801baff0     0x3b40 build/us/src/goddard/mario_head_6.o
                0x00000000801baff0                D_801BAE60
                0x00000000801bb000                sGdContPads
                0x00000000801bb018                sPrevFrameCont
                0x00000000801bb030                D_801BAEA0
                0x00000000801bb038                sTimerGadgets
                0x00000000801bb0b8                D_801BAF28
                0x00000000801bb0c0                D_801BAF30
                0x00000000801bb190                unref_801bb000
                0x00000000801bb19c                sMemBlockPoolBase
                0x00000000801bb1a0                sAllocMemory
                0x00000000801bb1a4                unref_801bb014
                0x00000000801bb1a8                D_801BB018
                0x00000000801bb1ac                D_801BB01C
                0x00000000801bb1b0                D_801BB020
                0x00000000801bb1f0                D_801BB060
                0x00000000801bb230                sVtxCvrtTCBuf
                0x00000000801bb234                sCarGdDlNum
                0x00000000801bb238                sYoshiSceneGrp
                0x00000000801bb23c                D_801BB0AC
                0x00000000801bb240                sMarioSceneGrp
                0x00000000801bb244                D_801BB0B4
                0x00000000801bb248                sCarSceneGrp
                0x00000000801bb24c                D_801BB0BC
                0x00000000801bb250                sYoshiSceneView
                0x00000000801bb254                D_801BB0C4
                0x00000000801bb258                sMSceneView
                0x00000000801bb25c                D_801BB0CC
                0x00000000801bb260                sCarSceneView
                0x00000000801bb264                sUpdateYoshiScene
                0x00000000801bb268                sUpdateMarioScene
                0x00000000801bb26c                unref_801bb0dc
                0x00000000801bb270                sUpdateCarScene
                0x00000000801bb274                unref_801bb0e4
                0x00000000801bb278                D_801BB0E8
                0x00000000801bb288                unref_801bb0f8
                0x00000000801bb290                sIdnMtx
                0x00000000801bb2d0                sInitIdnMat4
                0x00000000801bb310                sVtxCvrtNormBuf
                0x00000000801bb314                D_801BB184
                0x00000000801bb318                D_801BB188
                0x00000000801bb320                sAmbScaleColour
                0x00000000801bb330                sLightScaleColours
                0x00000000801bb348                D_801BB1B8
                0x00000000801bb360                D_801BB1D0
                0x00000000801bb368                D_801BB1D8
                0x00000000801bd8e8                D_801BD758
                0x00000000801bd8f8                D_801BD768
                0x00000000801bd904                D_801BD774
                0x00000000801bd908                sMenuGadgets
                0x00000000801bd930                D_801BD7A0
                0x00000000801bd938                sStaticDl
                0x00000000801bd940                sDynDlSet1
                0x00000000801bd948                sGdDlStash
                0x00000000801bd950                sMHeadMainDls
                0x00000000801bd958                D_801BD7C8
                0x00000000801bd970                sGdDLArray
                0x00000000801be910                sPickBufLen
                0x00000000801be914                sPickBufPosition
                0x00000000801be918                sPickBuf
                0x00000000801be920                D_801BE790
                0x00000000801be960                D_801BE7D0
                0x00000000801be9c0                D_801BE830
                0x00000000801be9d8                D_801BE848
                0x00000000801bea00                unref_801be870
                0x00000000801bea40                D_801BE8B0
                0x00000000801bea58                sGdDMAQueue
                0x00000000801bea70                unref_801be8e0
                0x00000000801bead4                sGdMesgBuf
                0x00000000801bead8                unref_801be948
                0x00000000801beb0c                D_801BE97C
                0x00000000801beb10                D_801BE980
                0x00000000801beb24                D_801BE994
                0x00000000801beb30                _goddardSegmentNoloadEnd = (ADDR (.goddard.noload) + SIZEOF (.goddard.noload))
                0x0000000000000001                ASSERT ((. <= 0x801c1000), Error: extended past pool end.)
                0x00000000801c1000                . = 0x801c1000
                0x00000000801c1000                _stackSegmentNoloadStart = ADDR (.stack.noload)

.stack.noload   0x00000000801c1000    0x85000
 build/us/data/stack.o(.stack)
 .stack         0x00000000801c1000    0x85000 build/us/data/stack.o
                0x00000000801c1000                gDecompressionHeap
                0x00000000801ce000                gAudioHeap
                0x0000000080200600                gIdleThreadStack
                0x0000000080200e00                gThread3Stack
                0x0000000080202e00                gThread4Stack
                0x0000000080204e00                gThread5Stack
                0x0000000080206e00                gGfxSPTaskYieldBuffer
                0x0000000080207700                gSaveBuffer
                0x0000000080207900                gGfxSPTaskStack
                0x0000000080207d00                gGfxPools
                0x0000000080220da0                D_802211A0
                0x0000000080220db0                D_802211B0
                0x0000000080220ea0                D_802212A0
                0x0000000080220ea2                D_802212A2
                0x0000000080220ea3                D_802212A3
                0x0000000080220ea8                D_802212A8
                0x0000000080220eb8                D_802212B8
                0x0000000080220ec8                D_802212C8
                0x0000000080220ef8                D_802212F8
                0x0000000080220f08                D_80221308
                0x0000000080220f18                D_80221318
                0x0000000080220f28                D_80221328
                0x00000000802210f8                D_802214F8
                0x00000000802212c8                D_802216C8
                0x0000000080221498                D_80221898
                0x00000000802214a8                D_802218A8
                0x00000000802214b0                D_802218B0
                0x00000000802214c0                D_802218C0
                0x00000000802214d0                D_802218D0
                0x0000000080221510                D_80221910
                0x0000000080221610                D_80221A10
                0x0000000080222610                D_80222A10
                0x0000000080222618                D_80222A18
                0x00000000802229d8                D_80222DD8
                0x00000000802241d8                D_802245D8
                0x0000000080225bd8                D_80225DD8
                0x0000000080225c98                D_80225E98
                0x0000000080225ca8                D_80225EA8
                0x0000000080225ce8                D_80225EE8
                0x0000000080225d00                D_80225F00
                0x0000000080225e00                D_80226000
                0x0000000080226300                D_80226500
                0x0000000080226318                D_80226518
                0x0000000080226320                D_80226520
                0x0000000080226338                D_80226538
                0x0000000080226938                D_80226B38
                0x000000008022693c                D_80226B3C
                0x0000000080226940                D_80226B40
                0x0000000080226948                D_80226B48
                0x0000000080226a48                D_80226C48
                0x0000000080226b48                D_80226D48
                0x0000000080226b49                D_80226D49
                0x0000000080226b4a                D_80226D4A
                0x0000000080226b4b                D_80226D4B
                0x0000000080226b4c                D_80226D4C
                0x0000000080226b50                D_80226D50
                0x0000000080226b54                D_80226D54
                0x0000000080226b58                D_80226D58
                0x0000000080226b5c                D_80226D5C
                0x0000000080226b60                D_80226D60
                0x0000000080226b64                D_80226D64
                0x0000000080226b68                D_80226D68
                0x0000000080226b6c                D_80226D6C
                0x0000000080226b70                D_80226D70
                0x0000000080226b74                D_80226D74
                0x0000000080226b78                D_80226D78
                0x0000000080226b7c                D_80226D7C
                0x0000000080226b7e                D_80226D7E
                0x0000000080226b7f                D_80226D7F
                0x0000000080226b80                D_80226D80
                0x0000000080226b84                D_80226D84
                0x0000000080226b88                D_80226D88
                0x0000000080226b8c                D_80226D8C
                0x0000000080226b90                D_80226D90
                0x0000000080226b98                D_80226D98
                0x0000000080226b9c                D_80226D9C
                0x0000000080226ba0                D_80226DA0
                0x0000000080226c40                D_80226E40
                0x0000000080226c4c                D_80226E4C
                0x0000000080226c52                D_80226E52
                0x0000000080226c58                D_80226E58
                0x0000000080226c98                D_80226E98
                0x0000000080226cb8                D_80226EB8
                0x0000000080226cc0                D_80226EC0
                0x0000000080227000                gGfxSPTaskOutputBuffer
                0x0000000080246000                _stackSegmentNoloadEnd = (ADDR (.stack.noload) + SIZEOF (.stack.noload))
                0x0000000000000001                ASSERT ((. <= 0x80246000), Error: stack segment extended into main.)
                0x0000000014000000                _introSegmentStart = ADDR (.intro)
                0x00000000007cc6c0                _introSegmentRomStart = __romPos

.intro          0x0000000014000000      0x500 load address 0x0000000000269ea0
 build/us/bin/intro/header.o(.level)
 .level         0x0000000014000000      0x500 build/us/bin/intro/header.o
                0x0000000014000000                level_intro_entry_1
                0x0000000014000078                level_intro_entry_2
                0x0000000014000104                level_intro_entry_3
                0x0000000014000190                level_intro_entry_4
                0x00000000140002d0                intro_geo_0002D0
                0x000000001400035c                intro_geo_00035C
                0x00000000140003b8                intro_geo_0003B8
                0x0000000014000414                intro_geo_000414
                0x0000000014000500                _introSegmentEnd = (ADDR (.intro) + SIZEOF (.intro))
                0x00000000007ccbc0                _introSegmentRomEnd = (__romPos + SIZEOF (.intro))
                [0x00000000007cc6c0]                __romPos = (__romPos + SIZEOF (.intro))
                0x0000000007000000                _intro_segment_7SegmentStart = ADDR (.intro_segment_7)
                0x00000000007cc6c0                _intro_segment_7SegmentRomStart = __romPos

.intro_segment_7
                0x0000000007000000     0x5080 load address 0x000000000026a3a0
 build/us/bin/intro/header.o(.seg07)
 .seg07         0x0000000007000000     0x5080 build/us/bin/intro/header.o
                0x0000000007005080                _intro_segment_7SegmentEnd = (ADDR (.intro_segment_7) + SIZEOF (.intro_segment_7))
                0x00000000007d1740                _intro_segment_7SegmentRomEnd = (__romPos + SIZEOF (.intro_segment_7))
                [0x00000000007cc6c0]                __romPos = (__romPos + SIZEOF (.intro_segment_7))
                0x0000000007000000                _debug_level_select_mio0SegmentStart = ADDR (.debug_level_select_mio0)
                0x00000000007cc6c0                _debug_level_select_mio0SegmentRomStart = __romPos

.debug_level_select_mio0
                0x0000000007000000     0x14a0 load address 0x000000000026f420
 build/us/mio0/debug_level_select.mio0.o(.data)
 .data          0x0000000007000000     0x14a0 build/us/mio0/debug_level_select.mio0.o
                0x00000000070014a0                . = ALIGN (0x10)
                0x00000000070014a0                _debug_level_select_mio0SegmentEnd = (ADDR (.debug_level_select_mio0) + SIZEOF (.debug_level_select_mio0))
                0x00000000007cdb60                _debug_level_select_mio0SegmentRomEnd = (__romPos + SIZEOF (.debug_level_select_mio0))
                [0x00000000007cc6c0]                __romPos = (__romPos + SIZEOF (.debug_level_select_mio0))
                0x000000000a000000                _title_screen_bg_mio0SegmentStart = ADDR (.title_screen_bg_mio0)
                0x00000000007cc6c0                _title_screen_bg_mio0SegmentRomStart = __romPos

.title_screen_bg_mio0
                0x000000000a000000     0x30e0 load address 0x00000000002708c0
 build/us/mio0/title_screen_bg.mio0.o(.data)
 .data          0x000000000a000000     0x30e0 build/us/mio0/title_screen_bg.mio0.o
                0x000000000a0030e0                . = ALIGN (0x10)
                0x000000000a0030e0                _title_screen_bg_mio0SegmentEnd = (ADDR (.title_screen_bg_mio0) + SIZEOF (.title_screen_bg_mio0))
                0x00000000007cf7a0                _title_screen_bg_mio0SegmentRomEnd = (__romPos + SIZEOF (.title_screen_bg_mio0))
                [0x00000000007cc6c0]                __romPos = (__romPos + SIZEOF (.title_screen_bg_mio0))
                0x0000000004000000                _gd_dynlistsSegmentStart = ADDR (.gd_dynlists)
                0x00000000007cc6c0                _gd_dynlistsSegmentRomStart = __romPos

.gd_dynlists    0x0000000004000000    0x32780 load address 0x00000000002739a0
 build/us/src/goddard/dynlists/dynlist_test_cube.o(.data)
 .data          0x0000000004000000      0x650 build/us/src/goddard/dynlists/dynlist_test_cube.o
                0x0000000004000000                dynlist_test_cube
 build/us/src/goddard/dynlists/dynlist_unused.o(.data)
 .data          0x0000000004000650      0x5d0 build/us/src/goddard/dynlists/dynlist_unused.o
                0x0000000004000650                dynlist_unused
 build/us/src/goddard/dynlists/dynlist_mario_face.o(.data)
 .data          0x0000000004000c20     0x29f0 build/us/src/goddard/dynlists/dynlist_mario_face.o
                0x0000000004000c20                mario_Face_VtxData
                0x0000000004001670                mario_Face_VtxInfo
                0x000000000400167c                mario_Face_FaceData
                0x00000000040031e4                mario_Face_FaceInfo
                0x00000000040031f0                dynlist_mario_face
 build/us/src/goddard/dynlists/dynlists_mario_eyes.o(.data)
 .data          0x0000000004003610      0xcd0 build/us/src/goddard/dynlists/dynlists_mario_eyes.o
                0x0000000004003610                verts_mario_eye_right
                0x0000000004003730                vtx_mario_eye_right
                0x000000000400373c                facedata_mario_eye_right
                0x00000000040039cc                faces_mario_eye_right
                0x00000000040039d8                dynlist_mario_eye_right
                0x0000000004003c78                verts_mario_eye_left
                0x0000000004003d98                vtx_mario_eye_left
                0x0000000004003da4                facedata_mario_eye_left
                0x0000000004004034                faces_mario_eye_left
                0x0000000004004040                dynlist_mario_eye_left
 build/us/src/goddard/dynlists/dynlists_mario_eyebrows_mustache.o(.data)
 .data          0x00000000040042e0      0xcb0 build/us/src/goddard/dynlists/dynlists_mario_eyebrows_mustache.o
                0x00000000040042e0                verts_mario_eyebrow_right
                0x000000000400437c                vtx_mario_eyebrow_right
                0x0000000004004388                facedata_mario_eyebrow_right
                0x00000000040044a8                faces_mario_eyebrow_right
                0x00000000040044b4                dynlist_mario_eyebrow_right
                0x0000000004004634                verts_mario_eyebrow_left
                0x00000000040046d0                vtx_mario_eyebrow_left
                0x00000000040046dc                facedata_mario_eyebrow_left
                0x00000000040047fc                faces_mario_eyebrow_left
                0x0000000004004808                dynlist_mario_eyebrow_left
                0x0000000004004988                verts_mario_mustache
                0x0000000004004ad8                vtx_mario_mustache
                0x0000000004004ae4                facedata_mario_mustache
                0x0000000004004e04                faces_mario_mustache
                0x0000000004004e10                dynlist_mario_mustache
 build/us/src/goddard/dynlists/dynlist_mario_master.o(.data)
 .data          0x0000000004004f90     0x6030 build/us/src/goddard/dynlists/dynlist_mario_master.o
                0x0000000004004f90                dynlist_mario_master
 build/us/src/goddard/dynlists/anim_mario_mustache_right.o(.data)
 .data          0x000000000400afc0     0x1740 build/us/src/goddard/dynlists/anim_mario_mustache_right.o
                0x000000000400afc0                animdata_mario_mustache_right_1
                0x000000000400c2f8                animdata_mario_mustache_right_2
                0x000000000400c6dc                anim_mario_mustache_right
 build/us/src/goddard/dynlists/anim_mario_mustache_left.o(.data)
 .data          0x000000000400c700     0x1740 build/us/src/goddard/dynlists/anim_mario_mustache_left.o
                0x000000000400c700                animdata_mario_mustache_left_1
                0x000000000400da38                animdata_mario_mustache_left_2
                0x000000000400de1c                anim_mario_mustache_left
 build/us/src/goddard/dynlists/anim_mario_lips_1.o(.data)
 .data          0x000000000400de40     0x1740 build/us/src/goddard/dynlists/anim_mario_lips_1.o
                0x000000000400de40                animdata_mario_lips_1_1
                0x000000000400f178                animdata_mario_lips_1_2
                0x000000000400f55c                anim_mario_lips_1
 build/us/src/goddard/dynlists/anim_mario_lips_2.o(.data)
 .data          0x000000000400f580     0x1740 build/us/src/goddard/dynlists/anim_mario_lips_2.o
                0x000000000400f580                animdata_mario_lips_2_1
                0x00000000040108b8                animdata_mario_lips_2_2
                0x0000000004010c9c                anim_mario_lips_2
 build/us/src/goddard/dynlists/anim_mario_eyebrows_1.o(.data)
 .data          0x0000000004010cc0     0x1740 build/us/src/goddard/dynlists/anim_mario_eyebrows_1.o
                0x0000000004010cc0                animdata_mario_eyebrows_1_1
                0x0000000004011ff8                animdata_mario_eyebrows_1_2
                0x00000000040123dc                anim_mario_eyebrows_1
 build/us/src/goddard/dynlists/anim_group_1.o(.data)
 .data          0x0000000004012400     0xf030 build/us/src/goddard/dynlists/anim_group_1.o
                0x0000000004012400                animdata_mario_eyebrows_equalizer_1
                0x0000000004013738                anim_mario_eyebrows_equalizer
                0x000000000401375c                animdata_mario_eyebrows_2_1
                0x0000000004014a94                animdata_mario_eyebrows_2_2
                0x0000000004014e78                anim_mario_eyebrows_2
                0x0000000004014e9c                anim_mario_eyebrows_3_1
                0x00000000040161d4                anim_mario_eyebrows_3
                0x00000000040161f8                animdata_mario_eyebrows_4_1
                0x0000000004017530                animdata_mario_eyebrows_4_2
                0x0000000004017914                anim_mario_eyebrows_4
                0x0000000004017938                animdata_mario_eyebrows_5_1
                0x0000000004018c70                anim_mario_eyebrows_5
                0x0000000004018c94                animdata_mario_eye_left_1
                0x0000000004019fcc                animdata_mario_eye_left_2
                0x000000000401a3b0                anim_mario_eye_left
                0x000000000401a3d4                animdata_mario_eye_right_1
                0x000000000401b70c                animdata_mario_eye_right_2
                0x000000000401baf0                anim_mario_eye_right
                0x000000000401bb14                animdata_mario_hat_1
                0x000000000401ce4c                animdata_mario_hat_2
                0x000000000401d230                anim_mario_hat
                0x000000000401d254                animdata_mario_lips_3_1
                0x000000000401e58c                animdata_mario_lips_3_2
                0x000000000401e970                anim_mario_lips_3
                0x000000000401e994                animdata_mario_lips_4_1
                0x000000000401fccc                animdata_mario_lips_4_2
                0x00000000040200b0                anim_mario_lips_4
                0x00000000040200d4                animdata_mario_ear_left_1
                0x000000000402140c                anim_mario_ear_left
 build/us/src/goddard/dynlists/anim_group_2.o(.data)
 .data          0x0000000004021430    0x112b0 build/us/src/goddard/dynlists/anim_group_2.o
                0x0000000004021430                animdata_mario_ear_right_1
                0x0000000004022768                anim_mario_ear_right
                0x000000000402278c                animdata_mario_nose_1
                0x0000000004023ac4                animdata_mario_nose_2
                0x0000000004023ea8                anim_mario_nose
                0x0000000004023ecc                animdata_mario_lips_5_1
                0x0000000004025204                animdata_mario_lips_5_2
                0x00000000040255e8                anim_mario_lips_5
                0x000000000402560c                animdata_mario_lip_6_1
                0x0000000004026944                animdata_mario_lip_6_2
                0x0000000004026d28                anim_mario_lips_6
                0x0000000004026d4c                animdata_mario_eyelid_left_1
                0x0000000004028084                animdata_mario_eyelid_left_2
                0x0000000004028468                anim_mario_eyelid_left
                0x000000000402848c                animdata_mario_eyelid_right_1
                0x00000000040297c4                animdata_mario_eyelid_right_2
                0x0000000004029ba8                anim_mario_eyelid_right
                0x0000000004029bcc                animdata_mario_intro_1
                0x000000000402c23c                animdata_mario_intro_2
                0x000000000402ca04                anim_mario_intro
                0x000000000402ca28                animdata_silver_star_1
                0x000000000402f098                animdata_silver_star_2
                0x000000000402f860                anim_silver_star
                0x000000000402f884                animdata_red_star_1
                0x0000000004031ef4                animdata_red_star_2
                0x00000000040326bc                anim_red_star
 build/us/src/goddard/dynlists/dynlist_test_cube.o(.rodata)
 .rodata        0x00000000040326e0       0x50 build/us/src/goddard/dynlists/dynlist_test_cube.o
 build/us/src/goddard/dynlists/dynlist_unused.o(.rodata)
 .rodata        0x0000000004032730       0x50 build/us/src/goddard/dynlists/dynlist_unused.o
                0x0000000004032780                _gd_dynlistsSegmentEnd = (ADDR (.gd_dynlists) + SIZEOF (.gd_dynlists))
                0x00000000007fee40                _gd_dynlistsSegmentRomEnd = (__romPos + SIZEOF (.gd_dynlists))
                [0x00000000007cc6c0]                __romPos = (__romPos + SIZEOF (.gd_dynlists))
                0x00000000007cc6c0                gMainLevels = __romPos
                0x0000000014000000                _menuSegmentStart = ADDR (.menu)
                0x00000000007cc6c0                _menuSegmentRomStart = __romPos

.menu           0x0000000014000000      0x490 load address 0x00000000002a6120
 build/us/bin/menu/header.o(.level)
 .level         0x0000000014000000      0x490 build/us/bin/menu/header.o
                0x0000000014000000                level_main_menu_entry_1
                0x0000000014000118                level_main_menu_entry_2
                0x00000000140001d0                main_menu_geo_0001D0
                0x0000000014000200                main_menu_geo_000200
                0x0000000014000230                main_menu_geo_000230
                0x0000000014000260                main_menu_geo_000260
                0x0000000014000290                main_menu_geo_000290
                0x00000000140002b8                main_menu_geo_0002B8
                0x00000000140002e0                main_menu_geo_0002E0
                0x0000000014000308                main_menu_geo_000308
                0x0000000014000330                main_menu_geo_000330
                0x0000000014000358                main_menu_geo_000358
                0x0000000014000380                main_menu_geo_000380
                0x0000000014000408                main_menu_geo_000408
                0x0000000014000490                _menuSegmentEnd = (ADDR (.menu) + SIZEOF (.menu))
                0x00000000007ccb50                _menuSegmentRomEnd = (__romPos + SIZEOF (.menu))
                [0x00000000007cc6c0]                __romPos = (__romPos + SIZEOF (.menu))
                0x0000000007000000                _menu_segment_7SegmentStart = ADDR (.menu_segment_7)
                0x00000000007cc6c0                _menu_segment_7SegmentRomStart = __romPos

.menu_segment_7
                0x0000000007000000     0x56f0 load address 0x00000000002a65b0
 build/us/bin/menu/header.o(.seg07)
 .seg07         0x0000000007000000     0x56f0 build/us/bin/menu/header.o
                0x00000000070056f0                _menu_segment_7SegmentEnd = (ADDR (.menu_segment_7) + SIZEOF (.menu_segment_7))
                0x00000000007d1db0                _menu_segment_7SegmentRomEnd = (__romPos + SIZEOF (.menu_segment_7))
                [0x00000000007cc6c0]                __romPos = (__romPos + SIZEOF (.menu_segment_7))
                0x0000000015000000                _scriptsSegmentStart = ADDR (.scripts)
                0x00000000007cc6c0                _scriptsSegmentRomStart = __romPos

.scripts        0x0000000015000000      0xa10 load address 0x00000000002abca0
 build/us/levels/scripts.o(.level)
 .level         0x0000000015000000      0xa10 build/us/levels/scripts.o
                0x0000000015000000                level_main_scripts_entry
                0x0000000015000660                script_func_global_1
                0x000000001500071c                script_func_global_2
                0x0000000015000750                script_func_global_3
                0x000000001500076c                script_func_global_4
                0x0000000015000788                script_func_global_5
                0x00000000150007b4                script_func_global_6
                0x00000000150007e8                script_func_global_7
                0x000000001500080c                script_func_global_8
                0x0000000015000830                script_func_global_9
                0x000000001500084c                script_func_global_10
                0x0000000015000888                script_func_global_11
                0x00000000150008a4                script_func_global_12
                0x00000000150008d8                script_func_global_13
                0x0000000015000914                script_func_global_14
                0x0000000015000958                script_func_global_15
                0x000000001500099c                script_func_global_16
                0x00000000150009c0                script_func_global_17
                0x00000000150009dc                script_func_global_18
                0x0000000015000a10                _scriptsSegmentEnd = (ADDR (.scripts) + SIZEOF (.scripts))
                0x00000000007cd0d0                _scriptsSegmentRomEnd = (__romPos + SIZEOF (.scripts))
                [0x00000000007cc6c0]                __romPos = (__romPos + SIZEOF (.scripts))
                0x000000000a000000                _water_skybox_mio0SegmentStart = ADDR (.water_skybox_mio0)
                0x00000000007cc6c0                _water_skybox_mio0SegmentRomStart = __romPos

.water_skybox_mio0
                0x000000000a000000     0xc860 load address 0x00000000002ac6b0
 build/us/mio0/water_skybox.mio0.o(.data)
 .data          0x000000000a000000     0xc860 build/us/mio0/water_skybox.mio0.o
                0x000000000a00c860                . = ALIGN (0x10)
                0x000000000a00c860                _water_skybox_mio0SegmentEnd = (ADDR (.water_skybox_mio0) + SIZEOF (.water_skybox_mio0))
                0x00000000007d8f20                _water_skybox_mio0SegmentRomEnd = (__romPos + SIZEOF (.water_skybox_mio0))
                [0x00000000007cc6c0]                __romPos = (__romPos + SIZEOF (.water_skybox_mio0))
                0x000000000a000000                _ccm_skybox_mio0SegmentStart = ADDR (.ccm_skybox_mio0)
                0x00000000007cc6c0                _ccm_skybox_mio0SegmentRomStart = __romPos

.ccm_skybox_mio0
                0x000000000a000000     0xe4c0 load address 0x00000000002b8f10
 build/us/mio0/ccm_skybox.mio0.o(.data)
 .data          0x000000000a000000     0xe4c0 build/us/mio0/ccm_skybox.mio0.o
                0x000000000a00e4c0                . = ALIGN (0x10)
                0x000000000a00e4c0                _ccm_skybox_mio0SegmentEnd = (ADDR (.ccm_skybox_mio0) + SIZEOF (.ccm_skybox_mio0))
                0x00000000007dab80                _ccm_skybox_mio0SegmentRomEnd = (__romPos + SIZEOF (.ccm_skybox_mio0))
                [0x00000000007cc6c0]                __romPos = (__romPos + SIZEOF (.ccm_skybox_mio0))
                0x000000000a000000                _clouds_skybox_mio0SegmentStart = ADDR (.clouds_skybox_mio0)
                0x00000000007cc6c0                _clouds_skybox_mio0SegmentRomStart = __romPos

.clouds_skybox_mio0
                0x000000000a000000     0x8c70 load address 0x00000000002c73d0
 build/us/mio0/clouds_skybox.mio0.o(.data)
 .data          0x000000000a000000     0x8c70 build/us/mio0/clouds_skybox.mio0.o
                0x000000000a008c70                . = ALIGN (0x10)
                0x000000000a008c70                _clouds_skybox_mio0SegmentEnd = (ADDR (.clouds_skybox_mio0) + SIZEOF (.clouds_skybox_mio0))
                0x00000000007d5330                _clouds_skybox_mio0SegmentRomEnd = (__romPos + SIZEOF (.clouds_skybox_mio0))
                [0x00000000007cc6c0]                __romPos = (__romPos + SIZEOF (.clouds_skybox_mio0))
                0x000000000a000000                _bitfs_skybox_mio0SegmentStart = ADDR (.bitfs_skybox_mio0)
                0x00000000007cc6c0                _bitfs_skybox_mio0SegmentRomStart = __romPos

.bitfs_skybox_mio0
                0x000000000a000000     0x64b0 load address 0x00000000002d0040
 build/us/mio0/bitfs_skybox.mio0.o(.data)
 .data          0x000000000a000000     0x64b0 build/us/mio0/bitfs_skybox.mio0.o
                0x000000000a0064b0                . = ALIGN (0x10)
                0x000000000a0064b0                _bitfs_skybox_mio0SegmentEnd = (ADDR (.bitfs_skybox_mio0) + SIZEOF (.bitfs_skybox_mio0))
                0x00000000007d2b70                _bitfs_skybox_mio0SegmentRomEnd = (__romPos + SIZEOF (.bitfs_skybox_mio0))
                [0x00000000007cc6c0]                __romPos = (__romPos + SIZEOF (.bitfs_skybox_mio0))
                0x000000000a000000                _wdw_skybox_mio0SegmentStart = ADDR (.wdw_skybox_mio0)
                0x00000000007cc6c0                _wdw_skybox_mio0SegmentRomStart = __romPos

.wdw_skybox_mio0
                0x000000000a000000    0x11390 load address 0x00000000002d64f0
 build/us/mio0/wdw_skybox.mio0.o(.data)
 .data          0x000000000a000000    0x11390 build/us/mio0/wdw_skybox.mio0.o
                0x000000000a011390                . = ALIGN (0x10)
                0x000000000a011390                _wdw_skybox_mio0SegmentEnd = (ADDR (.wdw_skybox_mio0) + SIZEOF (.wdw_skybox_mio0))
                0x00000000007dda50                _wdw_skybox_mio0SegmentRomEnd = (__romPos + SIZEOF (.wdw_skybox_mio0))
                [0x00000000007cc6c0]                __romPos = (__romPos + SIZEOF (.wdw_skybox_mio0))
                0x000000000a000000                _cloud_floor_skybox_mio0SegmentStart = ADDR (.cloud_floor_skybox_mio0)
                0x00000000007cc6c0                _cloud_floor_skybox_mio0SegmentRomStart = __romPos

.cloud_floor_skybox_mio0
                0x000000000a000000     0x9c60 load address 0x00000000002e7880
 build/us/mio0/cloud_floor_skybox.mio0.o(.data)
 .data          0x000000000a000000     0x9c60 build/us/mio0/cloud_floor_skybox.mio0.o
                0x000000000a009c60                . = ALIGN (0x10)
                0x000000000a009c60                _cloud_floor_skybox_mio0SegmentEnd = (ADDR (.cloud_floor_skybox_mio0) + SIZEOF (.cloud_floor_skybox_mio0))
                0x00000000007d6320                _cloud_floor_skybox_mio0SegmentRomEnd = (__romPos + SIZEOF (.cloud_floor_skybox_mio0))
                [0x00000000007cc6c0]                __romPos = (__romPos + SIZEOF (.cloud_floor_skybox_mio0))
                0x000000000a000000                _ssl_skybox_mio0SegmentStart = ADDR (.ssl_skybox_mio0)
                0x00000000007cc6c0                _ssl_skybox_mio0SegmentRomStart = __romPos

.ssl_skybox_mio0
                0x000000000a000000     0x9cd0 load address 0x00000000002f14e0
 build/us/mio0/ssl_skybox.mio0.o(.data)
 .data          0x000000000a000000     0x9cd0 build/us/mio0/ssl_skybox.mio0.o
                0x000000000a009cd0                . = ALIGN (0x10)
                0x000000000a009cd0                _ssl_skybox_mio0SegmentEnd = (ADDR (.ssl_skybox_mio0) + SIZEOF (.ssl_skybox_mio0))
                0x00000000007d6390                _ssl_skybox_mio0SegmentRomEnd = (__romPos + SIZEOF (.ssl_skybox_mio0))
                [0x00000000007cc6c0]                __romPos = (__romPos + SIZEOF (.ssl_skybox_mio0))
                0x000000000a000000                _bbh_skybox_mio0SegmentStart = ADDR (.bbh_skybox_mio0)
                0x00000000007cc6c0                _bbh_skybox_mio0SegmentRomStart = __romPos

.bbh_skybox_mio0
                0x000000000a000000     0x6b20 load address 0x00000000002fb1b0
 build/us/mio0/bbh_skybox.mio0.o(.data)
 .data          0x000000000a000000     0x6b20 build/us/mio0/bbh_skybox.mio0.o
                0x000000000a006b20                . = ALIGN (0x10)
                0x000000000a006b20                _bbh_skybox_mio0SegmentEnd = (ADDR (.bbh_skybox_mio0) + SIZEOF (.bbh_skybox_mio0))
                0x00000000007d31e0                _bbh_skybox_mio0SegmentRomEnd = (__romPos + SIZEOF (.bbh_skybox_mio0))
                [0x00000000007cc6c0]                __romPos = (__romPos + SIZEOF (.bbh_skybox_mio0))
                0x000000000a000000                _bidw_skybox_mio0SegmentStart = ADDR (.bidw_skybox_mio0)
                0x00000000007cc6c0                _bidw_skybox_mio0SegmentRomStart = __romPos

.bidw_skybox_mio0
                0x000000000a000000     0xb1f0 load address 0x0000000000301cd0
 build/us/mio0/bidw_skybox.mio0.o(.data)
 .data          0x000000000a000000     0xb1f0 build/us/mio0/bidw_skybox.mio0.o
                0x000000000a00b1f0                . = ALIGN (0x10)
                0x000000000a00b1f0                _bidw_skybox_mio0SegmentEnd = (ADDR (.bidw_skybox_mio0) + SIZEOF (.bidw_skybox_mio0))
                0x00000000007d78b0                _bidw_skybox_mio0SegmentRomEnd = (__romPos + SIZEOF (.bidw_skybox_mio0))
                [0x00000000007cc6c0]                __romPos = (__romPos + SIZEOF (.bidw_skybox_mio0))
                0x000000000a000000                _bits_skybox_mio0SegmentStart = ADDR (.bits_skybox_mio0)
                0x00000000007cc6c0                _bits_skybox_mio0SegmentRomStart = __romPos

.bits_skybox_mio0
                0x000000000a000000    0x11310 load address 0x000000000030cec0
 build/us/mio0/bits_skybox.mio0.o(.data)
 .data          0x000000000a000000    0x11310 build/us/mio0/bits_skybox.mio0.o
                0x000000000a011310                . = ALIGN (0x10)
                0x000000000a011310                _bits_skybox_mio0SegmentEnd = (ADDR (.bits_skybox_mio0) + SIZEOF (.bits_skybox_mio0))
                0x00000000007dd9d0                _bits_skybox_mio0SegmentRomEnd = (__romPos + SIZEOF (.bits_skybox_mio0))
                [0x00000000007cc6c0]                __romPos = (__romPos + SIZEOF (.bits_skybox_mio0))
                0x0000000009000000                _fire_mio0SegmentStart = ADDR (.fire_mio0)
                0x00000000007cc6c0                _fire_mio0SegmentRomStart = __romPos

.fire_mio0      0x0000000009000000     0x8c70 load address 0x000000000031e1d0
 build/us/mio0/fire.mio0.o(.data)
 .data          0x0000000009000000     0x8c70 build/us/mio0/fire.mio0.o
                0x0000000009008c70                . = ALIGN (0x10)
                0x0000000009008c70                _fire_mio0SegmentEnd = (ADDR (.fire_mio0) + SIZEOF (.fire_mio0))
                0x00000000007d5330                _fire_mio0SegmentRomEnd = (__romPos + SIZEOF (.fire_mio0))
                [0x00000000007cc6c0]                __romPos = (__romPos + SIZEOF (.fire_mio0))
                0x0000000009000000                _spooky_mio0SegmentStart = ADDR (.spooky_mio0)
                0x00000000007cc6c0                _spooky_mio0SegmentRomStart = __romPos

.spooky_mio0    0x0000000009000000     0x6230 load address 0x0000000000326e40
 build/us/mio0/spooky.mio0.o(.data)
 .data          0x0000000009000000     0x6230 build/us/mio0/spooky.mio0.o
                0x0000000009006230                . = ALIGN (0x10)
                0x0000000009006230                _spooky_mio0SegmentEnd = (ADDR (.spooky_mio0) + SIZEOF (.spooky_mio0))
                0x00000000007d28f0                _spooky_mio0SegmentRomEnd = (__romPos + SIZEOF (.spooky_mio0))
                [0x00000000007cc6c0]                __romPos = (__romPos + SIZEOF (.spooky_mio0))
                0x0000000009000000                _generic_mio0SegmentStart = ADDR (.generic_mio0)
                0x00000000007cc6c0                _generic_mio0SegmentRomStart = __romPos

.generic_mio0   0x0000000009000000     0x7ac0 load address 0x000000000032d070
 build/us/mio0/generic.mio0.o(.data)
 .data          0x0000000009000000     0x7ac0 build/us/mio0/generic.mio0.o
                0x0000000009007ac0                . = ALIGN (0x10)
                0x0000000009007ac0                _generic_mio0SegmentEnd = (ADDR (.generic_mio0) + SIZEOF (.generic_mio0))
                0x00000000007d4180                _generic_mio0SegmentRomEnd = (__romPos + SIZEOF (.generic_mio0))
                [0x00000000007cc6c0]                __romPos = (__romPos + SIZEOF (.generic_mio0))
                0x0000000009000000                _water_mio0SegmentStart = ADDR (.water_mio0)
                0x00000000007cc6c0                _water_mio0SegmentRomStart = __romPos

.water_mio0     0x0000000009000000     0x8be0 load address 0x0000000000334b30
 build/us/mio0/water.mio0.o(.data)
 .data          0x0000000009000000     0x8be0 build/us/mio0/water.mio0.o
                0x0000000009008be0                . = ALIGN (0x10)
                0x0000000009008be0                _water_mio0SegmentEnd = (ADDR (.water_mio0) + SIZEOF (.water_mio0))
                0x00000000007d52a0                _water_mio0SegmentRomEnd = (__romPos + SIZEOF (.water_mio0))
                [0x00000000007cc6c0]                __romPos = (__romPos + SIZEOF (.water_mio0))
                0x0000000009000000                _sky_mio0SegmentStart = ADDR (.sky_mio0)
                0x00000000007cc6c0                _sky_mio0SegmentRomStart = __romPos

.sky_mio0       0x0000000009000000     0x3a30 load address 0x000000000033d710
 build/us/mio0/sky.mio0.o(.data)
 .data          0x0000000009000000     0x3a30 build/us/mio0/sky.mio0.o
                0x0000000009003a30                . = ALIGN (0x10)
                0x0000000009003a30                _sky_mio0SegmentEnd = (ADDR (.sky_mio0) + SIZEOF (.sky_mio0))
                0x00000000007d00f0                _sky_mio0SegmentRomEnd = (__romPos + SIZEOF (.sky_mio0))
                [0x00000000007cc6c0]                __romPos = (__romPos + SIZEOF (.sky_mio0))
                0x0000000009000000                _snow_mio0SegmentStart = ADDR (.snow_mio0)
                0x00000000007cc6c0                _snow_mio0SegmentRomStart = __romPos

.snow_mio0      0x0000000009000000     0x6910 load address 0x0000000000341140
 build/us/mio0/snow.mio0.o(.data)
 .data          0x0000000009000000     0x6910 build/us/mio0/snow.mio0.o
                0x0000000009006910                . = ALIGN (0x10)
                0x0000000009006910                _snow_mio0SegmentEnd = (ADDR (.snow_mio0) + SIZEOF (.snow_mio0))
                0x00000000007d2fd0                _snow_mio0SegmentRomEnd = (__romPos + SIZEOF (.snow_mio0))
                [0x00000000007cc6c0]                __romPos = (__romPos + SIZEOF (.snow_mio0))
                0x0000000009000000                _cave_mio0SegmentStart = ADDR (.cave_mio0)
                0x00000000007cc6c0                _cave_mio0SegmentRomStart = __romPos

.cave_mio0      0x0000000009000000     0x6d10 load address 0x0000000000347a50
 build/us/mio0/cave.mio0.o(.data)
 .data          0x0000000009000000     0x6d10 build/us/mio0/cave.mio0.o
                0x0000000009006d10                . = ALIGN (0x10)
                0x0000000009006d10                _cave_mio0SegmentEnd = (ADDR (.cave_mio0) + SIZEOF (.cave_mio0))
                0x00000000007d33d0                _cave_mio0SegmentRomEnd = (__romPos + SIZEOF (.cave_mio0))
                [0x00000000007cc6c0]                __romPos = (__romPos + SIZEOF (.cave_mio0))
                0x0000000009000000                _machine_mio0SegmentStart = ADDR (.machine_mio0)
                0x00000000007cc6c0                _machine_mio0SegmentRomStart = __romPos

.machine_mio0   0x0000000009000000     0x3200 load address 0x000000000034e760
 build/us/mio0/machine.mio0.o(.data)
 .data          0x0000000009000000     0x3200 build/us/mio0/machine.mio0.o
                0x0000000009003200                . = ALIGN (0x10)
                0x0000000009003200                _machine_mio0SegmentEnd = (ADDR (.machine_mio0) + SIZEOF (.machine_mio0))
                0x00000000007cf8c0                _machine_mio0SegmentRomEnd = (__romPos + SIZEOF (.machine_mio0))
                [0x00000000007cc6c0]                __romPos = (__romPos + SIZEOF (.machine_mio0))
                0x0000000009000000                _mountain_mio0SegmentStart = ADDR (.mountain_mio0)
                0x00000000007cc6c0                _mountain_mio0SegmentRomStart = __romPos

.mountain_mio0  0x0000000009000000     0x59f0 load address 0x0000000000351960
 build/us/mio0/mountain.mio0.o(.data)
 .data          0x0000000009000000     0x59f0 build/us/mio0/mountain.mio0.o
                0x00000000090059f0                . = ALIGN (0x10)
                0x00000000090059f0                _mountain_mio0SegmentEnd = (ADDR (.mountain_mio0) + SIZEOF (.mountain_mio0))
                0x00000000007d20b0                _mountain_mio0SegmentRomEnd = (__romPos + SIZEOF (.mountain_mio0))
                [0x00000000007cc6c0]                __romPos = (__romPos + SIZEOF (.mountain_mio0))
                0x0000000009000000                _grass_mio0SegmentStart = ADDR (.grass_mio0)
                0x00000000007cc6c0                _grass_mio0SegmentRomStart = __romPos

.grass_mio0     0x0000000009000000     0x79c0 load address 0x0000000000357350
 build/us/mio0/grass.mio0.o(.data)
 .data          0x0000000009000000     0x79c0 build/us/mio0/grass.mio0.o
                0x00000000090079c0                . = ALIGN (0x10)
                0x00000000090079c0                _grass_mio0SegmentEnd = (ADDR (.grass_mio0) + SIZEOF (.grass_mio0))
                0x00000000007d4080                _grass_mio0SegmentRomEnd = (__romPos + SIZEOF (.grass_mio0))
                [0x00000000007cc6c0]                __romPos = (__romPos + SIZEOF (.grass_mio0))
                0x0000000009000000                _outside_mio0SegmentStart = ADDR (.outside_mio0)
                0x00000000007cc6c0                _outside_mio0SegmentRomStart = __romPos

.outside_mio0   0x0000000009000000     0x6c70 load address 0x000000000035ed10
 build/us/mio0/outside.mio0.o(.data)
 .data          0x0000000009000000     0x6c70 build/us/mio0/outside.mio0.o
                0x0000000009006c70                . = ALIGN (0x10)
                0x0000000009006c70                _outside_mio0SegmentEnd = (ADDR (.outside_mio0) + SIZEOF (.outside_mio0))
                0x00000000007d3330                _outside_mio0SegmentRomEnd = (__romPos + SIZEOF (.outside_mio0))
                [0x00000000007cc6c0]                __romPos = (__romPos + SIZEOF (.outside_mio0))
                0x0000000009000000                _inside_mio0SegmentStart = ADDR (.inside_mio0)
                0x00000000007cc6c0                _inside_mio0SegmentRomStart = __romPos

.inside_mio0    0x0000000009000000     0x9bb0 load address 0x0000000000365980
 build/us/mio0/inside.mio0.o(.data)
 .data          0x0000000009000000     0x9bb0 build/us/mio0/inside.mio0.o
                0x0000000009009bb0                . = ALIGN (0x10)
                0x0000000009009bb0                _inside_mio0SegmentEnd = (ADDR (.inside_mio0) + SIZEOF (.inside_mio0))
                0x00000000007d6270                _inside_mio0SegmentRomEnd = (__romPos + SIZEOF (.inside_mio0))
                [0x00000000007cc6c0]                __romPos = (__romPos + SIZEOF (.inside_mio0))
                0x000000000b000000                _effect_mio0SegmentStart = ADDR (.effect_mio0)
                0x00000000007cc6c0                _effect_mio0SegmentRomStart = __romPos

.effect_mio0    0x000000000b000000     0x2710 load address 0x000000000036f530
 build/us/mio0/effect.mio0.o(.data)
 .data          0x000000000b000000     0x2710 build/us/mio0/effect.mio0.o
                0x000000000b002710                . = ALIGN (0x10)
                0x000000000b002710                _effect_mio0SegmentEnd = (ADDR (.effect_mio0) + SIZEOF (.effect_mio0))
                0x00000000007cedd0                _effect_mio0SegmentRomEnd = (__romPos + SIZEOF (.effect_mio0))
                [0x00000000007cc6c0]                __romPos = (__romPos + SIZEOF (.effect_mio0))
                0x0000000007000000                _bbh_segment_7SegmentStart = ADDR (.bbh_segment_7)
                0x00000000007cc6c0                _bbh_segment_7SegmentRomStart = __romPos

.bbh_segment_7  0x0000000007000000    0x10c80 load address 0x0000000000371c40
 build/us/bin/bbh/header.o(.seg07)
 .seg07         0x0000000007000000    0x10c80 build/us/bin/bbh/header.o
                0x0000000007010c80                _bbh_segment_7SegmentEnd = (ADDR (.bbh_segment_7) + SIZEOF (.bbh_segment_7))
                0x00000000007dd340                _bbh_segment_7SegmentRomEnd = (__romPos + SIZEOF (.bbh_segment_7))
                [0x00000000007cc6c0]                __romPos = (__romPos + SIZEOF (.bbh_segment_7))
                0x000000000e000000                _bbhSegmentStart = ADDR (.bbh)
                0x00000000007cc6c0                _bbhSegmentRomStart = __romPos

.bbh            0x000000000e000000     0x1090 load address 0x00000000003828c0
 build/us/bin/bbh/header.o(.level)
 .level         0x000000000e000000     0x1090 build/us/bin/bbh/header.o
                0x000000000e000418                level_bbh_entry
                0x000000000e0005b0                geo_bbh_0005B0
                0x000000000e0005c8                geo_bbh_0005C8
                0x000000000e0005e0                geo_bbh_0005E0
                0x000000000e0005f8                geo_bbh_0005F8
                0x000000000e000610                geo_bbh_000610
                0x000000000e000628                geo_bbh_000628
                0x000000000e000640                geo_bbh_000640
                0x000000000e000658                geo_bbh_000658
                0x000000000e000670                geo_bbh_000670
                0x000000000e0006b0                geo_bbh_0006B0
                0x000000000e0006e8                geo_bbh_0006E8
                0x000000000e000730                geo_bbh_000730
                0x000000000e000750                geo_bbh_000750
                0x000000000e000768                geo_bbh_000768
                0x000000000e0007b0                geo_bbh_0007B0
                0x000000000e0007d0                geo_bbh_0007D0
                0x000000000e000800                geo_bbh_000800
                0x000000000e000828                geo_bbh_000828
                0x000000000e000860                geo_bbh_000860
                0x000000000e000888                geo_bbh_000888
                0x000000000e0008b0                geo_bbh_0008B0
                0x000000000e0008e8                geo_bbh_0008E8
                0x000000000e000950                geo_bbh_000950
                0x000000000e0009c8                geo_bbh_0009C8
                0x000000000e000a18                geo_bbh_000A18
                0x000000000e000a60                geo_bbh_000A60
                0x000000000e000ad8                geo_bbh_000AD8
                0x000000000e000b28                geo_bbh_000B28
                0x000000000e000b88                geo_bbh_000B88
                0x000000000e000bf0                geo_bbh_000BF0
                0x000000000e000c38                geo_bbh_000C38
                0x000000000e000c88                geo_bbh_000C88
                0x000000000e000ce8                geo_bbh_000CE8
                0x000000000e000d20                geo_bbh_000D20
                0x000000000e000d68                geo_bbh_000D68
                0x000000000e000db0                geo_bbh_000DB0
                0x000000000e000df0                geo_bbh_000DF0
                0x000000000e000e40                geo_bbh_000E40
                0x000000000e000e80                geo_bbh_000E80
                0x000000000e000eb0                geo_bbh_000EB0
                0x000000000e000f00                geo_bbh_000F00
                0x000000000e001090                _bbhSegmentEnd = (ADDR (.bbh) + SIZEOF (.bbh))
                0x00000000007cd750                _bbhSegmentRomEnd = (__romPos + SIZEOF (.bbh))
                [0x00000000007cc6c0]                __romPos = (__romPos + SIZEOF (.bbh))
                0x0000000007000000                _ccm_segment_7SegmentStart = ADDR (.ccm_segment_7)
                0x00000000007cc6c0                _ccm_segment_7SegmentRomStart = __romPos

.ccm_segment_7  0x0000000007000000    0x12340 load address 0x0000000000383950
 build/us/bin/ccm/header.o(.seg07)
 .seg07         0x0000000007000000    0x12340 build/us/bin/ccm/header.o
                0x0000000007012340                _ccm_segment_7SegmentEnd = (ADDR (.ccm_segment_7) + SIZEOF (.ccm_segment_7))
                0x00000000007dea00                _ccm_segment_7SegmentRomEnd = (__romPos + SIZEOF (.ccm_segment_7))
                [0x00000000007cc6c0]                __romPos = (__romPos + SIZEOF (.ccm_segment_7))
                0x000000000e000000                _ccmSegmentStart = ADDR (.ccm)
                0x00000000007cc6c0                _ccmSegmentRomStart = __romPos

.ccm            0x000000000e000000      0x6b0 load address 0x0000000000395c90
 build/us/bin/ccm/header.o(.level)
 .level         0x000000000e000000      0x6b0 build/us/bin/ccm/header.o
                0x000000000e000178                level_ccm_entry
                0x000000000e0003e0                ccm_geo_0003D0
                0x000000000e000400                ccm_geo_0003F0
                0x000000000e00041c                ccm_geo_00040C
                0x000000000e00043c                ccm_geo_00042C
                0x000000000e00046c                ccm_geo_00045C
                0x000000000e0004a4                ccm_geo_000494
                0x000000000e0004cc                ccm_geo_0004BC
                0x000000000e0004f4                ccm_geo_0004E4
                0x000000000e00052c                ccm_geo_00051C
                0x000000000e0005f8                ccm_geo_0005E8
                0x000000000e0006b0                _ccmSegmentEnd = (ADDR (.ccm) + SIZEOF (.ccm))
                0x00000000007ccd70                _ccmSegmentRomEnd = (__romPos + SIZEOF (.ccm))
                [0x00000000007cc6c0]                __romPos = (__romPos + SIZEOF (.ccm))
                0x0000000007000000                _castle_inside_segment_7SegmentStart = ADDR (.castle_inside_segment_7)
                0x00000000007cc6c0                _castle_inside_segment_7SegmentRomStart = __romPos

.castle_inside_segment_7
                0x0000000007000000    0x38d90 load address 0x0000000000396340
 build/us/bin/castle_inside/header.o(.seg07)
 .seg07         0x0000000007000000    0x38d90 build/us/bin/castle_inside/header.o
                0x0000000007038d90                _castle_inside_segment_7SegmentEnd = (ADDR (.castle_inside_segment_7) + SIZEOF (.castle_inside_segment_7))
                0x0000000000805450                _castle_inside_segment_7SegmentRomEnd = (__romPos + SIZEOF (.castle_inside_segment_7))
                [0x00000000007cc6c0]                __romPos = (__romPos + SIZEOF (.castle_inside_segment_7))
                0x000000000e000000                _castle_insideSegmentStart = ADDR (.castle_inside)
                0x00000000007cc6c0                _castle_insideSegmentRomStart = __romPos

.castle_inside  0x000000000e000000     0x1cf0 load address 0x00000000003cf0d0
 build/us/bin/castle_inside/header.o(.level)
 .level         0x000000000e000000     0x1cf0 build/us/bin/castle_inside/header.o
                0x000000000e000af8                level_castle_entry
                0x000000000e000f00                castle_geo_000F00
                0x000000000e000f18                castle_geo_000F18
                0x000000000e000f30                castle_geo_000F30
                0x000000000e000f70                castle_geo_000F70
                0x000000000e000f88                castle_geo_000F88
                0x000000000e000fa8                castle_geo_000FA8
                0x000000000e000fd0                castle_geo_000FD0
                0x000000000e001000                castle_geo_001000
                0x000000000e001038                castle_geo_001038
                0x000000000e001088                castle_geo_001088
                0x000000000e0010c8                castle_geo_0010C8
                0x000000000e001110                castle_geo_001110
                0x000000000e001158                castle_geo_001158
                0x000000000e0011a8                castle_geo_0011A8
                0x000000000e001200                castle_geo_001200
                0x000000000e001260                castle_geo_001260
                0x000000000e0012c8                castle_geo_0012C8
                0x000000000e001348                castle_geo_001348
                0x000000000e0013b8                castle_geo_0013B8
                0x000000000e001400                castle_geo_001400
                0x000000000e001518                castle_geo_001518
                0x000000000e001530                castle_geo_001530
                0x000000000e001548                castle_geo_001548
                0x000000000e001560                castle_geo_001560
                0x000000000e001578                castle_geo_001578
                0x000000000e0015b8                castle_geo_0015B8
                0x000000000e0015f8                castle_geo_0015F8
                0x000000000e001628                castle_geo_001628
                0x000000000e001668                castle_geo_001668
                0x000000000e001690                castle_geo_001690
                0x000000000e0016d8                castle_geo_0016D8
                0x000000000e001740                castle_geo_001740
                0x000000000e001798                castle_geo_001798
                0x000000000e001800                castle_geo_001800
                0x000000000e001858                castle_geo_001858
                0x000000000e001940                castle_geo_001940
                0x000000000e001958                castle_geo_001958
                0x000000000e001980                castle_geo_001980
                0x000000000e0019c8                castle_geo_0019C8
                0x000000000e0019f8                castle_geo_0019F8
                0x000000000e001a30                castle_geo_001A30
                0x000000000e001a58                castle_geo_001A58
                0x000000000e001ab8                castle_geo_001AB8
                0x000000000e001af8                castle_geo_001AF8
                0x000000000e001b48                castle_geo_001B48
                0x000000000e001bb0                castle_geo_001BB0
                0x000000000e001c10                castle_geo_001C10
                0x000000000e001cf0                _castle_insideSegmentEnd = (ADDR (.castle_inside) + SIZEOF (.castle_inside))
                0x00000000007ce3b0                _castle_insideSegmentRomEnd = (__romPos + SIZEOF (.castle_inside))
                [0x00000000007cc6c0]                __romPos = (__romPos + SIZEOF (.castle_inside))
                0x0000000007000000                _hmc_segment_7SegmentStart = ADDR (.hmc_segment_7)
                0x00000000007cc6c0                _hmc_segment_7SegmentRomStart = __romPos

.hmc_segment_7  0x0000000007000000    0x15c40 load address 0x00000000003d0dc0
 build/us/bin/hmc/header.o(.seg07)
 .seg07         0x0000000007000000    0x15c40 build/us/bin/hmc/header.o
                0x0000000007015c40                _hmc_segment_7SegmentEnd = (ADDR (.hmc_segment_7) + SIZEOF (.hmc_segment_7))
                0x00000000007e2300                _hmc_segment_7SegmentRomEnd = (__romPos + SIZEOF (.hmc_segment_7))
                [0x00000000007cc6c0]                __romPos = (__romPos + SIZEOF (.hmc_segment_7))
                0x000000000e000000                _hmcSegmentStart = ADDR (.hmc)
                0x00000000007cc6c0                _hmcSegmentRomStart = __romPos

.hmc            0x000000000e000000      0xcb0 load address 0x00000000003e6a00
 build/us/bin/hmc/header.o(.level)
 .level         0x000000000e000000      0xcb0 build/us/bin/hmc/header.o
                0x000000000e000388                level_hmc_entry
                0x000000000e000530                hmc_geo_000530
                0x000000000e000548                hmc_geo_000548
                0x000000000e000570                hmc_geo_000570
                0x000000000e000588                hmc_geo_000588
                0x000000000e0005a0                hmc_geo_0005A0
                0x000000000e0005b8                hmc_geo_0005B8
                0x000000000e0005d0                hmc_geo_0005D0
                0x000000000e0005e8                hmc_geo_0005E8
                0x000000000e000618                hmc_geo_000618
                0x000000000e000658                hmc_geo_000658
                0x000000000e0006a8                hmc_geo_0006A8
                0x000000000e0006e0                hmc_geo_0006E0
                0x000000000e000700                hmc_geo_000700
                0x000000000e000748                hmc_geo_000748
                0x000000000e000770                hmc_geo_000770
                0x000000000e000798                hmc_geo_000798
                0x000000000e0007f8                hmc_geo_0007F8
                0x000000000e000850                hmc_geo_000850
                0x000000000e0008d0                hmc_geo_0008D0
                0x000000000e000938                hmc_geo_000938
                0x000000000e000998                hmc_geo_000998
                0x000000000e000a18                hmc_geo_000A18
                0x000000000e000a88                hmc_geo_000A88
                0x000000000e000ae8                hmc_geo_000AE8
                0x000000000e000b48                hmc_geo_000B48
                0x000000000e000b90                hmc_geo_000B90
                0x000000000e000cb0                _hmcSegmentEnd = (ADDR (.hmc) + SIZEOF (.hmc))
                0x00000000007cd370                _hmcSegmentRomEnd = (__romPos + SIZEOF (.hmc))
                [0x00000000007cc6c0]                __romPos = (__romPos + SIZEOF (.hmc))
                0x0000000007000000                _ssl_segment_7SegmentStart = ADDR (.ssl_segment_7)
                0x00000000007cc6c0                _ssl_segment_7SegmentRomStart = __romPos

.ssl_segment_7  0x0000000007000000    0x142e0 load address 0x00000000003e76b0
 build/us/bin/ssl/header.o(.seg07)
 .seg07         0x0000000007000000    0x142e0 build/us/bin/ssl/header.o
                0x00000000070142e0                _ssl_segment_7SegmentEnd = (ADDR (.ssl_segment_7) + SIZEOF (.ssl_segment_7))
                0x00000000007e09a0                _ssl_segment_7SegmentRomEnd = (__romPos + SIZEOF (.ssl_segment_7))
                [0x00000000007cc6c0]                __romPos = (__romPos + SIZEOF (.ssl_segment_7))
                0x000000000e000000                _sslSegmentStart = ADDR (.ssl)
                0x00000000007cc6c0                _sslSegmentRomStart = __romPos

.ssl            0x000000000e000000      0x920 load address 0x00000000003fb990
 build/us/bin/ssl/header.o(.level)
 .level         0x000000000e000000      0x920 build/us/bin/ssl/header.o
                0x000000000e0002b8                level_ssl_entry
                0x000000000e0005c0                ssl_geo_0005C0
                0x000000000e0005d8                ssl_geo_0005D8
                0x000000000e000618                ssl_geo_000618
                0x000000000e000630                ssl_geo_000630
                0x000000000e000648                ssl_geo_000648
                0x000000000e000734                ssl_geo_000734
                0x000000000e000764                ssl_geo_000764
                0x000000000e000794                ssl_geo_000794
                0x000000000e0007ac                ssl_geo_0007AC
                0x000000000e0007cc                ssl_geo_0007CC
                0x000000000e00088c                ssl_geo_00088C
                0x000000000e000920                _sslSegmentEnd = (ADDR (.ssl) + SIZEOF (.ssl))
                0x00000000007ccfe0                _sslSegmentRomEnd = (__romPos + SIZEOF (.ssl))
                [0x00000000007cc6c0]                __romPos = (__romPos + SIZEOF (.ssl))
                0x0000000007000000                _bob_segment_7SegmentStart = ADDR (.bob_segment_7)
                0x00000000007cc6c0                _bob_segment_7SegmentRomStart = __romPos

.bob_segment_7  0x0000000007000000     0x97b0 load address 0x00000000003fc2b0
 build/us/bin/bob/header.o(.seg07)
 .seg07         0x0000000007000000     0x97b0 build/us/bin/bob/header.o
                0x00000000070097b0                _bob_segment_7SegmentEnd = (ADDR (.bob_segment_7) + SIZEOF (.bob_segment_7))
                0x00000000007d5e70                _bob_segment_7SegmentRomEnd = (__romPos + SIZEOF (.bob_segment_7))
                [0x00000000007cc6c0]                __romPos = (__romPos + SIZEOF (.bob_segment_7))
                0x000000000e000000                _bobSegmentStart = ADDR (.bob)
                0x00000000007cc6c0                _bobSegmentRomStart = __romPos

.bob            0x000000000e000000      0x550 load address 0x0000000000405a60
 build/us/bin/bob/header.o(.level)
 .level         0x000000000e000000      0x550 build/us/bin/bob/header.o
                0x000000000e000264                level_bob_entry
                0x000000000e000440                bob_geo_000440
                0x000000000e000458                bob_geo_000458
                0x000000000e000470                bob_geo_000470
                0x000000000e000488                bob_geo_000488
                0x000000000e000550                _bobSegmentEnd = (ADDR (.bob) + SIZEOF (.bob))
                0x00000000007ccc10                _bobSegmentRomEnd = (__romPos + SIZEOF (.bob))
                [0x00000000007cc6c0]                __romPos = (__romPos + SIZEOF (.bob))
                0x0000000007000000                _sl_segment_7SegmentStart = ADDR (.sl_segment_7)
                0x00000000007cc6c0                _sl_segment_7SegmentRomStart = __romPos

.sl_segment_7   0x0000000007000000     0x8890 load address 0x0000000000405fb0
 build/us/bin/sl/header.o(.seg07)
 .seg07         0x0000000007000000     0x8890 build/us/bin/sl/header.o
                0x0000000007008890                _sl_segment_7SegmentEnd = (ADDR (.sl_segment_7) + SIZEOF (.sl_segment_7))
                0x00000000007d4f50                _sl_segment_7SegmentRomEnd = (__romPos + SIZEOF (.sl_segment_7))
                [0x00000000007cc6c0]                __romPos = (__romPos + SIZEOF (.sl_segment_7))
                0x000000000e000000                _slSegmentStart = ADDR (.sl)
                0x00000000007cc6c0                _slSegmentRomStart = __romPos

.sl             0x000000000e000000      0x530 load address 0x000000000040e840
 build/us/bin/sl/header.o(.level)
 .level         0x000000000e000000      0x530 build/us/bin/sl/header.o
                0x000000000e000100                level_sl_entry
                0x000000000e000360                sl_geo_000360
                0x000000000e000378                sl_geo_000378
                0x000000000e000390                sl_geo_000390
                0x000000000e0003a8                sl_geo_0003A8
                0x000000000e000484                sl_geo_000484
                0x000000000e000530                _slSegmentEnd = (ADDR (.sl) + SIZEOF (.sl))
                0x00000000007ccbf0                _slSegmentRomEnd = (__romPos + SIZEOF (.sl))
                [0x00000000007cc6c0]                __romPos = (__romPos + SIZEOF (.sl))
                0x0000000007000000                _wdw_segment_7SegmentStart = ADDR (.wdw_segment_7)
                0x00000000007cc6c0                _wdw_segment_7SegmentRomStart = __romPos

.wdw_segment_7  0x0000000007000000     0xb220 load address 0x000000000040ed70
 build/us/bin/wdw/header.o(.seg07)
 .seg07         0x0000000007000000     0xb220 build/us/bin/wdw/header.o
                0x000000000700b220                _wdw_segment_7SegmentEnd = (ADDR (.wdw_segment_7) + SIZEOF (.wdw_segment_7))
                0x00000000007d78e0                _wdw_segment_7SegmentRomEnd = (__romPos + SIZEOF (.wdw_segment_7))
                [0x00000000007cc6c0]                __romPos = (__romPos + SIZEOF (.wdw_segment_7))
                0x000000000e000000                _wdwSegmentStart = ADDR (.wdw)
                0x00000000007cc6c0                _wdwSegmentRomStart = __romPos

.wdw            0x000000000e000000      0x7d0 load address 0x0000000000419f90
 build/us/bin/wdw/header.o(.level)
 .level         0x000000000e000000      0x7d0 build/us/bin/wdw/header.o
                0x000000000e000370                level_wdw_entry
                0x000000000e000580                wdw_geo_000580
                0x000000000e000598                wdw_geo_000598
                0x000000000e0005c0                wdw_geo_0005C0
                0x000000000e0005e8                wdw_geo_0005E8
                0x000000000e000610                wdw_geo_000610
                0x000000000e000628                wdw_geo_000628
                0x000000000e000640                wdw_geo_000640
                0x000000000e000658                wdw_geo_000658
                0x000000000e000724                wdw_geo_000724
                0x000000000e0007d0                _wdwSegmentEnd = (ADDR (.wdw) + SIZEOF (.wdw))
                0x00000000007cce90                _wdwSegmentRomEnd = (__romPos + SIZEOF (.wdw))
                [0x00000000007cc6c0]                __romPos = (__romPos + SIZEOF (.wdw))
                0x0000000007000000                _jrb_segment_7SegmentStart = ADDR (.jrb_segment_7)
                0x00000000007cc6c0                _jrb_segment_7SegmentRomStart = __romPos

.jrb_segment_7  0x0000000007000000     0x93c0 load address 0x000000000041a760
 build/us/bin/jrb/header.o(.seg07)
 .seg07         0x0000000007000000     0x93c0 build/us/bin/jrb/header.o
                0x00000000070093c0                _jrb_segment_7SegmentEnd = (ADDR (.jrb_segment_7) + SIZEOF (.jrb_segment_7))
                0x00000000007d5a80                _jrb_segment_7SegmentRomEnd = (__romPos + SIZEOF (.jrb_segment_7))
                [0x00000000007cc6c0]                __romPos = (__romPos + SIZEOF (.jrb_segment_7))
                0x000000000e000000                _jrbSegmentStart = ADDR (.jrb)
                0x00000000007cc6c0                _jrbSegmentRomStart = __romPos

.jrb            0x000000000e000000      0xbb0 load address 0x0000000000423b20
 build/us/bin/jrb/header.o(.level)
 .level         0x000000000e000000      0xbb0 build/us/bin/jrb/header.o
                0x000000000e0006ec                level_jrb_entry
                0x000000000e000900                jrb_geo_000900
                0x000000000e000918                jrb_geo_000918
                0x000000000e000930                jrb_geo_000930
                0x000000000e000948                jrb_geo_000948
                0x000000000e000960                jrb_geo_000960
                0x000000000e000978                jrb_geo_000978
                0x000000000e000990                jrb_geo_000990
                0x000000000e0009b0                jrb_geo_0009B0
                0x000000000e0009c8                jrb_geo_0009C8
                0x000000000e0009e8                jrb_geo_0009E8
                0x000000000e000a00                jrb_geo_000A00
                0x000000000e000a18                jrb_geo_000A18
                0x000000000e000afc                jrb_geo_000AFC
                0x000000000e000bb0                _jrbSegmentEnd = (ADDR (.jrb) + SIZEOF (.jrb))
                0x00000000007cd270                _jrbSegmentRomEnd = (__romPos + SIZEOF (.jrb))
                [0x00000000007cc6c0]                __romPos = (__romPos + SIZEOF (.jrb))
                0x0000000007000000                _thi_segment_7SegmentStart = ADDR (.thi_segment_7)
                0x00000000007cc6c0                _thi_segment_7SegmentRomStart = __romPos

.thi_segment_7  0x0000000007000000     0x8010 load address 0x00000000004246d0
 build/us/bin/thi/header.o(.seg07)
 .seg07         0x0000000007000000     0x8010 build/us/bin/thi/header.o
                0x0000000007008010                _thi_segment_7SegmentEnd = (ADDR (.thi_segment_7) + SIZEOF (.thi_segment_7))
                0x00000000007d46d0                _thi_segment_7SegmentRomEnd = (__romPos + SIZEOF (.thi_segment_7))
                [0x00000000007cc6c0]                __romPos = (__romPos + SIZEOF (.thi_segment_7))
                0x000000000e000000                _thiSegmentStart = ADDR (.thi)
                0x00000000007cc6c0                _thiSegmentRomStart = __romPos

.thi            0x000000000e000000      0x840 load address 0x000000000042c6e0
 build/us/bin/thi/header.o(.level)
 .level         0x000000000e000000      0x840 build/us/bin/thi/header.o
                0x000000000e000290                level_thi_entry
                0x000000000e0005b0                thi_geo_0005B0
                0x000000000e0005c8                thi_geo_0005C8
                0x000000000e0005f0                thi_geo_0005F0
                0x000000000e000608                thi_geo_000608
                0x000000000e0006d4                thi_geo_0006D4
                0x000000000e00079c                thi_geo_00079C
                0x000000000e000840                _thiSegmentEnd = (ADDR (.thi) + SIZEOF (.thi))
                0x00000000007ccf00                _thiSegmentRomEnd = (__romPos + SIZEOF (.thi))
                [0x00000000007cc6c0]                __romPos = (__romPos + SIZEOF (.thi))
                0x0000000007000000                _ttc_segment_7SegmentStart = ADDR (.ttc_segment_7)
                0x00000000007cc6c0                _ttc_segment_7SegmentRomStart = __romPos

.ttc_segment_7  0x0000000007000000     0xa4e0 load address 0x000000000042cf20
 build/us/bin/ttc/header.o(.seg07)
 .seg07         0x0000000007000000     0xa4e0 build/us/bin/ttc/header.o
                0x000000000700a4e0                _ttc_segment_7SegmentEnd = (ADDR (.ttc_segment_7) + SIZEOF (.ttc_segment_7))
                0x00000000007d6ba0                _ttc_segment_7SegmentRomEnd = (__romPos + SIZEOF (.ttc_segment_7))
                [0x00000000007cc6c0]                __romPos = (__romPos + SIZEOF (.ttc_segment_7))
                0x000000000e000000                _ttcSegmentStart = ADDR (.ttc)
                0x00000000007cc6c0                _ttcSegmentRomStart = __romPos

.ttc            0x000000000e000000      0x470 load address 0x0000000000437400
 build/us/bin/ttc/header.o(.level)
 .level         0x000000000e000000      0x470 build/us/bin/ttc/header.o
                0x000000000e0000c8                level_ttc_entry
                0x000000000e000240                ttc_geo_000240
                0x000000000e000258                ttc_geo_000258
                0x000000000e000270                ttc_geo_000270
                0x000000000e000288                ttc_geo_000288
                0x000000000e0002a8                ttc_geo_0002A8
                0x000000000e0002c8                ttc_geo_0002C8
                0x000000000e0002e0                ttc_geo_0002E0
                0x000000000e0002f8                ttc_geo_0002F8
                0x000000000e000310                ttc_geo_000310
                0x000000000e000328                ttc_geo_000328
                0x000000000e000340                ttc_geo_000340
                0x000000000e000358                ttc_geo_000358
                0x000000000e000370                ttc_geo_000370
                0x000000000e000388                ttc_geo_000388
                0x000000000e0003a0                ttc_geo_0003A0
                0x000000000e0003b8                ttc_geo_0003B8
                0x000000000e000470                _ttcSegmentEnd = (ADDR (.ttc) + SIZEOF (.ttc))
                0x00000000007ccb30                _ttcSegmentRomEnd = (__romPos + SIZEOF (.ttc))
                [0x00000000007cc6c0]                __romPos = (__romPos + SIZEOF (.ttc))
                0x0000000007000000                _rr_segment_7SegmentStart = ADDR (.rr_segment_7)
                0x00000000007cc6c0                _rr_segment_7SegmentRomStart = __romPos

.rr_segment_7   0x0000000007000000    0x128d0 load address 0x0000000000437870
 build/us/bin/rr/header.o(.seg07)
 .seg07         0x0000000007000000    0x128d0 build/us/bin/rr/header.o
                0x00000000070128d0                _rr_segment_7SegmentEnd = (ADDR (.rr_segment_7) + SIZEOF (.rr_segment_7))
                0x00000000007def90                _rr_segment_7SegmentRomEnd = (__romPos + SIZEOF (.rr_segment_7))
                [0x00000000007cc6c0]                __romPos = (__romPos + SIZEOF (.rr_segment_7))
                0x000000000e000000                _rrSegmentStart = ADDR (.rr)
                0x00000000007cc6c0                _rrSegmentRomStart = __romPos

.rr             0x000000000e000000      0xa80 load address 0x000000000044a140
 build/us/bin/rr/header.o(.level)
 .level         0x000000000e000000      0xa80 build/us/bin/rr/header.o
                0x000000000e0003e4                level_rr_entry
                0x000000000e000660                rr_geo_000660
                0x000000000e000678                rr_geo_000678
                0x000000000e000690                rr_geo_000690
                0x000000000e0006a8                rr_geo_0006A8
                0x000000000e0006c0                rr_geo_0006C0
                0x000000000e0006d8                rr_geo_0006D8
                0x000000000e0006f0                rr_geo_0006F0
                0x000000000e000708                rr_geo_000708
                0x000000000e000720                rr_geo_000720
                0x000000000e000738                rr_geo_000738
                0x000000000e000758                rr_geo_000758
                0x000000000e000770                rr_geo_000770
                0x000000000e000788                rr_geo_000788
                0x000000000e0007a0                rr_geo_0007A0
                0x000000000e0007b8                rr_geo_0007B8
                0x000000000e0007d0                rr_geo_0007D0
                0x000000000e0007e8                rr_geo_0007E8
                0x000000000e000800                rr_geo_000800
                0x000000000e000818                rr_geo_000818
                0x000000000e000830                rr_geo_000830
                0x000000000e000848                rr_geo_000848
                0x000000000e000860                rr_geo_000860
                0x000000000e000878                rr_geo_000878
                0x000000000e000890                rr_geo_000890
                0x000000000e0008a8                rr_geo_0008A8
                0x000000000e0008c0                rr_geo_0008C0
                0x000000000e0008d8                rr_geo_0008D8
                0x000000000e0008f0                rr_geo_0008F0
                0x000000000e000908                rr_geo_000908
                0x000000000e000920                rr_geo_000920
                0x000000000e000940                rr_geo_000940
                0x000000000e000958                rr_geo_000958
                0x000000000e000970                rr_geo_000970
                0x000000000e000988                rr_geo_000988
                0x000000000e0009a0                rr_geo_0009A0
                0x000000000e0009b8                rr_geo_0009B8
                0x000000000e0009d0                rr_geo_0009D0
                0x000000000e000a80                _rrSegmentEnd = (ADDR (.rr) + SIZEOF (.rr))
                0x00000000007cd140                _rrSegmentRomEnd = (__romPos + SIZEOF (.rr))
                [0x00000000007cc6c0]                __romPos = (__romPos + SIZEOF (.rr))
                0x0000000007000000                _castle_grounds_segment_7SegmentStart = ADDR (.castle_grounds_segment_7)
                0x00000000007cc6c0                _castle_grounds_segment_7SegmentRomStart = __romPos

.castle_grounds_segment_7
                0x0000000007000000     0x9a20 load address 0x000000000044abc0
 build/us/bin/castle_grounds/header.o(.seg07)
 .seg07         0x0000000007000000     0x9a20 build/us/bin/castle_grounds/header.o
                0x0000000007009a20                _castle_grounds_segment_7SegmentEnd = (ADDR (.castle_grounds_segment_7) + SIZEOF (.castle_grounds_segment_7))
                0x00000000007d60e0                _castle_grounds_segment_7SegmentRomEnd = (__romPos + SIZEOF (.castle_grounds_segment_7))
                [0x00000000007cc6c0]                __romPos = (__romPos + SIZEOF (.castle_grounds_segment_7))
                0x000000000e000000                _castle_groundsSegmentStart = ADDR (.castle_grounds)
                0x00000000007cc6c0                _castle_groundsSegmentRomStart = __romPos

.castle_grounds
                0x000000000e000000      0x820 load address 0x00000000004545e0
 build/us/bin/castle_grounds/header.o(.level)
 .level         0x000000000e000000      0x820 build/us/bin/castle_grounds/header.o
                0x000000000e000508                level_castle_grounds_entry
                0x000000000e000660                castle_grounds_geo_000660
                0x000000000e0006f4                castle_grounds_geo_0006F4
                0x000000000e00070c                castle_grounds_geo_00070C
                0x000000000e000724                castle_grounds_geo_000724
                0x000000000e00073c                castle_grounds_geo_00073C
                0x000000000e000820                _castle_groundsSegmentEnd = (ADDR (.castle_grounds) + SIZEOF (.castle_grounds))
                0x00000000007ccee0                _castle_groundsSegmentRomEnd = (__romPos + SIZEOF (.castle_grounds))
                [0x00000000007cc6c0]                __romPos = (__romPos + SIZEOF (.castle_grounds))
                0x0000000007000000                _bitdw_segment_7SegmentStart = ADDR (.bitdw_segment_7)
                0x00000000007cc6c0                _bitdw_segment_7SegmentRomStart = __romPos

.bitdw_segment_7
                0x0000000007000000     0x7160 load address 0x0000000000454e00
 build/us/bin/bitdw/header.o(.seg07)
 .seg07         0x0000000007000000     0x7160 build/us/bin/bitdw/header.o
                0x0000000007007160                _bitdw_segment_7SegmentEnd = (ADDR (.bitdw_segment_7) + SIZEOF (.bitdw_segment_7))
                0x00000000007d3820                _bitdw_segment_7SegmentRomEnd = (__romPos + SIZEOF (.bitdw_segment_7))
                [0x00000000007cc6c0]                __romPos = (__romPos + SIZEOF (.bitdw_segment_7))
                0x000000000e000000                _bitdwSegmentStart = ADDR (.bitdw)
                0x00000000007cc6c0                _bitdwSegmentRomStart = __romPos

.bitdw          0x000000000e000000      0x6a0 load address 0x000000000045bf60
 build/us/bin/bitdw/header.o(.level)
 .level         0x000000000e000000      0x6a0 build/us/bin/bitdw/header.o
                0x000000000e000174                level_bitdw_entry
                0x000000000e0003c0                geo_bitdw_0003C0
                0x000000000e0003d8                geo_bitdw_0003D8
                0x000000000e0003f0                geo_bitdw_0003F0
                0x000000000e000408                geo_bitdw_000408
                0x000000000e000420                geo_bitdw_000420
                0x000000000e000438                geo_bitdw_000438
                0x000000000e000450                geo_bitdw_000450
                0x000000000e000468                geo_bitdw_000468
                0x000000000e000480                geo_bitdw_000480
                0x000000000e000498                geo_bitdw_000498
                0x000000000e0004b0                geo_bitdw_0004B0
                0x000000000e0004c8                geo_bitdw_0004C8
                0x000000000e0004e0                geo_bitdw_0004E0
                0x000000000e0004f8                geo_bitdw_0004F8
                0x000000000e000510                geo_bitdw_000510
                0x000000000e000528                geo_bitdw_000528
                0x000000000e000540                geo_bitdw_000540
                0x000000000e000558                geo_bitdw_000558
                0x000000000e000570                geo_bitdw_000570
                0x000000000e000588                geo_bitdw_000588
                0x000000000e0005a0                geo_bitdw_0005A0
                0x000000000e0005b8                geo_bitdw_0005B8
                0x000000000e0005d0                geo_bitdw_0005D0
                0x000000000e0005e8                geo_bitdw_0005E8
                0x000000000e000600                geo_bitdw_000600
                0x000000000e000618                geo_bitdw_000618
                0x000000000e0006a0                _bitdwSegmentEnd = (ADDR (.bitdw) + SIZEOF (.bitdw))
                0x00000000007ccd60                _bitdwSegmentRomEnd = (__romPos + SIZEOF (.bitdw))
                [0x00000000007cc6c0]                __romPos = (__romPos + SIZEOF (.bitdw))
                0x0000000007000000                _vcutm_segment_7SegmentStart = ADDR (.vcutm_segment_7)
                0x00000000007cc6c0                _vcutm_segment_7SegmentRomStart = __romPos

.vcutm_segment_7
                0x0000000007000000     0x4c20 load address 0x000000000045c600
 build/us/bin/vcutm/header.o(.seg07)
 .seg07         0x0000000007000000     0x4c20 build/us/bin/vcutm/header.o
                0x0000000007004c20                _vcutm_segment_7SegmentEnd = (ADDR (.vcutm_segment_7) + SIZEOF (.vcutm_segment_7))
                0x00000000007d12e0                _vcutm_segment_7SegmentRomEnd = (__romPos + SIZEOF (.vcutm_segment_7))
                [0x00000000007cc6c0]                __romPos = (__romPos + SIZEOF (.vcutm_segment_7))
                0x000000000e000000                _vcutmSegmentStart = ADDR (.vcutm)
                0x00000000007cc6c0                _vcutmSegmentRomStart = __romPos

.vcutm          0x000000000e000000      0x2b0 load address 0x0000000000461220
 build/us/bin/vcutm/header.o(.level)
 .level         0x000000000e000000      0x2b0 build/us/bin/vcutm/header.o
                0x000000000e0000cc                level_vcutm_entry
                0x000000000e0001f0                vcutm_geo_0001F0
                0x000000000e000208                vcutm_geo_000208
                0x000000000e0002b0                _vcutmSegmentEnd = (ADDR (.vcutm) + SIZEOF (.vcutm))
                0x00000000007cc970                _vcutmSegmentRomEnd = (__romPos + SIZEOF (.vcutm))
                [0x00000000007cc6c0]                __romPos = (__romPos + SIZEOF (.vcutm))
                0x0000000007000000                _bitfs_segment_7SegmentStart = ADDR (.bitfs_segment_7)
                0x00000000007cc6c0                _bitfs_segment_7SegmentRomStart = __romPos

.bitfs_segment_7
                0x0000000007000000     0x9370 load address 0x00000000004614d0
 build/us/bin/bitfs/header.o(.seg07)
 .seg07         0x0000000007000000     0x9370 build/us/bin/bitfs/header.o
                0x0000000007009370                _bitfs_segment_7SegmentEnd = (ADDR (.bitfs_segment_7) + SIZEOF (.bitfs_segment_7))
                0x00000000007d5a30                _bitfs_segment_7SegmentRomEnd = (__romPos + SIZEOF (.bitfs_segment_7))
                [0x00000000007cc6c0]                __romPos = (__romPos + SIZEOF (.bitfs_segment_7))
                0x000000000e000000                _bitfsSegmentStart = ADDR (.bitfs)
                0x00000000007cc6c0                _bitfsSegmentRomStart = __romPos

.bitfs          0x000000000e000000      0x850 load address 0x000000000046a840
 build/us/bin/bitfs/header.o(.level)
 .level         0x000000000e000000      0x850 build/us/bin/bitfs/header.o
                0x000000000e000234                level_bitfs_entry
                0x000000000e0004b0                bitfs_geo_0004B0
                0x000000000e0004c8                bitfs_geo_0004C8
                0x000000000e0004e0                bitfs_geo_0004E0
                0x000000000e0004f8                bitfs_geo_0004F8
                0x000000000e000510                bitfs_geo_000510
                0x000000000e000528                bitfs_geo_000528
                0x000000000e000540                bitfs_geo_000540
                0x000000000e000558                bitfs_geo_000558
                0x000000000e000570                bitfs_geo_000570
                0x000000000e000588                bitfs_geo_000588
                0x000000000e0005a0                bitfs_geo_0005A0
                0x000000000e0005b8                bitfs_geo_0005B8
                0x000000000e0005d0                bitfs_geo_0005D0
                0x000000000e0005e8                bitfs_geo_0005E8
                0x000000000e000600                bitfs_geo_000600
                0x000000000e000618                bitfs_geo_000618
                0x000000000e000630                bitfs_geo_000630
                0x000000000e000648                bitfs_geo_000648
                0x000000000e000660                bitfs_geo_000660
                0x000000000e000678                bitfs_geo_000678
                0x000000000e000690                bitfs_geo_000690
                0x000000000e0006a8                bitfs_geo_0006A8
                0x000000000e0006c0                bitfs_geo_0006C0
                0x000000000e0006d8                bitfs_geo_0006D8
                0x000000000e0006f0                bitfs_geo_0006F0
                0x000000000e000708                bitfs_geo_000708
                0x000000000e000728                bitfs_geo_000728
                0x000000000e000740                bitfs_geo_000740
                0x000000000e000758                bitfs_geo_000758
                0x000000000e000770                bitfs_geo_000770
                0x000000000e000788                bitfs_geo_000788
                0x000000000e0007a0                bitfs_geo_0007A0
                0x000000000e000850                _bitfsSegmentEnd = (ADDR (.bitfs) + SIZEOF (.bitfs))
                0x00000000007ccf10                _bitfsSegmentRomEnd = (__romPos + SIZEOF (.bitfs))
                [0x00000000007cc6c0]                __romPos = (__romPos + SIZEOF (.bitfs))
                0x0000000007000000                _sa_segment_7SegmentStart = ADDR (.sa_segment_7)
                0x00000000007cc6c0                _sa_segment_7SegmentRomStart = __romPos

.sa_segment_7   0x0000000007000000     0x1110 load address 0x000000000046b090
 build/us/bin/sa/header.o(.seg07)
 .seg07         0x0000000007000000     0x1110 build/us/bin/sa/header.o
                0x0000000007001110                _sa_segment_7SegmentEnd = (ADDR (.sa_segment_7) + SIZEOF (.sa_segment_7))
                0x00000000007cd7d0                _sa_segment_7SegmentRomEnd = (__romPos + SIZEOF (.sa_segment_7))
                [0x00000000007cc6c0]                __romPos = (__romPos + SIZEOF (.sa_segment_7))
                0x000000000e000000                _saSegmentStart = ADDR (.sa)
                0x00000000007cc6c0                _saSegmentRomStart = __romPos

.sa             0x000000000e000000      0x200 load address 0x000000000046c1a0
 build/us/bin/sa/header.o(.level)
 .level         0x000000000e000000      0x200 build/us/bin/sa/header.o
                0x000000000e000050                level_sa_entry
                0x000000000e000170                sa_geo_000170
                0x000000000e000200                _saSegmentEnd = (ADDR (.sa) + SIZEOF (.sa))
                0x00000000007cc8c0                _saSegmentRomEnd = (__romPos + SIZEOF (.sa))
                [0x00000000007cc6c0]                __romPos = (__romPos + SIZEOF (.sa))
                0x0000000007000000                _bits_segment_7SegmentStart = ADDR (.bits_segment_7)
                0x00000000007cc6c0                _bits_segment_7SegmentRomStart = __romPos

.bits_segment_7
                0x0000000007000000     0xb960 load address 0x000000000046c3a0
 build/us/bin/bits/header.o(.seg07)
 .seg07         0x0000000007000000     0xb960 build/us/bin/bits/header.o
                0x000000000700b960                _bits_segment_7SegmentEnd = (ADDR (.bits_segment_7) + SIZEOF (.bits_segment_7))
                0x00000000007d8020                _bits_segment_7SegmentRomEnd = (__romPos + SIZEOF (.bits_segment_7))
                [0x00000000007cc6c0]                __romPos = (__romPos + SIZEOF (.bits_segment_7))
                0x000000000e000000                _bitsSegmentStart = ADDR (.bits)
                0x00000000007cc6c0                _bitsSegmentRomStart = __romPos

.bits           0x000000000e000000      0x7a0 load address 0x0000000000477d00
 build/us/bin/bits/header.o(.level)
 .level         0x000000000e000000      0x7a0 build/us/bin/bits/header.o
                0x000000000e0001e8                level_bits_entry
                0x000000000e000430                bits_geo_000430
                0x000000000e000448                bits_geo_000448
                0x000000000e000460                bits_geo_000460
                0x000000000e000478                bits_geo_000478
                0x000000000e000490                bits_geo_000490
                0x000000000e0004a8                bits_geo_0004A8
                0x000000000e0004c0                bits_geo_0004C0
                0x000000000e0004d8                bits_geo_0004D8
                0x000000000e0004f0                bits_geo_0004F0
                0x000000000e000508                bits_geo_000508
                0x000000000e000520                bits_geo_000520
                0x000000000e000538                bits_geo_000538
                0x000000000e000550                bits_geo_000550
                0x000000000e000568                bits_geo_000568
                0x000000000e000580                bits_geo_000580
                0x000000000e000598                bits_geo_000598
                0x000000000e0005b0                bits_geo_0005B0
                0x000000000e0005c8                bits_geo_0005C8
                0x000000000e0005e0                bits_geo_0005E0
                0x000000000e0005f8                bits_geo_0005F8
                0x000000000e000610                bits_geo_000610
                0x000000000e000628                bits_geo_000628
                0x000000000e000640                bits_geo_000640
                0x000000000e000658                bits_geo_000658
                0x000000000e000670                bits_geo_000670
                0x000000000e000688                bits_geo_000688
                0x000000000e0006a0                bits_geo_0006A0
                0x000000000e0006b8                bits_geo_0006B8
                0x000000000e0006d0                bits_geo_0006D0
                0x000000000e0006e8                bits_geo_0006E8
                0x000000000e000700                bits_geo_000700
                0x000000000e000718                bits_geo_000718
                0x000000000e0007a0                _bitsSegmentEnd = (ADDR (.bits) + SIZEOF (.bits))
                0x00000000007cce60                _bitsSegmentRomEnd = (__romPos + SIZEOF (.bits))
                [0x00000000007cc6c0]                __romPos = (__romPos + SIZEOF (.bits))
                0x0000000007000000                _lll_segment_7SegmentStart = ADDR (.lll_segment_7)
                0x00000000007cc6c0                _lll_segment_7SegmentRomStart = __romPos

.lll_segment_7  0x0000000007000000    0x14510 load address 0x00000000004784a0
 build/us/bin/lll/header.o(.seg07)
 .seg07         0x0000000007000000    0x14510 build/us/bin/lll/header.o
                0x0000000007014510                _lll_segment_7SegmentEnd = (ADDR (.lll_segment_7) + SIZEOF (.lll_segment_7))
                0x00000000007e0bd0                _lll_segment_7SegmentRomEnd = (__romPos + SIZEOF (.lll_segment_7))
                [0x00000000007cc6c0]                __romPos = (__romPos + SIZEOF (.lll_segment_7))
                0x000000000e000000                _lllSegmentStart = ADDR (.lll)
                0x00000000007cc6c0                _lllSegmentRomStart = __romPos

.lll            0x000000000e000000      0xf80 load address 0x000000000048c9b0
 build/us/bin/lll/header.o(.level)
 .level         0x000000000e000000      0xf80 build/us/bin/lll/header.o
                0x000000000e00067c                level_lll_entry
                0x000000000e0009e0                lll_geo_0009E0
                0x000000000e0009f8                lll_geo_0009F8
                0x000000000e000a10                lll_geo_000A10
                0x000000000e000a28                lll_geo_000A28
                0x000000000e000a40                lll_geo_000A40
                0x000000000e000a60                lll_geo_000A60
                0x000000000e000a78                lll_geo_000A78
                0x000000000e000a90                lll_geo_000A90
                0x000000000e000aa8                lll_geo_000AA8
                0x000000000e000ac0                lll_geo_000AC0
                0x000000000e000ad8                lll_geo_000AD8
                0x000000000e000af0                lll_geo_000AF0
                0x000000000e000b08                lll_geo_000B08
                0x000000000e000b20                lll_geo_000B20
                0x000000000e000b38                lll_geo_000B38
                0x000000000e000b50                lll_geo_000B50
                0x000000000e000b68                lll_geo_000B68
                0x000000000e000b80                lll_geo_000B80
                0x000000000e000b98                lll_geo_000B98
                0x000000000e000bb0                lll_geo_000BB0
                0x000000000e000bc8                lll_geo_000BC8
                0x000000000e000be0                lll_geo_000BE0
                0x000000000e000bf8                lll_geo_000BF8
                0x000000000e000c10                lll_geo_000C10
                0x000000000e000c30                lll_geo_000C30
                0x000000000e000c50                lll_geo_000C50
                0x000000000e000c70                lll_geo_000C70
                0x000000000e000c90                lll_geo_000C90
                0x000000000e000cb0                lll_geo_000CB0
                0x000000000e000cd0                lll_geo_000CD0
                0x000000000e000cf0                lll_geo_000CF0
                0x000000000e000d10                lll_geo_000D10
                0x000000000e000d30                lll_geo_000D30
                0x000000000e000d50                lll_geo_000D50
                0x000000000e000d70                lll_geo_000D70
                0x000000000e000d90                lll_geo_000D90
                0x000000000e000db0                lll_geo_000DB0
                0x000000000e000dd0                lll_geo_000DD0
                0x000000000e000de8                lll_geo_000DE8
                0x000000000e000e00                lll_geo_000E00
                0x000000000e000ea8                lll_geo_000EA8
                0x000000000e000ec0                lll_geo_000EC0
                0x000000000e000f80                _lllSegmentEnd = (ADDR (.lll) + SIZEOF (.lll))
                0x00000000007cd640                _lllSegmentRomEnd = (__romPos + SIZEOF (.lll))
                [0x00000000007cc6c0]                __romPos = (__romPos + SIZEOF (.lll))
                0x0000000007000000                _ddd_segment_7SegmentStart = ADDR (.ddd_segment_7)
                0x00000000007cc6c0                _ddd_segment_7SegmentRomStart = __romPos

.ddd_segment_7  0x0000000007000000     0x8130 load address 0x000000000048d930
 build/us/bin/ddd/header.o(.seg07)
 .seg07         0x0000000007000000     0x8130 build/us/bin/ddd/header.o
                0x0000000007008130                _ddd_segment_7SegmentEnd = (ADDR (.ddd_segment_7) + SIZEOF (.ddd_segment_7))
                0x00000000007d47f0                _ddd_segment_7SegmentRomEnd = (__romPos + SIZEOF (.ddd_segment_7))
                [0x00000000007cc6c0]                __romPos = (__romPos + SIZEOF (.ddd_segment_7))
                0x000000000e000000                _dddSegmentStart = ADDR (.ddd)
                0x00000000007cc6c0                _dddSegmentRomStart = __romPos

.ddd            0x000000000e000000      0x630 load address 0x0000000000495a60
 build/us/bin/ddd/header.o(.level)
 .level         0x000000000e000000      0x630 build/us/bin/ddd/header.o
                0x000000000e00026c                level_ddd_entry
                0x000000000e000450                ddd_geo_000450
                0x000000000e000478                ddd_geo_000478
                0x000000000e0004a0                ddd_geo_0004A0
                0x000000000e0004c0                ddd_geo_0004C0
                0x000000000e000570                ddd_geo_000570
                0x000000000e000630                _dddSegmentEnd = (ADDR (.ddd) + SIZEOF (.ddd))
                0x00000000007cccf0                _dddSegmentRomEnd = (__romPos + SIZEOF (.ddd))
                [0x00000000007cc6c0]                __romPos = (__romPos + SIZEOF (.ddd))
                0x0000000007000000                _wf_segment_7SegmentStart = ADDR (.wf_segment_7)
                0x00000000007cc6c0                _wf_segment_7SegmentRomStart = __romPos

.wf_segment_7   0x0000000007000000     0x79c0 load address 0x0000000000496090
 build/us/bin/wf/header.o(.seg07)
 .seg07         0x0000000007000000     0x79c0 build/us/bin/wf/header.o
                0x00000000070079c0                _wf_segment_7SegmentEnd = (ADDR (.wf_segment_7) + SIZEOF (.wf_segment_7))
                0x00000000007d4080                _wf_segment_7SegmentRomEnd = (__romPos + SIZEOF (.wf_segment_7))
                [0x00000000007cc6c0]                __romPos = (__romPos + SIZEOF (.wf_segment_7))
                0x000000000e000000                _wfSegmentStart = ADDR (.wf)
                0x00000000007cc6c0                _wfSegmentRomStart = __romPos

.wf             0x000000000e000000      0xcc0 load address 0x000000000049da50
 build/us/bin/wf/header.o(.level)
 .level         0x000000000e000000      0xcc0 build/us/bin/wf/header.o
                0x000000000e000568                level_wf_entry
                0x000000000e0007e0                wf_geo_0007E0
                0x000000000e000820                wf_geo_000820
                0x000000000e000860                wf_geo_000860
                0x000000000e000878                wf_geo_000878
                0x000000000e000890                wf_geo_000890
                0x000000000e0008a8                wf_geo_0008A8
                0x000000000e0008e8                wf_geo_0008E8
                0x000000000e000900                wf_geo_000900
                0x000000000e000940                wf_geo_000940
                0x000000000e000958                wf_geo_000958
                0x000000000e0009a0                wf_geo_0009A0
                0x000000000e0009b8                wf_geo_0009B8
                0x000000000e0009d0                wf_geo_0009D0
                0x000000000e0009e8                wf_geo_0009E8
                0x000000000e000a00                wf_geo_000A00
                0x000000000e000a40                wf_geo_000A40
                0x000000000e000a58                wf_geo_000A58
                0x000000000e000a98                wf_geo_000A98
                0x000000000e000ab0                wf_geo_000AB0
                0x000000000e000ac8                wf_geo_000AC8
                0x000000000e000ae0                wf_geo_000AE0
                0x000000000e000af8                wf_geo_000AF8
                0x000000000e000b10                wf_geo_000B10
                0x000000000e000b38                wf_geo_000B38
                0x000000000e000b60                wf_geo_000B60
                0x000000000e000b78                wf_geo_000B78
                0x000000000e000b90                wf_geo_000B90
                0x000000000e000ba8                wf_geo_000BA8
                0x000000000e000bc8                wf_geo_000BC8
                0x000000000e000be0                wf_geo_000BE0
                0x000000000e000bf8                wf_geo_000BF8
                0x000000000e000cc0                _wfSegmentEnd = (ADDR (.wf) + SIZEOF (.wf))
                0x00000000007cd380                _wfSegmentRomEnd = (__romPos + SIZEOF (.wf))
                [0x00000000007cc6c0]                __romPos = (__romPos + SIZEOF (.wf))
                0x0000000007000000                _ending_segment_7SegmentStart = ADDR (.ending_segment_7)
                0x00000000007cc6c0                _ending_segment_7SegmentRomStart = __romPos

.ending_segment_7
                0x0000000007000000     0xdda0 load address 0x000000000049e710
 build/us/bin/ending/header.o(.seg07)
 .seg07         0x0000000007000000     0xdda0 build/us/bin/ending/header.o
                0x000000000700dda0                _ending_segment_7SegmentEnd = (ADDR (.ending_segment_7) + SIZEOF (.ending_segment_7))
                0x00000000007da460                _ending_segment_7SegmentRomEnd = (__romPos + SIZEOF (.ending_segment_7))
                [0x00000000007cc6c0]                __romPos = (__romPos + SIZEOF (.ending_segment_7))
                0x000000000e000000                _endingSegmentStart = ADDR (.ending)
                0x00000000007cc6c0                _endingSegmentRomStart = __romPos

.ending         0x000000000e000000       0xc0 load address 0x00000000004ac4b0
 build/us/bin/ending/header.o(.level)
 .level         0x000000000e000000       0xc0 build/us/bin/ending/header.o
                0x000000000e000000                level_ending_entry
                0x000000000e000050                ending_geo_000050
                0x000000000e0000c0                _endingSegmentEnd = (ADDR (.ending) + SIZEOF (.ending))
                0x00000000007cc780                _endingSegmentRomEnd = (__romPos + SIZEOF (.ending))
                [0x00000000007cc6c0]                __romPos = (__romPos + SIZEOF (.ending))
                0x0000000007000000                _castle_courtyard_segment_7SegmentStart = ADDR (.castle_courtyard_segment_7)
                0x00000000007cc6c0                _castle_courtyard_segment_7SegmentRomStart = __romPos

.castle_courtyard_segment_7
                0x0000000007000000     0x3100 load address 0x00000000004ac570
 build/us/bin/castle_courtyard/header.o(.seg07)
 .seg07         0x0000000007000000     0x3100 build/us/bin/castle_courtyard/header.o
                0x0000000007003100                _castle_courtyard_segment_7SegmentEnd = (ADDR (.castle_courtyard_segment_7) + SIZEOF (.castle_courtyard_segment_7))
                0x00000000007cf7c0                _castle_courtyard_segment_7SegmentRomEnd = (__romPos + SIZEOF (.castle_courtyard_segment_7))
                [0x00000000007cc6c0]                __romPos = (__romPos + SIZEOF (.castle_courtyard_segment_7))
                0x000000000e000000                _castle_courtyardSegmentStart = ADDR (.castle_courtyard)
                0x00000000007cc6c0                _castle_courtyardSegmentRomStart = __romPos

.castle_courtyard
                0x000000000e000000      0x2c0 load address 0x00000000004af670
 build/us/bin/castle_courtyard/header.o(.level)
 .level         0x000000000e000000      0x2c0 build/us/bin/castle_courtyard/header.o
                0x000000000e000098                level_castle_courtyard_entry
                0x000000000e000200                castle_courtyard_geo_000200
                0x000000000e000218                castle_courtyard_geo_000218
                0x000000000e0002c0                _castle_courtyardSegmentEnd = (ADDR (.castle_courtyard) + SIZEOF (.castle_courtyard))
                0x00000000007cc980                _castle_courtyardSegmentRomEnd = (__romPos + SIZEOF (.castle_courtyard))
                [0x00000000007cc6c0]                __romPos = (__romPos + SIZEOF (.castle_courtyard))
                0x0000000007000000                _pss_segment_7SegmentStart = ADDR (.pss_segment_7)
                0x00000000007cc6c0                _pss_segment_7SegmentRomStart = __romPos

.pss_segment_7  0x0000000007000000     0x85e0 load address 0x00000000004af930
 build/us/bin/pss/header.o(.seg07)
 .seg07         0x0000000007000000     0x85e0 build/us/bin/pss/header.o
                0x00000000070085e0                _pss_segment_7SegmentEnd = (ADDR (.pss_segment_7) + SIZEOF (.pss_segment_7))
                0x00000000007d4ca0                _pss_segment_7SegmentRomEnd = (__romPos + SIZEOF (.pss_segment_7))
                [0x00000000007cc6c0]                __romPos = (__romPos + SIZEOF (.pss_segment_7))
                0x000000000e000000                _pssSegmentStart = ADDR (.pss)
                0x00000000007cc6c0                _pssSegmentRomStart = __romPos

.pss            0x000000000e000000      0x1c0 load address 0x00000000004b7f10
 build/us/bin/pss/header.o(.level)
 .level         0x000000000e000000      0x1c0 build/us/bin/pss/header.o
                0x000000000e000000                level_pss_entry
                0x000000000e000100                pss_geo_000100
                0x000000000e0001c0                _pssSegmentEnd = (ADDR (.pss) + SIZEOF (.pss))
                0x00000000007cc880                _pssSegmentRomEnd = (__romPos + SIZEOF (.pss))
                [0x00000000007cc6c0]                __romPos = (__romPos + SIZEOF (.pss))
                0x0000000007000000                _cotmc_segment_7SegmentStart = ADDR (.cotmc_segment_7)
                0x00000000007cc6c0                _cotmc_segment_7SegmentRomStart = __romPos

.cotmc_segment_7
                0x0000000007000000     0x6910 load address 0x00000000004b80d0
 build/us/bin/cotmc/header.o(.seg07)
 .seg07         0x0000000007000000     0x6910 build/us/bin/cotmc/header.o
                0x0000000007006910                _cotmc_segment_7SegmentEnd = (ADDR (.cotmc_segment_7) + SIZEOF (.cotmc_segment_7))
                0x00000000007d2fd0                _cotmc_segment_7SegmentRomEnd = (__romPos + SIZEOF (.cotmc_segment_7))
                [0x00000000007cc6c0]                __romPos = (__romPos + SIZEOF (.cotmc_segment_7))
                0x000000000e000000                _cotmcSegmentStart = ADDR (.cotmc)
                0x00000000007cc6c0                _cotmcSegmentRomStart = __romPos

.cotmc          0x000000000e000000      0x250 load address 0x00000000004be9e0
 build/us/bin/cotmc/header.o(.level)
 .level         0x000000000e000000      0x250 build/us/bin/cotmc/header.o
                0x000000000e000068                level_cotmc_entry
                0x000000000e0001a0                cotmc_geo_0001A0
                0x000000000e000250                _cotmcSegmentEnd = (ADDR (.cotmc) + SIZEOF (.cotmc))
                0x00000000007cc910                _cotmcSegmentRomEnd = (__romPos + SIZEOF (.cotmc))
                [0x00000000007cc6c0]                __romPos = (__romPos + SIZEOF (.cotmc))
                0x0000000007000000                _totwc_segment_7SegmentStart = ADDR (.totwc_segment_7)
                0x00000000007cc6c0                _totwc_segment_7SegmentRomStart = __romPos

.totwc_segment_7
                0x0000000007000000     0x3ad0 load address 0x00000000004bec30
 build/us/bin/totwc/header.o(.seg07)
 .seg07         0x0000000007000000     0x3ad0 build/us/bin/totwc/header.o
                0x0000000007003ad0                _totwc_segment_7SegmentEnd = (ADDR (.totwc_segment_7) + SIZEOF (.totwc_segment_7))
                0x00000000007d0190                _totwc_segment_7SegmentRomEnd = (__romPos + SIZEOF (.totwc_segment_7))
                [0x00000000007cc6c0]                __romPos = (__romPos + SIZEOF (.totwc_segment_7))
                0x000000000e000000                _totwcSegmentStart = ADDR (.totwc)
                0x00000000007cc6c0                _totwcSegmentRomStart = __romPos

.totwc          0x000000000e000000      0x220 load address 0x00000000004c2700
 build/us/bin/totwc/header.o(.level)
 .level         0x000000000e000000      0x220 build/us/bin/totwc/header.o
                0x000000000e000038                level_totwc_entry
                0x000000000e000160                totwc_geo_000160
                0x000000000e000188                totwc_geo_000188
                0x000000000e000220                _totwcSegmentEnd = (ADDR (.totwc) + SIZEOF (.totwc))
                0x00000000007cc8e0                _totwcSegmentRomEnd = (__romPos + SIZEOF (.totwc))
                [0x00000000007cc6c0]                __romPos = (__romPos + SIZEOF (.totwc))
                0x0000000007000000                _bowser_1_segment_7SegmentStart = ADDR (.bowser_1_segment_7)
                0x00000000007cc6c0                _bowser_1_segment_7SegmentRomStart = __romPos

.bowser_1_segment_7
                0x0000000007000000     0x18a0 load address 0x00000000004c2920
 build/us/bin/bowser_1/header.o(.seg07)
 .seg07         0x0000000007000000     0x18a0 build/us/bin/bowser_1/header.o
                0x00000000070018a0                _bowser_1_segment_7SegmentEnd = (ADDR (.bowser_1_segment_7) + SIZEOF (.bowser_1_segment_7))
                0x00000000007cdf60                _bowser_1_segment_7SegmentRomEnd = (__romPos + SIZEOF (.bowser_1_segment_7))
                [0x00000000007cc6c0]                __romPos = (__romPos + SIZEOF (.bowser_1_segment_7))
                0x000000000e000000                _bowser_1SegmentStart = ADDR (.bowser_1)
                0x00000000007cc6c0                _bowser_1SegmentRomStart = __romPos

.bowser_1       0x000000000e000000      0x160 load address 0x00000000004c41c0
 build/us/bin/bowser_1/header.o(.level)
 .level         0x000000000e000000      0x160 build/us/bin/bowser_1/header.o
                0x000000000e000000                level_bowser_1_entry
                0x000000000e0000d0                bowser_1_geo_0000D0
                0x000000000e000160                _bowser_1SegmentEnd = (ADDR (.bowser_1) + SIZEOF (.bowser_1))
                0x00000000007cc820                _bowser_1SegmentRomEnd = (__romPos + SIZEOF (.bowser_1))
                [0x00000000007cc6c0]                __romPos = (__romPos + SIZEOF (.bowser_1))
                0x0000000007000000                _wmotr_segment_7SegmentStart = ADDR (.wmotr_segment_7)
                0x00000000007cc6c0                _wmotr_segment_7SegmentRomStart = __romPos

.wmotr_segment_7
                0x0000000007000000     0x9610 load address 0x00000000004c4320
 build/us/bin/wmotr/header.o(.seg07)
 .seg07         0x0000000007000000     0x9610 build/us/bin/wmotr/header.o
                0x0000000007009610                _wmotr_segment_7SegmentEnd = (ADDR (.wmotr_segment_7) + SIZEOF (.wmotr_segment_7))
                0x00000000007d5cd0                _wmotr_segment_7SegmentRomEnd = (__romPos + SIZEOF (.wmotr_segment_7))
                [0x00000000007cc6c0]                __romPos = (__romPos + SIZEOF (.wmotr_segment_7))
                0x000000000e000000                _wmotrSegmentStart = ADDR (.wmotr)
                0x00000000007cc6c0                _wmotrSegmentRomStart = __romPos

.wmotr          0x000000000e000000      0x2a0 load address 0x00000000004cd930
 build/us/bin/wmotr/header.o(.level)
 .level         0x000000000e000000      0x2a0 build/us/bin/wmotr/header.o
                0x000000000e0000b0                level_wmotr_entry
                0x000000000e0001f0                wmotr_geo_0001F0
                0x000000000e0002a0                _wmotrSegmentEnd = (ADDR (.wmotr) + SIZEOF (.wmotr))
                0x00000000007cc960                _wmotrSegmentRomEnd = (__romPos + SIZEOF (.wmotr))
                [0x00000000007cc6c0]                __romPos = (__romPos + SIZEOF (.wmotr))
                0x0000000007000000                _bowser_2_segment_7SegmentStart = ADDR (.bowser_2_segment_7)
                0x00000000007cc6c0                _bowser_2_segment_7SegmentRomStart = __romPos

.bowser_2_segment_7
                0x0000000007000000      0xe20 load address 0x00000000004cdbd0
 build/us/bin/bowser_2/header.o(.seg07)
 .seg07         0x0000000007000000      0xe20 build/us/bin/bowser_2/header.o
                0x0000000007000e20                _bowser_2_segment_7SegmentEnd = (ADDR (.bowser_2_segment_7) + SIZEOF (.bowser_2_segment_7))
                0x00000000007cd4e0                _bowser_2_segment_7SegmentRomEnd = (__romPos + SIZEOF (.bowser_2_segment_7))
                [0x00000000007cc6c0]                __romPos = (__romPos + SIZEOF (.bowser_2_segment_7))
                0x000000000e000000                _bowser_2SegmentStart = ADDR (.bowser_2)
                0x00000000007cc6c0                _bowser_2SegmentRomStart = __romPos

.bowser_2       0x000000000e000000      0x210 load address 0x00000000004ce9f0
 build/us/bin/bowser_2/header.o(.level)
 .level         0x000000000e000000      0x210 build/us/bin/bowser_2/header.o
                0x000000000e00007c                level_bowser_2_entry
                0x000000000e000170                bowser_2_geo_000170
                0x000000000e000188                bowser_2_geo_000188
                0x000000000e000210                _bowser_2SegmentEnd = (ADDR (.bowser_2) + SIZEOF (.bowser_2))
                0x00000000007cc8d0                _bowser_2SegmentRomEnd = (__romPos + SIZEOF (.bowser_2))
                [0x00000000007cc6c0]                __romPos = (__romPos + SIZEOF (.bowser_2))
                0x0000000007000000                _bowser_3_segment_7SegmentStart = ADDR (.bowser_3_segment_7)
                0x00000000007cc6c0                _bowser_3_segment_7SegmentRomStart = __romPos

.bowser_3_segment_7
                0x0000000007000000     0x28f0 load address 0x00000000004cec00
 build/us/bin/bowser_3/header.o(.seg07)
 .seg07         0x0000000007000000     0x28f0 build/us/bin/bowser_3/header.o
                0x00000000070028f0                _bowser_3_segment_7SegmentEnd = (ADDR (.bowser_3_segment_7) + SIZEOF (.bowser_3_segment_7))
                0x00000000007cefb0                _bowser_3_segment_7SegmentRomEnd = (__romPos + SIZEOF (.bowser_3_segment_7))
                [0x00000000007cc6c0]                __romPos = (__romPos + SIZEOF (.bowser_3_segment_7))
                0x000000000e000000                _bowser_3SegmentStart = ADDR (.bowser_3)
                0x00000000007cc6c0                _bowser_3SegmentRomStart = __romPos

.bowser_3       0x000000000e000000      0x420 load address 0x00000000004d14f0
 build/us/bin/bowser_3/header.o(.level)
 .level         0x000000000e000000      0x420 build/us/bin/bowser_3/header.o
                0x000000000e00016c                level_bowser_3_entry
                0x000000000e000290                bowser_3_geo_000290
                0x000000000e0002a8                bowser_3_geo_0002A8
                0x000000000e0002c0                bowser_3_geo_0002C0
                0x000000000e0002d8                bowser_3_geo_0002D8
                0x000000000e0002f0                bowser_3_geo_0002F0
                0x000000000e000308                bowser_3_geo_000308
                0x000000000e000320                bowser_3_geo_000320
                0x000000000e000338                bowser_3_geo_000338
                0x000000000e000350                bowser_3_geo_000350
                0x000000000e000368                bowser_3_geo_000368
                0x000000000e000380                bowser_3_geo_000380
                0x000000000e000398                bowser_3_geo_000398
                0x000000000e000420                _bowser_3SegmentEnd = (ADDR (.bowser_3) + SIZEOF (.bowser_3))
                0x00000000007ccae0                _bowser_3SegmentRomEnd = (__romPos + SIZEOF (.bowser_3))
                [0x00000000007cc6c0]                __romPos = (__romPos + SIZEOF (.bowser_3))
                0x0000000007000000                _ttm_segment_7SegmentStart = ADDR (.ttm_segment_7)
                0x00000000007cc6c0                _ttm_segment_7SegmentRomStart = __romPos

.ttm_segment_7  0x0000000007000000    0x198e0 load address 0x00000000004d1910
 build/us/bin/ttm/header.o(.seg07)
 .seg07         0x0000000007000000    0x198e0 build/us/bin/ttm/header.o
                0x00000000070198e0                _ttm_segment_7SegmentEnd = (ADDR (.ttm_segment_7) + SIZEOF (.ttm_segment_7))
                0x00000000007e5fa0                _ttm_segment_7SegmentRomEnd = (__romPos + SIZEOF (.ttm_segment_7))
                [0x00000000007cc6c0]                __romPos = (__romPos + SIZEOF (.ttm_segment_7))
                0x000000000e000000                _ttmSegmentStart = ADDR (.ttm)
                0x00000000007cc6c0                _ttmSegmentRomStart = __romPos

.ttm            0x000000000e000000      0xe10 load address 0x00000000004eb1f0
 build/us/bin/ttm/header.o(.level)
 .level         0x000000000e000000      0xe10 build/us/bin/ttm/header.o
                0x000000000e000394                level_ttm_entry
                0x000000000e000710                ttm_geo_000710
                0x000000000e000730                ttm_geo_000730
                0x000000000e000748                ttm_geo_000748
                0x000000000e000778                ttm_geo_000778
                0x000000000e0007a8                ttm_geo_0007A8
                0x000000000e0007d8                ttm_geo_0007D8
                0x000000000e000808                ttm_geo_000808
                0x000000000e000830                ttm_geo_000830
                0x000000000e000858                ttm_geo_000858
                0x000000000e000880                ttm_geo_000880
                0x000000000e0008a8                ttm_geo_0008A8
                0x000000000e0008d0                ttm_geo_0008D0
                0x000000000e0008f8                ttm_geo_0008F8
                0x000000000e000920                ttm_geo_000920
                0x000000000e000948                ttm_geo_000948
                0x000000000e000970                ttm_geo_000970
                0x000000000e000990                ttm_geo_000990
                0x000000000e0009c0                ttm_geo_0009C0
                0x000000000e0009f0                ttm_geo_0009F0
                0x000000000e000a18                ttm_geo_000A18
                0x000000000e000a40                ttm_geo_000A40
                0x000000000e000a70                ttm_geo_000A70
                0x000000000e000b5c                ttm_geo_000B5C
                0x000000000e000bec                ttm_geo_000BEC
                0x000000000e000c84                ttm_geo_000C84
                0x000000000e000d14                ttm_geo_000D14
                0x000000000e000d4c                ttm_geo_000D4C
                0x000000000e000d84                ttm_geo_000D84
                0x000000000e000dbc                ttm_geo_000DBC
                0x000000000e000df4                ttm_geo_000DF4
                0x000000000e000e10                _ttmSegmentEnd = (ADDR (.ttm) + SIZEOF (.ttm))
                0x00000000007cd4d0                _ttmSegmentRomEnd = (__romPos + SIZEOF (.ttm))
                [0x00000000007cc6c0]                __romPos = (__romPos + SIZEOF (.ttm))
                0x00000000004ec000                _assetsSegmentStart = ADDR (.assets)
                0x00000000007cc6c0                _assetsSegmentRomStart = __romPos

.assets         0x00000000004ec000   0x2e06c0
 build/us/assets/mario_anim_data.o(.data)
 .data          0x00000000004ec000    0x8dc20 build/us/assets/mario_anim_data.o
                0x00000000004ec000                gMarioAnims
                0x0000000000579c20                . = ALIGN (0x10)
 build/us/assets/demo_data.o(.data)
 .data          0x0000000000579c20     0x1b00 build/us/assets/demo_data.o
                0x0000000000579c20                gDemoInputs
                0x000000000057b720                . = ALIGN (0x10)
 build/us/assets/sound_data.ctl.o(.data)
 .data          0x000000000057b720    0x17e40 build/us/assets/sound_data.ctl.o
                0x000000000057b720                gSoundDataADSR
                0x0000000000593560                . = ALIGN (0x10)
 build/us/assets/sound_data.tbl.o(.data)
 .data          0x0000000000593560   0x21d300 build/us/assets/sound_data.tbl.o
                0x0000000000593560                gSoundDataRaw
                0x00000000007b0860                . = ALIGN (0x10)
 build/us/assets/music_data.sbk.o(.data)
 .data          0x00000000007b0860    0x1be60 build/us/assets/music_data.sbk.o
                0x00000000007b0860                gMusicData
                0x00000000007cc620                gInstrumentSets
                0x00000000007cc6c0                . = ALIGN (0x10)
                0x00000000007cc6c0                _assetsSegmentEnd = (ADDR (.assets) + SIZEOF (.assets))
                0x0000000000aacd80                _assetsSegmentRomEnd = (__romPos + SIZEOF (.assets))
                [0x00000000007cc6c0]                __romPos = (__romPos + SIZEOF (.assets))

/DISCARD/
 *(*)
LOAD build/us/bin/bitfs_skybox.elf
LOAD build/us/bin/title_screen_bg.elf
LOAD build/us/bin/water.elf
LOAD build/us/bin/sky.elf
LOAD build/us/bin/bits_skybox.elf
LOAD build/us/bin/cloud_floor_skybox.elf
LOAD build/us/bin/debug_level_select.elf
LOAD build/us/bin/inside.elf
LOAD build/us/bin/generic.elf
LOAD build/us/bin/ccm_skybox.elf
LOAD build/us/bin/spooky.elf
LOAD build/us/bin/water_skybox.elf
LOAD build/us/bin/bidw_skybox.elf
LOAD build/us/bin/bbh_skybox.elf
LOAD build/us/bin/snow.elf
LOAD build/us/bin/outside.elf
LOAD build/us/bin/ssl_skybox.elf
LOAD build/us/bin/effect.elf
LOAD build/us/bin/wdw_skybox.elf
LOAD build/us/bin/cave.elf
LOAD build/us/bin/fire.elf
LOAD build/us/bin/segment2.elf
LOAD build/us/bin/clouds_skybox.elf
LOAD build/us/bin/mountain.elf
LOAD build/us/bin/machine.elf
LOAD build/us/bin/grass.elf
LOAD build/us/bin/group0.elf
LOAD build/us/bin/group1.elf
LOAD build/us/bin/group2.elf
LOAD build/us/bin/group3.elf
LOAD build/us/bin/group4.elf
LOAD build/us/bin/group5.elf
LOAD build/us/bin/group6.elf
LOAD build/us/bin/group7.elf
LOAD build/us/bin/group8.elf
LOAD build/us/bin/group9.elf
LOAD build/us/bin/group10.elf
LOAD build/us/bin/group11.elf
LOAD build/us/bin/group12.elf
LOAD build/us/bin/group13.elf
LOAD build/us/bin/group14.elf
LOAD build/us/bin/group15.elf
LOAD build/us/bin/group16.elf
LOAD build/us/bin/group17.elf
LOAD build/us/bin/common0.elf
LOAD build/us/bin/common1.elf
LOAD build/us/bin/bbh/leveldata.elf
LOAD build/us/bin/castle_grounds/leveldata.elf
LOAD build/us/bin/lll/leveldata.elf
LOAD build/us/bin/thi/leveldata.elf
LOAD build/us/bin/wdw/leveldata.elf
LOAD build/us/bin/ddd/leveldata.elf
LOAD build/us/bin/castle_inside/leveldata.elf
LOAD build/us/bin/bowser_2/leveldata.elf
LOAD build/us/bin/bowser_3/leveldata.elf
LOAD build/us/bin/ending/leveldata.elf
LOAD build/us/bin/menu/leveldata.elf
LOAD build/us/bin/jrb/leveldata.elf
LOAD build/us/bin/vcutm/leveldata.elf
LOAD build/us/bin/hmc/leveldata.elf
LOAD build/us/bin/bitdw/leveldata.elf
LOAD build/us/bin/castle_courtyard/leveldata.elf
LOAD build/us/bin/ttc/leveldata.elf
LOAD build/us/bin/cotmc/leveldata.elf
LOAD build/us/bin/rr/leveldata.elf
LOAD build/us/bin/bitfs/leveldata.elf
LOAD build/us/bin/wmotr/leveldata.elf
LOAD build/us/bin/ttm/leveldata.elf
LOAD build/us/bin/wf/leveldata.elf
LOAD build/us/bin/bits/leveldata.elf
LOAD build/us/bin/intro/leveldata.elf
LOAD build/us/bin/bob/leveldata.elf
LOAD build/us/bin/bowser_1/leveldata.elf
LOAD build/us/bin/totwc/leveldata.elf
LOAD build/us/bin/sa/leveldata.elf
LOAD build/us/bin/pss/leveldata.elf
LOAD build/us/bin/sl/leveldata.elf
LOAD build/us/bin/ccm/leveldata.elf
LOAD build/us/bin/ssl/leveldata.elf
LOAD build/us/src/engine/surface_collision.o
LOAD build/us/src/engine/behavior_script.o
LOAD build/us/src/engine/level_script.o
LOAD build/us/src/engine/math_util.o
LOAD build/us/src/engine/geo_layout.o
LOAD build/us/src/engine/surface_load.o
LOAD build/us/src/engine/graph_node.o
LOAD build/us/src/game/star_select.o
LOAD build/us/src/game/mario_actions_automatic.o
LOAD build/us/src/game/mario_actions_stationary.o
LOAD build/us/src/game/mario_actions_object.o
LOAD build/us/src/game/moving_texture.o
LOAD build/us/src/game/obj_behaviors.o
LOAD build/us/src/game/object_collision.o
LOAD build/us/src/game/display.o
LOAD build/us/src/game/interaction.o
LOAD build/us/src/game/platform_displacement.o
LOAD build/us/src/game/area.o
LOAD build/us/src/game/spawn_sound.o
LOAD build/us/src/game/mario_actions_moving.o
LOAD build/us/src/game/sound_init.o
LOAD build/us/src/game/spawn_object.o
LOAD build/us/src/game/envfx_snow.o
LOAD build/us/src/game/skybox.o
LOAD build/us/src/game/behavior_actions.o
LOAD build/us/src/game/debug_course.o
LOAD build/us/src/game/game.o
LOAD build/us/src/game/mario_step.o
LOAD build/us/src/game/object_list_processor.o
LOAD build/us/src/game/room.o
LOAD build/us/src/game/object_helpers.o
LOAD build/us/src/game/paintings.o
LOAD build/us/src/game/level_geo.o
LOAD build/us/src/game/camera.o
LOAD build/us/src/game/main.o
LOAD build/us/src/game/profiler.o
LOAD build/us/src/game/intro_geo.o
LOAD build/us/src/game/debug.o
LOAD build/us/src/game/hud.o
LOAD build/us/src/game/memory.o
LOAD build/us/src/game/ingame_menu.o
LOAD build/us/src/game/geo_misc.o
LOAD build/us/src/game/obj_behaviors_2.o
LOAD build/us/src/game/macro_special_objects.o
LOAD build/us/src/game/mario_actions_cutscene.o
LOAD build/us/src/game/screen_transition.o
LOAD build/us/src/game/envfx_bubbles.o
LOAD build/us/src/game/mario_misc.o
LOAD build/us/src/game/save_file.o
LOAD build/us/src/game/mario_actions_submerged.o
LOAD build/us/src/game/level_select_menu.o
LOAD build/us/src/game/print.o
LOAD build/us/src/game/mario_actions_airborne.o
LOAD build/us/src/game/mario.o
LOAD build/us/src/game/rendering_graph_node.o
LOAD build/us/src/game/file_select.o
LOAD build/us/src/game/shadow.o
LOAD build/us/src/game/level_update.o
LOAD build/us/src/goddard/skin_fns.o
LOAD build/us/src/goddard/mhead_sfx.o
LOAD build/us/src/goddard/half_6.o
LOAD build/us/src/goddard/dynlist_proc.o
LOAD build/us/src/goddard/mario_head_6.o
LOAD build/us/src/goddard/mario_head_1.o
LOAD build/us/src/goddard/matrix_fns.o
LOAD build/us/src/goddard/draw_objects.o
LOAD build/us/src/goddard/joint_fns.o
LOAD build/us/src/goddard/gd_memory.o
LOAD build/us/src/goddard/gd_main.o
LOAD build/us/src/goddard/old_obj_fn.o
LOAD build/us/src/goddard/mario_head_2.o
LOAD build/us/src/goddard/mario_head_3.o
LOAD build/us/src/goddard/profiler_utils.o
LOAD build/us/src/goddard/dynlists/dynlist_test_cube.o
LOAD build/us/src/goddard/dynlists/dynlists_mario_eyes.o
LOAD build/us/src/goddard/dynlists/anim_mario_lips_1.o
LOAD build/us/src/goddard/dynlists/dynlist_mario_master.o
LOAD build/us/src/goddard/dynlists/anim_mario_eyebrows_1.o
LOAD build/us/src/goddard/dynlists/anim_group_2.o
LOAD build/us/src/goddard/dynlists/anim_mario_mustache_left.o
LOAD build/us/src/goddard/dynlists/dynlist_mario_face.o
LOAD build/us/src/goddard/dynlists/anim_mario_lips_2.o
LOAD build/us/src/goddard/dynlists/anim_mario_mustache_right.o
LOAD build/us/src/goddard/dynlists/dynlist_unused.o
LOAD build/us/src/goddard/dynlists/dynlists_mario_eyebrows_mustache.o
LOAD build/us/src/goddard/dynlists/anim_group_1.o
LOAD build/us/src/audio/interface_2.o
LOAD build/us/src/audio/playback.o
LOAD build/us/src/audio/something.o
LOAD build/us/src/audio/interface_1.o
LOAD build/us/src/audio/dma.o
LOAD build/us/src/audio/dac.o
LOAD build/us/src/audio/data.o
LOAD build/us/src/audio/playback2.o
LOAD build/us/asm/boot.o
LOAD build/us/asm/rom_header.o
LOAD build/us/asm/decompress.o
LOAD build/us/asm/entry.o
LOAD build/us/actors/group7.o
LOAD build/us/actors/group5_geo.o
LOAD build/us/actors/group2_geo.o
LOAD build/us/actors/group5.o
LOAD build/us/actors/group16.o
LOAD build/us/actors/group12_geo.o
LOAD build/us/actors/group9.o
LOAD build/us/actors/group10.o
LOAD build/us/actors/group8_geo.o
LOAD build/us/actors/group14.o
LOAD build/us/actors/common1.o
LOAD build/us/actors/group2.o
LOAD build/us/actors/group3_geo.o
LOAD build/us/actors/common0_geo.o
LOAD build/us/actors/group11_geo.o
LOAD build/us/actors/group1.o
LOAD build/us/actors/group4.o
LOAD build/us/actors/group0_geo.o
LOAD build/us/actors/group13_geo.o
LOAD build/us/actors/group17_geo.o
LOAD build/us/actors/group6_geo.o
LOAD build/us/actors/group16_geo.o
LOAD build/us/actors/group4_geo.o
LOAD build/us/actors/group12.o
LOAD build/us/actors/group11.o
LOAD build/us/actors/group3.o
LOAD build/us/actors/common0.o
LOAD build/us/actors/group10_geo.o
LOAD build/us/actors/group0.o
LOAD build/us/actors/common1_geo.o
LOAD build/us/actors/group15.o
LOAD build/us/actors/group13.o
LOAD build/us/actors/group17.o
LOAD build/us/actors/group6.o
LOAD build/us/actors/group14_geo.o
LOAD build/us/actors/group15_geo.o
LOAD build/us/actors/group8.o
LOAD build/us/actors/group1_geo.o
LOAD build/us/actors/group9_geo.o
LOAD build/us/actors/group7_geo.o
LOAD build/us/lib/rsp.o
LOAD build/us/data/framebuffers.o
LOAD build/us/data/goddard_tex_dl.o
LOAD build/us/data/trig_tables.o
LOAD build/us/data/behavior_data.o
LOAD build/us/data/stack.o
LOAD build/us/levels/entry.o
LOAD build/us/levels/scripts.o
LOAD build/us/assets/music_data.sbk.o
LOAD build/us/assets/mario_anim_data.o
LOAD build/us/assets/sound_data.ctl.o
LOAD build/us/assets/demo_data.o
LOAD build/us/assets/sound_data.tbl.o
LOAD build/us/bin/bbh/header.o
LOAD build/us/bin/castle_grounds/header.o
LOAD build/us/bin/lll/header.o
LOAD build/us/bin/thi/header.o
LOAD build/us/bin/wdw/header.o
LOAD build/us/bin/ddd/header.o
LOAD build/us/bin/castle_inside/header.o
LOAD build/us/bin/bowser_2/header.o
LOAD build/us/bin/bowser_3/header.o
LOAD build/us/bin/ending/header.o
LOAD build/us/bin/menu/header.o
LOAD build/us/bin/jrb/header.o
LOAD build/us/bin/vcutm/header.o
LOAD build/us/bin/hmc/header.o
LOAD build/us/bin/bitdw/header.o
LOAD build/us/bin/castle_courtyard/header.o
LOAD build/us/bin/ttc/header.o
LOAD build/us/bin/cotmc/header.o
LOAD build/us/bin/rr/header.o
LOAD build/us/bin/bitfs/header.o
LOAD build/us/bin/wmotr/header.o
LOAD build/us/bin/ttm/header.o
LOAD build/us/bin/wf/header.o
LOAD build/us/bin/bits/header.o
LOAD build/us/bin/intro/header.o
LOAD build/us/bin/bob/header.o
LOAD build/us/bin/bowser_1/header.o
LOAD build/us/bin/totwc/header.o
LOAD build/us/bin/sa/header.o
LOAD build/us/bin/pss/header.o
LOAD build/us/bin/sl/header.o
LOAD build/us/bin/ccm/header.o
LOAD build/us/bin/ssl/header.o
LOAD build/us/libultra.a
OUTPUT(build/us/sm64.u.elf elf32-tradbigmips)
